
C:/gitprj/lcd_i2cpwm_demo/build/src/lcd_i2cpwm_demo.elf:     file format elf32-littlearm

Sections:
Idx Name          Size      VMA       LMA       File off  Algn
  0 .boot2        00000100  10000000  10000000  00001000  2**0
                  CONTENTS, ALLOC, LOAD, READONLY, CODE
  1 .text         0000c258  10000100  10000100  00001100  2**3
                  CONTENTS, ALLOC, LOAD, READONLY, CODE
  2 .rodata       000013b4  1000c358  1000c358  0000d358  2**3
                  CONTENTS, ALLOC, LOAD, READONLY, DATA
  3 .binary_info  00000024  1000d70c  1000d70c  0000e70c  2**2
                  CONTENTS, ALLOC, LOAD, DATA
  4 .ram_vector_table 000000c0  20000000  20000000  0000f514  2**2
                  CONTENTS
  5 .data         00000454  200000c0  1000d730  0000f0c0  2**4
                  CONTENTS, ALLOC, LOAD, READONLY, CODE
  6 .uninitialized_data 00000000  20000514  20000514  0000f5d4  2**0
                  CONTENTS
  7 .scratch_x    00000000  20040000  20040000  0000f5d4  2**0
                  CONTENTS
  8 .scratch_y    00000000  20041000  20041000  0000f5d4  2**0
                  CONTENTS
  9 .bss          00026c40  20000518  20000518  0000f518  2**3
                  ALLOC
 10 .heap         00000800  20027158  20027158  0000f5d4  2**2
                  CONTENTS, READONLY
 11 .stack_dummy  00000800  20041000  20041000  0000fde0  2**5
                  CONTENTS, READONLY
 12 .ARM.attributes 00000028  00000000  00000000  000105e0  2**0
                  CONTENTS, READONLY
 13 .comment      00000049  00000000  00000000  00010608  2**0
                  CONTENTS, READONLY
 14 .debug_frame  00000028  00000000  00000000  00010654  2**2
                  CONTENTS, READONLY, DEBUGGING, OCTETS

C:/gitprj/lcd_i2cpwm_demo/build/src/lcd_i2cpwm_demo.elf:     file format elf32-littlearm


Disassembly of section .boot2:

10000000 <__boot2_start__>:
10000000:	4b32b500 	.word	0x4b32b500
10000004:	60582021 	.word	0x60582021
10000008:	21026898 	.word	0x21026898
1000000c:	60984388 	.word	0x60984388
10000010:	611860d8 	.word	0x611860d8
10000014:	4b2e6158 	.word	0x4b2e6158
10000018:	60992100 	.word	0x60992100
1000001c:	61592102 	.word	0x61592102
10000020:	22f02101 	.word	0x22f02101
10000024:	492b5099 	.word	0x492b5099
10000028:	21016019 	.word	0x21016019
1000002c:	20356099 	.word	0x20356099
10000030:	f844f000 	.word	0xf844f000
10000034:	42902202 	.word	0x42902202
10000038:	2106d014 	.word	0x2106d014
1000003c:	f0006619 	.word	0xf0006619
10000040:	6e19f834 	.word	0x6e19f834
10000044:	66192101 	.word	0x66192101
10000048:	66182000 	.word	0x66182000
1000004c:	f000661a 	.word	0xf000661a
10000050:	6e19f82c 	.word	0x6e19f82c
10000054:	6e196e19 	.word	0x6e196e19
10000058:	f0002005 	.word	0xf0002005
1000005c:	2101f82f 	.word	0x2101f82f
10000060:	d1f94208 	.word	0xd1f94208
10000064:	60992100 	.word	0x60992100
10000068:	6019491b 	.word	0x6019491b
1000006c:	60592100 	.word	0x60592100
10000070:	481b491a 	.word	0x481b491a
10000074:	21016001 	.word	0x21016001
10000078:	21eb6099 	.word	0x21eb6099
1000007c:	21a06619 	.word	0x21a06619
10000080:	f0006619 	.word	0xf0006619
10000084:	2100f812 	.word	0x2100f812
10000088:	49166099 	.word	0x49166099
1000008c:	60014814 	.word	0x60014814
10000090:	60992101 	.word	0x60992101
10000094:	2800bc01 	.word	0x2800bc01
10000098:	4700d000 	.word	0x4700d000
1000009c:	49134812 	.word	0x49134812
100000a0:	c8036008 	.word	0xc8036008
100000a4:	8808f380 	.word	0x8808f380
100000a8:	b5034708 	.word	0xb5034708
100000ac:	20046a99 	.word	0x20046a99
100000b0:	d0fb4201 	.word	0xd0fb4201
100000b4:	42012001 	.word	0x42012001
100000b8:	bd03d1f8 	.word	0xbd03d1f8
100000bc:	6618b502 	.word	0x6618b502
100000c0:	f7ff6618 	.word	0xf7ff6618
100000c4:	6e18fff2 	.word	0x6e18fff2
100000c8:	bd026e18 	.word	0xbd026e18
100000cc:	40020000 	.word	0x40020000
100000d0:	18000000 	.word	0x18000000
100000d4:	00070000 	.word	0x00070000
100000d8:	005f0300 	.word	0x005f0300
100000dc:	00002221 	.word	0x00002221
100000e0:	180000f4 	.word	0x180000f4
100000e4:	a0002022 	.word	0xa0002022
100000e8:	10000100 	.word	0x10000100
100000ec:	e000ed08 	.word	0xe000ed08
	...
100000fc:	7a4eb274 	.word	0x7a4eb274

Disassembly of section .text:

10000100 <__VECTOR_TABLE>:
10000100:	20042000 	.word	0x20042000
10000104:	100001f7 	.word	0x100001f7
10000108:	100001c3 	.word	0x100001c3
1000010c:	100001c5 	.word	0x100001c5
10000110:	100001c1 	.word	0x100001c1
10000114:	100001c1 	.word	0x100001c1
10000118:	100001c1 	.word	0x100001c1
1000011c:	100001c1 	.word	0x100001c1
10000120:	100001c1 	.word	0x100001c1
10000124:	100001c1 	.word	0x100001c1
10000128:	100001c1 	.word	0x100001c1
1000012c:	100001c7 	.word	0x100001c7
10000130:	100001c1 	.word	0x100001c1
10000134:	100001c1 	.word	0x100001c1
10000138:	100001c9 	.word	0x100001c9
1000013c:	100001cb 	.word	0x100001cb
10000140:	100001cd 	.word	0x100001cd
10000144:	100001cd 	.word	0x100001cd
10000148:	100001cd 	.word	0x100001cd
1000014c:	100001cd 	.word	0x100001cd
10000150:	100001cd 	.word	0x100001cd
10000154:	100001cd 	.word	0x100001cd
10000158:	100001cd 	.word	0x100001cd
1000015c:	100001cd 	.word	0x100001cd
10000160:	100001cd 	.word	0x100001cd
10000164:	100001cd 	.word	0x100001cd
10000168:	100001cd 	.word	0x100001cd
1000016c:	100001cd 	.word	0x100001cd
10000170:	100001cd 	.word	0x100001cd
10000174:	100001cd 	.word	0x100001cd
10000178:	100001cd 	.word	0x100001cd
1000017c:	100001cd 	.word	0x100001cd
10000180:	100001cd 	.word	0x100001cd
10000184:	100001cd 	.word	0x100001cd
10000188:	100001cd 	.word	0x100001cd
1000018c:	100001cd 	.word	0x100001cd
10000190:	100001cd 	.word	0x100001cd
10000194:	100001cd 	.word	0x100001cd
10000198:	100001cd 	.word	0x100001cd
1000019c:	100001cd 	.word	0x100001cd
100001a0:	100001cd 	.word	0x100001cd
100001a4:	100001cd 	.word	0x100001cd
100001a8:	100001cd 	.word	0x100001cd
100001ac:	100001cd 	.word	0x100001cd
100001b0:	100001cd 	.word	0x100001cd
100001b4:	100001cd 	.word	0x100001cd
100001b8:	100001cd 	.word	0x100001cd
100001bc:	100001cd 	.word	0x100001cd

100001c0 <isr_invalid>:
100001c0:	be00      	bkpt	0x0000

100001c2 <NMI_Handler>:
100001c2:	be00      	bkpt	0x0000

100001c4 <HardFault_Handler>:
100001c4:	be00      	bkpt	0x0000

100001c6 <SVC_Handler>:
100001c6:	be00      	bkpt	0x0000

100001c8 <PendSV_Handler>:
100001c8:	be00      	bkpt	0x0000

100001ca <SysTick_Handler>:
100001ca:	be00      	bkpt	0x0000

100001cc <__unhandled_user_irq>:
100001cc:	f000 f84b 	bl	10000266 <__get_current_exception>
100001d0:	3810      	subs	r0, #16

100001d2 <unhandled_user_irq_num_in_r0>:
100001d2:	be00      	bkpt	0x0000

100001d4 <binary_info_header>:
100001d4:	7188ebf2 	.word	0x7188ebf2
100001d8:	1000d70c 	.word	0x1000d70c
100001dc:	1000d730 	.word	0x1000d730
100001e0:	10000234 	.word	0x10000234
100001e4:	e71aa390 	.word	0xe71aa390

100001e8 <_entry_point>:
100001e8:	2000      	movs	r0, #0
100001ea:	4921      	ldr	r1, [pc, #132]	; (10000270 <__get_current_exception+0xa>)
100001ec:	6008      	str	r0, [r1, #0]
100001ee:	c806      	ldmia	r0!, {r1, r2}
100001f0:	f381 8808 	msr	MSP, r1
100001f4:	4710      	bx	r2

100001f6 <_reset_handler>:
100001f6:	481f      	ldr	r0, [pc, #124]	; (10000274 <__get_current_exception+0xe>)
100001f8:	6800      	ldr	r0, [r0, #0]
100001fa:	2800      	cmp	r0, #0
100001fc:	d12f      	bne.n	1000025e <hold_non_core0_in_bootrom>
100001fe:	a40d      	add	r4, pc, #52	; (adr r4, 10000234 <data_cpy_table>)
10000200:	cc0e      	ldmia	r4!, {r1, r2, r3}
10000202:	2900      	cmp	r1, #0
10000204:	d002      	beq.n	1000020c <_reset_handler+0x16>
10000206:	f000 f812 	bl	1000022e <data_cpy>
1000020a:	e7f9      	b.n	10000200 <_reset_handler+0xa>
1000020c:	491a      	ldr	r1, [pc, #104]	; (10000278 <__get_current_exception+0x12>)
1000020e:	4a1b      	ldr	r2, [pc, #108]	; (1000027c <__get_current_exception+0x16>)
10000210:	2000      	movs	r0, #0
10000212:	e000      	b.n	10000216 <bss_fill_test>

10000214 <bss_fill_loop>:
10000214:	c101      	stmia	r1!, {r0}

10000216 <bss_fill_test>:
10000216:	4291      	cmp	r1, r2
10000218:	d1fc      	bne.n	10000214 <bss_fill_loop>

1000021a <platform_entry>:
1000021a:	4919      	ldr	r1, [pc, #100]	; (10000280 <__get_current_exception+0x1a>)
1000021c:	4788      	blx	r1
1000021e:	4919      	ldr	r1, [pc, #100]	; (10000284 <__get_current_exception+0x1e>)
10000220:	4788      	blx	r1
10000222:	4919      	ldr	r1, [pc, #100]	; (10000288 <__get_current_exception+0x22>)
10000224:	4788      	blx	r1
10000226:	be00      	bkpt	0x0000
10000228:	e7fd      	b.n	10000226 <platform_entry+0xc>

1000022a <data_cpy_loop>:
1000022a:	c901      	ldmia	r1!, {r0}
1000022c:	c201      	stmia	r2!, {r0}

1000022e <data_cpy>:
1000022e:	429a      	cmp	r2, r3
10000230:	d3fb      	bcc.n	1000022a <data_cpy_loop>
10000232:	4770      	bx	lr

10000234 <data_cpy_table>:
10000234:	1000d730 	.word	0x1000d730
10000238:	200000c0 	.word	0x200000c0
1000023c:	20000514 	.word	0x20000514
10000240:	1000db84 	.word	0x1000db84
10000244:	20040000 	.word	0x20040000
10000248:	20040000 	.word	0x20040000
1000024c:	1000db84 	.word	0x1000db84
10000250:	20041000 	.word	0x20041000
10000254:	20041000 	.word	0x20041000
10000258:	00000000 	.word	0x00000000
1000025c:	4770      	bx	lr

1000025e <hold_non_core0_in_bootrom>:
1000025e:	480b      	ldr	r0, [pc, #44]	; (1000028c <__get_current_exception+0x26>)
10000260:	f007 ffd8 	bl	10008214 <rom_func_lookup>
10000264:	4700      	bx	r0

10000266 <__get_current_exception>:
10000266:	f3ef 8005 	mrs	r0, IPSR
1000026a:	b2c0      	uxtb	r0, r0
1000026c:	4770      	bx	lr
1000026e:	0000      	.short	0x0000
10000270:	e000ed08 	.word	0xe000ed08
10000274:	d0000000 	.word	0xd0000000
10000278:	20000518 	.word	0x20000518
1000027c:	20027158 	.word	0x20027158
10000280:	10006b11 	.word	0x10006b11
10000284:	1000030d 	.word	0x1000030d
10000288:	10006c01 	.word	0x10006c01
1000028c:	00005657 	.word	0x00005657

10000290 <__bi_50>:
10000290:	50520006 5360b3ab 1000d4c8              ..RP..`S....

1000029c <__bi_38>:
1000029c:	50520006 02031c86 1000d4d8              ..RP........

100002a8 <__bi_30>:
100002a8:	50520006 9da22254 1000d4e8              ..RPT"......

100002b4 <__bi_22>:
100002b4:	50520005 68f465de 1000db84              ..RP.e.h....

100002c0 <_init>:
100002c0:	b5f8      	push	{r3, r4, r5, r6, r7, lr}
100002c2:	46c0      	nop			; (mov r8, r8)

100002c4 <__do_global_dtors_aux>:
100002c4:	b510      	push	{r4, lr}
100002c6:	4c06      	ldr	r4, [pc, #24]	; (100002e0 <__do_global_dtors_aux+0x1c>)
100002c8:	7823      	ldrb	r3, [r4, #0]
100002ca:	2b00      	cmp	r3, #0
100002cc:	d107      	bne.n	100002de <__do_global_dtors_aux+0x1a>
100002ce:	4b05      	ldr	r3, [pc, #20]	; (100002e4 <__do_global_dtors_aux+0x20>)
100002d0:	2b00      	cmp	r3, #0
100002d2:	d002      	beq.n	100002da <__do_global_dtors_aux+0x16>
100002d4:	4804      	ldr	r0, [pc, #16]	; (100002e8 <__do_global_dtors_aux+0x24>)
100002d6:	e000      	b.n	100002da <__do_global_dtors_aux+0x16>
100002d8:	bf00      	nop
100002da:	2301      	movs	r3, #1
100002dc:	7023      	strb	r3, [r4, #0]
100002de:	bd10      	pop	{r4, pc}
100002e0:	20000820 	.word	0x20000820
100002e4:	00000000 	.word	0x00000000
100002e8:	1000c358 	.word	0x1000c358

100002ec <frame_dummy>:
100002ec:	4b04      	ldr	r3, [pc, #16]	; (10000300 <frame_dummy+0x14>)
100002ee:	b510      	push	{r4, lr}
100002f0:	2b00      	cmp	r3, #0
100002f2:	d003      	beq.n	100002fc <frame_dummy+0x10>
100002f4:	4903      	ldr	r1, [pc, #12]	; (10000304 <frame_dummy+0x18>)
100002f6:	4804      	ldr	r0, [pc, #16]	; (10000308 <frame_dummy+0x1c>)
100002f8:	e000      	b.n	100002fc <frame_dummy+0x10>
100002fa:	bf00      	nop
100002fc:	bd10      	pop	{r4, pc}
100002fe:	46c0      	nop			; (mov r8, r8)
10000300:	00000000 	.word	0x00000000
10000304:	20000824 	.word	0x20000824
10000308:	1000c358 	.word	0x1000c358

1000030c <main>:
1000030c:	b510      	push	{r4, lr}
1000030e:	f000 f801 	bl	10000314 <lcd_run>
10000312:	e7fc      	b.n	1000030e <main+0x2>

10000314 <lcd_run>:
10000314:	b510      	push	{r4, lr}
10000316:	f000 f863 	bl	100003e0 <System_Init>
1000031a:	f000 f82b 	bl	10000374 <SENSOR_GPIO_Init>
1000031e:	f001 fe63 	bl	10001fe8 <SD_Init>
10000322:	f004 fd27 	bl	10004d74 <pca_i2c_init>
10000326:	f004 fc8d 	bl	10004c44 <i2c_bus_scan>
1000032a:	21c8      	movs	r1, #200	; 0xc8
1000032c:	2004      	movs	r0, #4
1000032e:	0089      	lsls	r1, r1, #2
10000330:	f001 fee2 	bl	100020f8 <LCD_Init>
10000334:	2004      	movs	r0, #4
10000336:	f004 f95b 	bl	100045f0 <TP_Init>
1000033a:	f003 ff03 	bl	10004144 <TP_GetAdFac>
1000033e:	2000      	movs	r0, #0
10000340:	f003 fd2c 	bl	10003d9c <LCD_Clear>
10000344:	f003 ff74 	bl	10004230 <TP_gesmain>
10000348:	f003 ffba 	bl	100042c0 <TP_DrawBoard>
1000034c:	e7fc      	b.n	10000348 <lcd_run+0x34>
1000034e:	46c0      	nop			; (mov r8, r8)

10000350 <DEV_Digital_Write>:
10000350:	2301      	movs	r3, #1
10000352:	22d0      	movs	r2, #208	; 0xd0
10000354:	4083      	lsls	r3, r0
10000356:	0612      	lsls	r2, r2, #24
10000358:	2900      	cmp	r1, #0
1000035a:	d001      	beq.n	10000360 <DEV_Digital_Write+0x10>
1000035c:	6153      	str	r3, [r2, #20]
1000035e:	4770      	bx	lr
10000360:	6193      	str	r3, [r2, #24]
10000362:	e7fc      	b.n	1000035e <DEV_Digital_Write+0xe>

10000364 <DEV_Digital_Read>:
10000364:	23d0      	movs	r3, #208	; 0xd0
10000366:	061b      	lsls	r3, r3, #24
10000368:	685b      	ldr	r3, [r3, #4]
1000036a:	40c3      	lsrs	r3, r0
1000036c:	2001      	movs	r0, #1
1000036e:	4018      	ands	r0, r3
10000370:	4770      	bx	lr
10000372:	46c0      	nop			; (mov r8, r8)

10000374 <SENSOR_GPIO_Init>:
10000374:	b510      	push	{r4, lr}
10000376:	2000      	movs	r0, #0
10000378:	24d0      	movs	r4, #208	; 0xd0
1000037a:	f004 ffe5 	bl	10005348 <gpio_init>
1000037e:	2301      	movs	r3, #1
10000380:	0624      	lsls	r4, r4, #24
10000382:	62a3      	str	r3, [r4, #40]	; 0x28
10000384:	2001      	movs	r0, #1
10000386:	f004 ffdf 	bl	10005348 <gpio_init>
1000038a:	2302      	movs	r3, #2
1000038c:	2002      	movs	r0, #2
1000038e:	62a3      	str	r3, [r4, #40]	; 0x28
10000390:	f004 ffda 	bl	10005348 <gpio_init>
10000394:	2304      	movs	r3, #4
10000396:	2003      	movs	r0, #3
10000398:	62a3      	str	r3, [r4, #40]	; 0x28
1000039a:	f004 ffd5 	bl	10005348 <gpio_init>
1000039e:	2308      	movs	r3, #8
100003a0:	2004      	movs	r0, #4
100003a2:	62a3      	str	r3, [r4, #40]	; 0x28
100003a4:	f004 ffd0 	bl	10005348 <gpio_init>
100003a8:	2310      	movs	r3, #16
100003aa:	2200      	movs	r2, #0
100003ac:	62a3      	str	r3, [r4, #40]	; 0x28
100003ae:	2101      	movs	r1, #1
100003b0:	2000      	movs	r0, #0
100003b2:	f004 ffb1 	bl	10005318 <gpio_set_pulls>
100003b6:	2200      	movs	r2, #0
100003b8:	2101      	movs	r1, #1
100003ba:	2001      	movs	r0, #1
100003bc:	f004 ffac 	bl	10005318 <gpio_set_pulls>
100003c0:	2200      	movs	r2, #0
100003c2:	2101      	movs	r1, #1
100003c4:	2002      	movs	r0, #2
100003c6:	f004 ffa7 	bl	10005318 <gpio_set_pulls>
100003ca:	2200      	movs	r2, #0
100003cc:	2101      	movs	r1, #1
100003ce:	2003      	movs	r0, #3
100003d0:	f004 ffa2 	bl	10005318 <gpio_set_pulls>
100003d4:	2200      	movs	r2, #0
100003d6:	2101      	movs	r1, #1
100003d8:	2004      	movs	r0, #4
100003da:	f004 ff9d 	bl	10005318 <gpio_set_pulls>
100003de:	bd10      	pop	{r4, pc}

100003e0 <System_Init>:
100003e0:	b5f0      	push	{r4, r5, r6, r7, lr}
100003e2:	46c6      	mov	lr, r8
100003e4:	b500      	push	{lr}
100003e6:	b084      	sub	sp, #16
100003e8:	482f      	ldr	r0, [pc, #188]	; (100004a8 <System_Init+0xc8>)
100003ea:	ab03      	add	r3, sp, #12
100003ec:	aa02      	add	r2, sp, #8
100003ee:	a901      	add	r1, sp, #4
100003f0:	f006 fad2 	bl	10006998 <check_sys_clock_khz>
100003f4:	2800      	cmp	r0, #0
100003f6:	d103      	bne.n	10000400 <System_Init+0x20>
100003f8:	492b      	ldr	r1, [pc, #172]	; (100004a8 <System_Init+0xc8>)
100003fa:	482c      	ldr	r0, [pc, #176]	; (100004ac <System_Init+0xcc>)
100003fc:	f006 fc02 	bl	10006c04 <panic>
10000400:	9a03      	ldr	r2, [sp, #12]
10000402:	9902      	ldr	r1, [sp, #8]
10000404:	9801      	ldr	r0, [sp, #4]
10000406:	f006 fa8b 	bl	10006920 <set_sys_clock_pll>
1000040a:	f009 f855 	bl	100094b8 <stdio_init_all>
1000040e:	200f      	movs	r0, #15
10000410:	f004 ff9a 	bl	10005348 <gpio_init>
10000414:	24d0      	movs	r4, #208	; 0xd0
10000416:	2380      	movs	r3, #128	; 0x80
10000418:	0624      	lsls	r4, r4, #24
1000041a:	021b      	lsls	r3, r3, #8
1000041c:	6263      	str	r3, [r4, #36]	; 0x24
1000041e:	2008      	movs	r0, #8
10000420:	f004 ff92 	bl	10005348 <gpio_init>
10000424:	2380      	movs	r3, #128	; 0x80
10000426:	2680      	movs	r6, #128	; 0x80
10000428:	2780      	movs	r7, #128	; 0x80
1000042a:	005b      	lsls	r3, r3, #1
1000042c:	6263      	str	r3, [r4, #36]	; 0x24
1000042e:	01b6      	lsls	r6, r6, #6
10000430:	200d      	movs	r0, #13
10000432:	f004 ff89 	bl	10005348 <gpio_init>
10000436:	00bf      	lsls	r7, r7, #2
10000438:	2009      	movs	r0, #9
1000043a:	6266      	str	r6, [r4, #36]	; 0x24
1000043c:	f004 ff84 	bl	10005348 <gpio_init>
10000440:	2010      	movs	r0, #16
10000442:	6267      	str	r7, [r4, #36]	; 0x24
10000444:	f004 ff80 	bl	10005348 <gpio_init>
10000448:	2380      	movs	r3, #128	; 0x80
1000044a:	025b      	lsls	r3, r3, #9
1000044c:	6263      	str	r3, [r4, #36]	; 0x24
1000044e:	2011      	movs	r0, #17
10000450:	4698      	mov	r8, r3
10000452:	f004 ff79 	bl	10005348 <gpio_init>
10000456:	2380      	movs	r3, #128	; 0x80
10000458:	2580      	movs	r5, #128	; 0x80
1000045a:	029b      	lsls	r3, r3, #10
1000045c:	62a3      	str	r3, [r4, #40]	; 0x28
1000045e:	03ed      	lsls	r5, r5, #15
10000460:	2016      	movs	r0, #22
10000462:	f004 ff71 	bl	10005348 <gpio_init>
10000466:	2200      	movs	r2, #0
10000468:	2101      	movs	r1, #1
1000046a:	2011      	movs	r0, #17
1000046c:	6265      	str	r5, [r4, #36]	; 0x24
1000046e:	f004 ff53 	bl	10005318 <gpio_set_pulls>
10000472:	4643      	mov	r3, r8
10000474:	490e      	ldr	r1, [pc, #56]	; (100004b0 <System_Init+0xd0>)
10000476:	6163      	str	r3, [r4, #20]
10000478:	480e      	ldr	r0, [pc, #56]	; (100004b4 <System_Init+0xd4>)
1000047a:	6167      	str	r7, [r4, #20]
1000047c:	6166      	str	r6, [r4, #20]
1000047e:	6165      	str	r5, [r4, #20]
10000480:	f00b fce8 	bl	1000be54 <spi_init>
10000484:	2101      	movs	r1, #1
10000486:	200a      	movs	r0, #10
10000488:	f004 ff2e 	bl	100052e8 <gpio_set_function>
1000048c:	2101      	movs	r1, #1
1000048e:	200b      	movs	r0, #11
10000490:	f004 ff2a 	bl	100052e8 <gpio_set_function>
10000494:	2101      	movs	r1, #1
10000496:	200c      	movs	r0, #12
10000498:	f004 ff26 	bl	100052e8 <gpio_set_function>
1000049c:	2000      	movs	r0, #0
1000049e:	b004      	add	sp, #16
100004a0:	bc80      	pop	{r7}
100004a2:	46b8      	mov	r8, r7
100004a4:	bdf0      	pop	{r4, r5, r6, r7, pc}
100004a6:	46c0      	nop			; (mov r8, r8)
100004a8:	0003d090 	.word	0x0003d090
100004ac:	1000c358 	.word	0x1000c358
100004b0:	003d0900 	.word	0x003d0900
100004b4:	40040000 	.word	0x40040000

100004b8 <SPI4W_Write_Byte>:
100004b8:	b510      	push	{r4, lr}
100004ba:	b084      	sub	sp, #16
100004bc:	466b      	mov	r3, sp
100004be:	240f      	movs	r4, #15
100004c0:	446c      	add	r4, sp
100004c2:	1dd9      	adds	r1, r3, #7
100004c4:	7008      	strb	r0, [r1, #0]
100004c6:	2301      	movs	r3, #1
100004c8:	0022      	movs	r2, r4
100004ca:	4803      	ldr	r0, [pc, #12]	; (100004d8 <SPI4W_Write_Byte+0x20>)
100004cc:	f00b ff34 	bl	1000c338 <__spi_write_read_blocking_veneer>
100004d0:	7820      	ldrb	r0, [r4, #0]
100004d2:	b004      	add	sp, #16
100004d4:	bd10      	pop	{r4, pc}
100004d6:	46c0      	nop			; (mov r8, r8)
100004d8:	40040000 	.word	0x40040000

100004dc <SPI4W_Read_Byte>:
100004dc:	b510      	push	{r4, lr}
100004de:	b082      	sub	sp, #8
100004e0:	466b      	mov	r3, sp
100004e2:	1ddc      	adds	r4, r3, #7
100004e4:	1d99      	adds	r1, r3, #6
100004e6:	7008      	strb	r0, [r1, #0]
100004e8:	2301      	movs	r3, #1
100004ea:	0022      	movs	r2, r4
100004ec:	4802      	ldr	r0, [pc, #8]	; (100004f8 <SPI4W_Read_Byte+0x1c>)
100004ee:	f00b ff23 	bl	1000c338 <__spi_write_read_blocking_veneer>
100004f2:	7820      	ldrb	r0, [r4, #0]
100004f4:	b002      	add	sp, #8
100004f6:	bd10      	pop	{r4, pc}
100004f8:	40040000 	.word	0x40040000

100004fc <Driver_Delay_ms>:
100004fc:	b510      	push	{r4, lr}
100004fe:	f005 fd75 	bl	10005fec <sleep_ms>
10000502:	bd10      	pop	{r4, pc}

10000504 <Driver_Delay_us>:
10000504:	4770      	bx	lr
10000506:	46c0      	nop			; (mov r8, r8)

10000508 <disk_initialize>:
10000508:	0003      	movs	r3, r0
1000050a:	b510      	push	{r4, lr}
1000050c:	2001      	movs	r0, #1
1000050e:	2b00      	cmp	r3, #0
10000510:	d000      	beq.n	10000514 <disk_initialize+0xc>
10000512:	bd10      	pop	{r4, pc}
10000514:	f004 f99e 	bl	10004854 <SD_Initialize>
10000518:	2800      	cmp	r0, #0
1000051a:	d0fa      	beq.n	10000512 <disk_initialize+0xa>
1000051c:	f004 f8c8 	bl	100046b0 <SD_SPI_SpeedLow>
10000520:	20ff      	movs	r0, #255	; 0xff
10000522:	f004 f8c1 	bl	100046a8 <SD_SPI_ReadWriteByte>
10000526:	f004 f8c5 	bl	100046b4 <SD_SPI_SpeedHigh>
1000052a:	2001      	movs	r0, #1
1000052c:	e7f1      	b.n	10000512 <disk_initialize+0xa>
1000052e:	46c0      	nop			; (mov r8, r8)

10000530 <disk_status>:
10000530:	2000      	movs	r0, #0
10000532:	4770      	bx	lr

10000534 <disk_read>:
10000534:	b570      	push	{r4, r5, r6, lr}
10000536:	000d      	movs	r5, r1
10000538:	0004      	movs	r4, r0
1000053a:	0011      	movs	r1, r2
1000053c:	1e1a      	subs	r2, r3, #0
1000053e:	d011      	beq.n	10000564 <disk_read+0x30>
10000540:	2001      	movs	r0, #1
10000542:	2c00      	cmp	r4, #0
10000544:	d000      	beq.n	10000548 <disk_read+0x14>
10000546:	bd70      	pop	{r4, r5, r6, pc}
10000548:	0028      	movs	r0, r5
1000054a:	f004 fa61 	bl	10004a10 <SD_ReadDisk>
1000054e:	2800      	cmp	r0, #0
10000550:	d0f9      	beq.n	10000546 <disk_read+0x12>
10000552:	f004 f8ad 	bl	100046b0 <SD_SPI_SpeedLow>
10000556:	20ff      	movs	r0, #255	; 0xff
10000558:	f004 f8a6 	bl	100046a8 <SD_SPI_ReadWriteByte>
1000055c:	f004 f8aa 	bl	100046b4 <SD_SPI_SpeedHigh>
10000560:	2001      	movs	r0, #1
10000562:	e7f0      	b.n	10000546 <disk_read+0x12>
10000564:	2004      	movs	r0, #4
10000566:	e7ee      	b.n	10000546 <disk_read+0x12>

10000568 <disk_write>:
10000568:	b570      	push	{r4, r5, r6, lr}
1000056a:	000d      	movs	r5, r1
1000056c:	0004      	movs	r4, r0
1000056e:	0011      	movs	r1, r2
10000570:	1e1a      	subs	r2, r3, #0
10000572:	d00a      	beq.n	1000058a <disk_write+0x22>
10000574:	2001      	movs	r0, #1
10000576:	2c00      	cmp	r4, #0
10000578:	d000      	beq.n	1000057c <disk_write+0x14>
1000057a:	bd70      	pop	{r4, r5, r6, pc}
1000057c:	0028      	movs	r0, r5
1000057e:	f004 fab7 	bl	10004af0 <SD_WriteDisk>
10000582:	1e43      	subs	r3, r0, #1
10000584:	4198      	sbcs	r0, r3
10000586:	b2c0      	uxtb	r0, r0
10000588:	e7f7      	b.n	1000057a <disk_write+0x12>
1000058a:	2004      	movs	r0, #4
1000058c:	e7f5      	b.n	1000057a <disk_write+0x12>
1000058e:	46c0      	nop			; (mov r8, r8)

10000590 <disk_ioctl>:
10000590:	b570      	push	{r4, r5, r6, lr}
10000592:	0014      	movs	r4, r2
10000594:	2501      	movs	r5, #1
10000596:	2800      	cmp	r0, #0
10000598:	d108      	bne.n	100005ac <disk_ioctl+0x1c>
1000059a:	2902      	cmp	r1, #2
1000059c:	d00f      	beq.n	100005be <disk_ioctl+0x2e>
1000059e:	d807      	bhi.n	100005b0 <disk_ioctl+0x20>
100005a0:	2900      	cmp	r1, #0
100005a2:	d011      	beq.n	100005c8 <disk_ioctl+0x38>
100005a4:	f004 f91e 	bl	100047e4 <SD_GetSectorCount>
100005a8:	2500      	movs	r5, #0
100005aa:	6020      	str	r0, [r4, #0]
100005ac:	0028      	movs	r0, r5
100005ae:	bd70      	pop	{r4, r5, r6, pc}
100005b0:	2504      	movs	r5, #4
100005b2:	2903      	cmp	r1, #3
100005b4:	d1fa      	bne.n	100005ac <disk_ioctl+0x1c>
100005b6:	2308      	movs	r3, #8
100005b8:	2500      	movs	r5, #0
100005ba:	8013      	strh	r3, [r2, #0]
100005bc:	e7f6      	b.n	100005ac <disk_ioctl+0x1c>
100005be:	2380      	movs	r3, #128	; 0x80
100005c0:	009b      	lsls	r3, r3, #2
100005c2:	2500      	movs	r5, #0
100005c4:	8013      	strh	r3, [r2, #0]
100005c6:	e7f1      	b.n	100005ac <disk_ioctl+0x1c>
100005c8:	2100      	movs	r1, #0
100005ca:	2016      	movs	r0, #22
100005cc:	f7ff fec0 	bl	10000350 <DEV_Digital_Write>
100005d0:	f004 f872 	bl	100046b8 <SD_WaitReady>
100005d4:	1e43      	subs	r3, r0, #1
100005d6:	4198      	sbcs	r0, r3
100005d8:	2101      	movs	r1, #1
100005da:	b2c5      	uxtb	r5, r0
100005dc:	2016      	movs	r0, #22
100005de:	f7ff feb7 	bl	10000350 <DEV_Digital_Write>
100005e2:	e7e3      	b.n	100005ac <disk_ioctl+0x1c>

100005e4 <get_fattime>:
100005e4:	2000      	movs	r0, #0
100005e6:	4770      	bx	lr

100005e8 <Storage_OpenReadFile>:
100005e8:	b5f0      	push	{r4, r5, r6, r7, lr}
100005ea:	46de      	mov	lr, fp
100005ec:	4657      	mov	r7, sl
100005ee:	464e      	mov	r6, r9
100005f0:	4645      	mov	r5, r8
100005f2:	b5e0      	push	{r5, r6, r7, lr}
100005f4:	0017      	movs	r7, r2
100005f6:	4c66      	ldr	r4, [pc, #408]	; (10000790 <Storage_OpenReadFile+0x1a8>)
100005f8:	2201      	movs	r2, #1
100005fa:	44a5      	add	sp, r4
100005fc:	9000      	str	r0, [sp, #0]
100005fe:	9101      	str	r1, [sp, #4]
10000600:	a802      	add	r0, sp, #8
10000602:	0039      	movs	r1, r7
10000604:	f001 fb8c 	bl	10001d20 <f_open>
10000608:	4b62      	ldr	r3, [pc, #392]	; (10000794 <Storage_OpenReadFile+0x1ac>)
1000060a:	4c63      	ldr	r4, [pc, #396]	; (10000798 <Storage_OpenReadFile+0x1b0>)
1000060c:	4698      	mov	r8, r3
1000060e:	221e      	movs	r2, #30
10000610:	0021      	movs	r1, r4
10000612:	a802      	add	r0, sp, #8
10000614:	f001 fc4e 	bl	10001eb4 <f_read>
10000618:	0039      	movs	r1, r7
1000061a:	4860      	ldr	r0, [pc, #384]	; (1000079c <Storage_OpenReadFile+0x1b4>)
1000061c:	f008 ff40 	bl	100094a0 <__wrap_printf>
10000620:	88a1      	ldrh	r1, [r4, #4]
10000622:	8863      	ldrh	r3, [r4, #2]
10000624:	0409      	lsls	r1, r1, #16
10000626:	4319      	orrs	r1, r3
10000628:	485d      	ldr	r0, [pc, #372]	; (100007a0 <Storage_OpenReadFile+0x1b8>)
1000062a:	f008 ff39 	bl	100094a0 <__wrap_printf>
1000062e:	89a6      	ldrh	r6, [r4, #12]
10000630:	8963      	ldrh	r3, [r4, #10]
10000632:	0436      	lsls	r6, r6, #16
10000634:	431e      	orrs	r6, r3
10000636:	0031      	movs	r1, r6
10000638:	485a      	ldr	r0, [pc, #360]	; (100007a4 <Storage_OpenReadFile+0x1bc>)
1000063a:	f008 ff31 	bl	100094a0 <__wrap_printf>
1000063e:	8a63      	ldrh	r3, [r4, #18]
10000640:	8ba1      	ldrh	r1, [r4, #28]
10000642:	4699      	mov	r9, r3
10000644:	8ae3      	ldrh	r3, [r4, #22]
10000646:	4858      	ldr	r0, [pc, #352]	; (100007a8 <Storage_OpenReadFile+0x1c0>)
10000648:	469b      	mov	fp, r3
1000064a:	8b23      	ldrh	r3, [r4, #24]
1000064c:	8aa5      	ldrh	r5, [r4, #20]
1000064e:	469a      	mov	sl, r3
10000650:	f008 ff26 	bl	100094a0 <__wrap_printf>
10000654:	a802      	add	r0, sp, #8
10000656:	f001 fc5b 	bl	10001f10 <f_close>
1000065a:	4854      	ldr	r0, [pc, #336]	; (100007ac <Storage_OpenReadFile+0x1c4>)
1000065c:	f008 ff20 	bl	100094a0 <__wrap_printf>
10000660:	2201      	movs	r2, #1
10000662:	0039      	movs	r1, r7
10000664:	a802      	add	r0, sp, #8
10000666:	f001 fb5b 	bl	10001d20 <f_open>
1000066a:	4643      	mov	r3, r8
1000066c:	0032      	movs	r2, r6
1000066e:	0021      	movs	r1, r4
10000670:	a802      	add	r0, sp, #8
10000672:	f001 fc1f 	bl	10001eb4 <f_read>
10000676:	4b4e      	ldr	r3, [pc, #312]	; (100007b0 <Storage_OpenReadFile+0x1c8>)
10000678:	781b      	ldrb	r3, [r3, #0]
1000067a:	2b52      	cmp	r3, #82	; 0x52
1000067c:	d00c      	beq.n	10000698 <Storage_OpenReadFile+0xb0>
1000067e:	a802      	add	r0, sp, #8
10000680:	f001 fc46 	bl	10001f10 <f_close>
10000684:	2001      	movs	r0, #1
10000686:	238d      	movs	r3, #141	; 0x8d
10000688:	009b      	lsls	r3, r3, #2
1000068a:	449d      	add	sp, r3
1000068c:	bcf0      	pop	{r4, r5, r6, r7}
1000068e:	46bb      	mov	fp, r7
10000690:	46b2      	mov	sl, r6
10000692:	46a9      	mov	r9, r5
10000694:	46a0      	mov	r8, r4
10000696:	bdf0      	pop	{r4, r5, r6, r7, pc}
10000698:	464b      	mov	r3, r9
1000069a:	042d      	lsls	r5, r5, #16
1000069c:	432b      	orrs	r3, r5
1000069e:	4699      	mov	r9, r3
100006a0:	d064      	beq.n	1000076c <Storage_OpenReadFile+0x184>
100006a2:	4653      	mov	r3, sl
100006a4:	041d      	lsls	r5, r3, #16
100006a6:	465b      	mov	r3, fp
100006a8:	22b4      	movs	r2, #180	; 0xb4
100006aa:	431d      	orrs	r5, r3
100006ac:	2300      	movs	r3, #0
100006ae:	0052      	lsls	r2, r2, #1
100006b0:	4692      	mov	sl, r2
100006b2:	469b      	mov	fp, r3
100006b4:	44a2      	add	sl, r4
100006b6:	22b4      	movs	r2, #180	; 0xb4
100006b8:	4643      	mov	r3, r8
100006ba:	0021      	movs	r1, r4
100006bc:	0052      	lsls	r2, r2, #1
100006be:	a802      	add	r0, sp, #8
100006c0:	f001 fbf8 	bl	10001eb4 <f_read>
100006c4:	22b4      	movs	r2, #180	; 0xb4
100006c6:	4643      	mov	r3, r8
100006c8:	4651      	mov	r1, sl
100006ca:	0052      	lsls	r2, r2, #1
100006cc:	a802      	add	r0, sp, #8
100006ce:	f001 fbf1 	bl	10001eb4 <f_read>
100006d2:	2d00      	cmp	r5, #0
100006d4:	d01d      	beq.n	10000712 <Storage_OpenReadFile+0x12a>
100006d6:	465b      	mov	r3, fp
100006d8:	465a      	mov	r2, fp
100006da:	011b      	lsls	r3, r3, #4
100006dc:	1a9b      	subs	r3, r3, r2
100006de:	011b      	lsls	r3, r3, #4
100006e0:	469c      	mov	ip, r3
100006e2:	2300      	movs	r3, #0
100006e4:	4667      	mov	r7, ip
100006e6:	0059      	lsls	r1, r3, #1
100006e8:	1859      	adds	r1, r3, r1
100006ea:	b289      	uxth	r1, r1
100006ec:	1862      	adds	r2, r4, r1
100006ee:	7896      	ldrb	r6, [r2, #2]
100006f0:	7852      	ldrb	r2, [r2, #1]
100006f2:	5c61      	ldrb	r1, [r4, r1]
100006f4:	08f6      	lsrs	r6, r6, #3
100006f6:	0892      	lsrs	r2, r2, #2
100006f8:	02f6      	lsls	r6, r6, #11
100006fa:	0152      	lsls	r2, r2, #5
100006fc:	08c9      	lsrs	r1, r1, #3
100006fe:	4332      	orrs	r2, r6
10000700:	19d8      	adds	r0, r3, r7
10000702:	430a      	orrs	r2, r1
10000704:	3301      	adds	r3, #1
10000706:	492b      	ldr	r1, [pc, #172]	; (100007b4 <Storage_OpenReadFile+0x1cc>)
10000708:	0040      	lsls	r0, r0, #1
1000070a:	b29b      	uxth	r3, r3
1000070c:	520a      	strh	r2, [r1, r0]
1000070e:	42ab      	cmp	r3, r5
10000710:	d3e9      	bcc.n	100006e6 <Storage_OpenReadFile+0xfe>
10000712:	465f      	mov	r7, fp
10000714:	3701      	adds	r7, #1
10000716:	b2bb      	uxth	r3, r7
10000718:	469b      	mov	fp, r3
1000071a:	454b      	cmp	r3, r9
1000071c:	d3cb      	bcc.n	100006b6 <Storage_OpenReadFile+0xce>
1000071e:	466b      	mov	r3, sp
10000720:	9901      	ldr	r1, [sp, #4]
10000722:	8818      	ldrh	r0, [r3, #0]
10000724:	f003 f9f4 	bl	10003b10 <LCD_SetCursor>
10000728:	2101      	movs	r1, #1
1000072a:	2008      	movs	r0, #8
1000072c:	f7ff fe10 	bl	10000350 <DEV_Digital_Write>
10000730:	2100      	movs	r1, #0
10000732:	2009      	movs	r0, #9
10000734:	f7ff fe0c 	bl	10000350 <DEV_Digital_Write>
10000738:	491f      	ldr	r1, [pc, #124]	; (100007b8 <Storage_OpenReadFile+0x1d0>)
1000073a:	4820      	ldr	r0, [pc, #128]	; (100007bc <Storage_OpenReadFile+0x1d4>)
1000073c:	f00b fc06 	bl	1000bf4c <spi_set_baudrate>
10000740:	464b      	mov	r3, r9
10000742:	435d      	muls	r5, r3
10000744:	2d00      	cmp	r5, #0
10000746:	d00c      	beq.n	10000762 <Storage_OpenReadFile+0x17a>
10000748:	2600      	movs	r6, #0
1000074a:	4c1a      	ldr	r4, [pc, #104]	; (100007b4 <Storage_OpenReadFile+0x1cc>)
1000074c:	8820      	ldrh	r0, [r4, #0]
1000074e:	3601      	adds	r6, #1
10000750:	0a00      	lsrs	r0, r0, #8
10000752:	f7ff feb1 	bl	100004b8 <SPI4W_Write_Byte>
10000756:	7820      	ldrb	r0, [r4, #0]
10000758:	f7ff feae 	bl	100004b8 <SPI4W_Write_Byte>
1000075c:	3402      	adds	r4, #2
1000075e:	42ae      	cmp	r6, r5
10000760:	d1f4      	bne.n	1000074c <Storage_OpenReadFile+0x164>
10000762:	2101      	movs	r1, #1
10000764:	2009      	movs	r0, #9
10000766:	f7ff fdf3 	bl	10000350 <DEV_Digital_Write>
1000076a:	e788      	b.n	1000067e <Storage_OpenReadFile+0x96>
1000076c:	466b      	mov	r3, sp
1000076e:	9901      	ldr	r1, [sp, #4]
10000770:	8818      	ldrh	r0, [r3, #0]
10000772:	f003 f9cd 	bl	10003b10 <LCD_SetCursor>
10000776:	2101      	movs	r1, #1
10000778:	2008      	movs	r0, #8
1000077a:	f7ff fde9 	bl	10000350 <DEV_Digital_Write>
1000077e:	2100      	movs	r1, #0
10000780:	2009      	movs	r0, #9
10000782:	f7ff fde5 	bl	10000350 <DEV_Digital_Write>
10000786:	490c      	ldr	r1, [pc, #48]	; (100007b8 <Storage_OpenReadFile+0x1d0>)
10000788:	480c      	ldr	r0, [pc, #48]	; (100007bc <Storage_OpenReadFile+0x1d4>)
1000078a:	f00b fbdf 	bl	1000bf4c <spi_set_baudrate>
1000078e:	e7e8      	b.n	10000762 <Storage_OpenReadFile+0x17a>
10000790:	fffffdcc 	.word	0xfffffdcc
10000794:	2000083c 	.word	0x2000083c
10000798:	20000c9c 	.word	0x20000c9c
1000079c:	1000c38c 	.word	0x1000c38c
100007a0:	1000c394 	.word	0x1000c394
100007a4:	1000c3a8 	.word	0x1000c3a8
100007a8:	1000c3bc 	.word	0x1000c3bc
100007ac:	1000c3d0 	.word	0x1000c3d0
100007b0:	20000400 	.word	0x20000400
100007b4:	200018cc 	.word	0x200018cc
100007b8:	0ee6b280 	.word	0x0ee6b280
100007bc:	40040000 	.word	0x40040000

100007c0 <check_fs>:
100007c0:	2300      	movs	r3, #0
100007c2:	b570      	push	{r4, r5, r6, lr}
100007c4:	7103      	strb	r3, [r0, #4]
100007c6:	3b01      	subs	r3, #1
100007c8:	0004      	movs	r4, r0
100007ca:	000d      	movs	r5, r1
100007cc:	62c3      	str	r3, [r0, #44]	; 0x2c
100007ce:	1c4b      	adds	r3, r1, #1
100007d0:	d009      	beq.n	100007e6 <check_fs+0x26>
100007d2:	000a      	movs	r2, r1
100007d4:	0021      	movs	r1, r4
100007d6:	2301      	movs	r3, #1
100007d8:	7840      	ldrb	r0, [r0, #1]
100007da:	3130      	adds	r1, #48	; 0x30
100007dc:	f7ff feaa 	bl	10000534 <disk_read>
100007e0:	2800      	cmp	r0, #0
100007e2:	d11f      	bne.n	10000824 <check_fs+0x64>
100007e4:	62e5      	str	r5, [r4, #44]	; 0x2c
100007e6:	4b12      	ldr	r3, [pc, #72]	; (10000830 <check_fs+0x70>)
100007e8:	5ae2      	ldrh	r2, [r4, r3]
100007ea:	4b12      	ldr	r3, [pc, #72]	; (10000834 <check_fs+0x74>)
100007ec:	429a      	cmp	r2, r3
100007ee:	d11b      	bne.n	10000828 <check_fs+0x68>
100007f0:	0022      	movs	r2, r4
100007f2:	3266      	adds	r2, #102	; 0x66
100007f4:	8853      	ldrh	r3, [r2, #2]
100007f6:	8811      	ldrh	r1, [r2, #0]
100007f8:	041b      	lsls	r3, r3, #16
100007fa:	430b      	orrs	r3, r1
100007fc:	4a0e      	ldr	r2, [pc, #56]	; (10000838 <check_fs+0x78>)
100007fe:	021b      	lsls	r3, r3, #8
10000800:	0a1b      	lsrs	r3, r3, #8
10000802:	4293      	cmp	r3, r2
10000804:	d012      	beq.n	1000082c <check_fs+0x6c>
10000806:	2382      	movs	r3, #130	; 0x82
10000808:	5ae2      	ldrh	r2, [r4, r3]
1000080a:	4b0c      	ldr	r3, [pc, #48]	; (1000083c <check_fs+0x7c>)
1000080c:	3482      	adds	r4, #130	; 0x82
1000080e:	469c      	mov	ip, r3
10000810:	8860      	ldrh	r0, [r4, #2]
10000812:	0400      	lsls	r0, r0, #16
10000814:	4310      	orrs	r0, r2
10000816:	0200      	lsls	r0, r0, #8
10000818:	0a00      	lsrs	r0, r0, #8
1000081a:	4460      	add	r0, ip
1000081c:	1e43      	subs	r3, r0, #1
1000081e:	4198      	sbcs	r0, r3
10000820:	b2c0      	uxtb	r0, r0
10000822:	bd70      	pop	{r4, r5, r6, pc}
10000824:	2003      	movs	r0, #3
10000826:	e7fc      	b.n	10000822 <check_fs+0x62>
10000828:	2002      	movs	r0, #2
1000082a:	e7fa      	b.n	10000822 <check_fs+0x62>
1000082c:	2000      	movs	r0, #0
1000082e:	e7f8      	b.n	10000822 <check_fs+0x62>
10000830:	0000022e 	.word	0x0000022e
10000834:	0000aa55 	.word	0x0000aa55
10000838:	00544146 	.word	0x00544146
1000083c:	ffabbeba 	.word	0xffabbeba

10000840 <move_window>:
10000840:	b5f0      	push	{r4, r5, r6, r7, lr}
10000842:	46c6      	mov	lr, r8
10000844:	6ac6      	ldr	r6, [r0, #44]	; 0x2c
10000846:	0004      	movs	r4, r0
10000848:	000d      	movs	r5, r1
1000084a:	b500      	push	{lr}
1000084c:	428e      	cmp	r6, r1
1000084e:	d035      	beq.n	100008bc <move_window+0x7c>
10000850:	0007      	movs	r7, r0
10000852:	7903      	ldrb	r3, [r0, #4]
10000854:	3730      	adds	r7, #48	; 0x30
10000856:	2b00      	cmp	r3, #0
10000858:	d10b      	bne.n	10000872 <move_window+0x32>
1000085a:	2301      	movs	r3, #1
1000085c:	002a      	movs	r2, r5
1000085e:	0039      	movs	r1, r7
10000860:	7860      	ldrb	r0, [r4, #1]
10000862:	f7ff fe67 	bl	10000534 <disk_read>
10000866:	2800      	cmp	r0, #0
10000868:	d126      	bne.n	100008b8 <move_window+0x78>
1000086a:	62e5      	str	r5, [r4, #44]	; 0x2c
1000086c:	bc80      	pop	{r7}
1000086e:	46b8      	mov	r8, r7
10000870:	bdf0      	pop	{r4, r5, r6, r7, pc}
10000872:	2301      	movs	r3, #1
10000874:	0032      	movs	r2, r6
10000876:	0039      	movs	r1, r7
10000878:	7840      	ldrb	r0, [r0, #1]
1000087a:	f7ff fe75 	bl	10000568 <disk_write>
1000087e:	2800      	cmp	r0, #0
10000880:	d11a      	bne.n	100008b8 <move_window+0x78>
10000882:	6a22      	ldr	r2, [r4, #32]
10000884:	69a3      	ldr	r3, [r4, #24]
10000886:	7120      	strb	r0, [r4, #4]
10000888:	1ab2      	subs	r2, r6, r2
1000088a:	429a      	cmp	r2, r3
1000088c:	d2e5      	bcs.n	1000085a <move_window+0x1a>
1000088e:	78e2      	ldrb	r2, [r4, #3]
10000890:	4690      	mov	r8, r2
10000892:	2a01      	cmp	r2, #1
10000894:	d801      	bhi.n	1000089a <move_window+0x5a>
10000896:	e7e0      	b.n	1000085a <move_window+0x1a>
10000898:	69a3      	ldr	r3, [r4, #24]
1000089a:	18f6      	adds	r6, r6, r3
1000089c:	0032      	movs	r2, r6
1000089e:	2301      	movs	r3, #1
100008a0:	0039      	movs	r1, r7
100008a2:	7860      	ldrb	r0, [r4, #1]
100008a4:	f7ff fe60 	bl	10000568 <disk_write>
100008a8:	2301      	movs	r3, #1
100008aa:	425b      	negs	r3, r3
100008ac:	469c      	mov	ip, r3
100008ae:	44e0      	add	r8, ip
100008b0:	4643      	mov	r3, r8
100008b2:	2b01      	cmp	r3, #1
100008b4:	d1f0      	bne.n	10000898 <move_window+0x58>
100008b6:	e7d0      	b.n	1000085a <move_window+0x1a>
100008b8:	2001      	movs	r0, #1
100008ba:	e7d7      	b.n	1000086c <move_window+0x2c>
100008bc:	2000      	movs	r0, #0
100008be:	e7d5      	b.n	1000086c <move_window+0x2c>

100008c0 <find_volume>:
100008c0:	b5f0      	push	{r4, r5, r6, r7, lr}
100008c2:	4645      	mov	r5, r8
100008c4:	46de      	mov	lr, fp
100008c6:	4657      	mov	r7, sl
100008c8:	464e      	mov	r6, r9
100008ca:	2300      	movs	r3, #0
100008cc:	b5e0      	push	{r5, r6, r7, lr}
100008ce:	680c      	ldr	r4, [r1, #0]
100008d0:	0015      	movs	r5, r2
100008d2:	b083      	sub	sp, #12
100008d4:	6003      	str	r3, [r0, #0]
100008d6:	2c00      	cmp	r4, #0
100008d8:	d100      	bne.n	100008dc <find_volume+0x1c>
100008da:	e0c4      	b.n	10000a66 <find_volume+0x1a6>
100008dc:	7823      	ldrb	r3, [r4, #0]
100008de:	3b30      	subs	r3, #48	; 0x30
100008e0:	2b08      	cmp	r3, #8
100008e2:	d800      	bhi.n	100008e6 <find_volume+0x26>
100008e4:	e0b6      	b.n	10000a54 <find_volume+0x194>
100008e6:	4bc8      	ldr	r3, [pc, #800]	; (10000c08 <find_volume+0x348>)
100008e8:	681c      	ldr	r4, [r3, #0]
100008ea:	2c00      	cmp	r4, #0
100008ec:	d100      	bne.n	100008f0 <find_volume+0x30>
100008ee:	e11d      	b.n	10000b2c <find_volume+0x26c>
100008f0:	7823      	ldrb	r3, [r4, #0]
100008f2:	6004      	str	r4, [r0, #0]
100008f4:	2b00      	cmp	r3, #0
100008f6:	d00f      	beq.n	10000918 <find_volume+0x58>
100008f8:	7860      	ldrb	r0, [r4, #1]
100008fa:	f7ff fe19 	bl	10000530 <disk_status>
100008fe:	07c3      	lsls	r3, r0, #31
10000900:	d40a      	bmi.n	10000918 <find_volume+0x58>
10000902:	2d00      	cmp	r5, #0
10000904:	d100      	bne.n	10000908 <find_volume+0x48>
10000906:	e10d      	b.n	10000b24 <find_volume+0x264>
10000908:	2304      	movs	r3, #4
1000090a:	001e      	movs	r6, r3
1000090c:	4006      	ands	r6, r0
1000090e:	4203      	tst	r3, r0
10000910:	d100      	bne.n	10000914 <find_volume+0x54>
10000912:	e0ff      	b.n	10000b14 <find_volume+0x254>
10000914:	260a      	movs	r6, #10
10000916:	e0fd      	b.n	10000b14 <find_volume+0x254>
10000918:	2300      	movs	r3, #0
1000091a:	2000      	movs	r0, #0
1000091c:	8023      	strh	r3, [r4, #0]
1000091e:	f7ff fdf3 	bl	10000508 <disk_initialize>
10000922:	07c3      	lsls	r3, r0, #31
10000924:	d500      	bpl.n	10000928 <find_volume+0x68>
10000926:	e0ff      	b.n	10000b28 <find_volume+0x268>
10000928:	2d00      	cmp	r5, #0
1000092a:	d001      	beq.n	10000930 <find_volume+0x70>
1000092c:	0743      	lsls	r3, r0, #29
1000092e:	d4f1      	bmi.n	10000914 <find_volume+0x54>
10000930:	2100      	movs	r1, #0
10000932:	0020      	movs	r0, r4
10000934:	f7ff ff44 	bl	100007c0 <check_fs>
10000938:	0006      	movs	r6, r0
1000093a:	2801      	cmp	r0, #1
1000093c:	d100      	bne.n	10000940 <find_volume+0x80>
1000093e:	e094      	b.n	10000a6a <find_volume+0x1aa>
10000940:	2803      	cmp	r0, #3
10000942:	d100      	bne.n	10000946 <find_volume+0x86>
10000944:	e13a      	b.n	10000bbc <find_volume+0x2fc>
10000946:	2500      	movs	r5, #0
10000948:	2800      	cmp	r0, #0
1000094a:	d000      	beq.n	1000094e <find_volume+0x8e>
1000094c:	e0e1      	b.n	10000b12 <find_volume+0x252>
1000094e:	0022      	movs	r2, r4
10000950:	323b      	adds	r2, #59	; 0x3b
10000952:	7811      	ldrb	r1, [r2, #0]
10000954:	7853      	ldrb	r3, [r2, #1]
10000956:	2280      	movs	r2, #128	; 0x80
10000958:	021b      	lsls	r3, r3, #8
1000095a:	0092      	lsls	r2, r2, #2
1000095c:	430b      	orrs	r3, r1
1000095e:	4293      	cmp	r3, r2
10000960:	d000      	beq.n	10000964 <find_volume+0xa4>
10000962:	e0d6      	b.n	10000b12 <find_volume+0x252>
10000964:	2346      	movs	r3, #70	; 0x46
10000966:	5ae6      	ldrh	r6, [r4, r3]
10000968:	2e00      	cmp	r6, #0
1000096a:	d100      	bne.n	1000096e <find_volume+0xae>
1000096c:	6d66      	ldr	r6, [r4, #84]	; 0x54
1000096e:	2340      	movs	r3, #64	; 0x40
10000970:	61a6      	str	r6, [r4, #24]
10000972:	5ce2      	ldrb	r2, [r4, r3]
10000974:	1e53      	subs	r3, r2, #1
10000976:	70e2      	strb	r2, [r4, #3]
10000978:	2b01      	cmp	r3, #1
1000097a:	d900      	bls.n	1000097e <find_volume+0xbe>
1000097c:	e0c9      	b.n	10000b12 <find_volume+0x252>
1000097e:	233d      	movs	r3, #61	; 0x3d
10000980:	5ce7      	ldrb	r7, [r4, r3]
10000982:	70a7      	strb	r7, [r4, #2]
10000984:	2f00      	cmp	r7, #0
10000986:	d100      	bne.n	1000098a <find_volume+0xca>
10000988:	e0c3      	b.n	10000b12 <find_volume+0x252>
1000098a:	1e7b      	subs	r3, r7, #1
1000098c:	421f      	tst	r7, r3
1000098e:	d000      	beq.n	10000992 <find_volume+0xd2>
10000990:	e0bf      	b.n	10000b12 <find_volume+0x252>
10000992:	2341      	movs	r3, #65	; 0x41
10000994:	5ce1      	ldrb	r1, [r4, r3]
10000996:	0023      	movs	r3, r4
10000998:	3341      	adds	r3, #65	; 0x41
1000099a:	785b      	ldrb	r3, [r3, #1]
1000099c:	021b      	lsls	r3, r3, #8
1000099e:	430b      	orrs	r3, r1
100009a0:	4698      	mov	r8, r3
100009a2:	8123      	strh	r3, [r4, #8]
100009a4:	071b      	lsls	r3, r3, #28
100009a6:	d000      	beq.n	100009aa <find_volume+0xea>
100009a8:	e0b3      	b.n	10000b12 <find_volume+0x252>
100009aa:	2343      	movs	r3, #67	; 0x43
100009ac:	5ce1      	ldrb	r1, [r4, r3]
100009ae:	0023      	movs	r3, r4
100009b0:	3343      	adds	r3, #67	; 0x43
100009b2:	785b      	ldrb	r3, [r3, #1]
100009b4:	021b      	lsls	r3, r3, #8
100009b6:	430b      	orrs	r3, r1
100009b8:	d100      	bne.n	100009bc <find_volume+0xfc>
100009ba:	6d23      	ldr	r3, [r4, #80]	; 0x50
100009bc:	8fe1      	ldrh	r1, [r4, #62]	; 0x3e
100009be:	468b      	mov	fp, r1
100009c0:	2900      	cmp	r1, #0
100009c2:	d100      	bne.n	100009c6 <find_volume+0x106>
100009c4:	e0a5      	b.n	10000b12 <find_volume+0x252>
100009c6:	4372      	muls	r2, r6
100009c8:	0011      	movs	r1, r2
100009ca:	9201      	str	r2, [sp, #4]
100009cc:	4642      	mov	r2, r8
100009ce:	468a      	mov	sl, r1
100009d0:	0912      	lsrs	r2, r2, #4
100009d2:	445a      	add	r2, fp
100009d4:	4492      	add	sl, r2
100009d6:	4553      	cmp	r3, sl
100009d8:	d200      	bcs.n	100009dc <find_volume+0x11c>
100009da:	e09a      	b.n	10000b12 <find_volume+0x252>
100009dc:	4652      	mov	r2, sl
100009de:	1a9b      	subs	r3, r3, r2
100009e0:	4699      	mov	r9, r3
100009e2:	0039      	movs	r1, r7
100009e4:	0018      	movs	r0, r3
100009e6:	f007 fc6f 	bl	100082c8 <__wrap___aeabi_uidiv>
100009ea:	45b9      	cmp	r9, r7
100009ec:	d200      	bcs.n	100009f0 <find_volume+0x130>
100009ee:	e090      	b.n	10000b12 <find_volume+0x252>
100009f0:	4b86      	ldr	r3, [pc, #536]	; (10000c0c <find_volume+0x34c>)
100009f2:	4298      	cmp	r0, r3
100009f4:	d800      	bhi.n	100009f8 <find_volume+0x138>
100009f6:	e0e3      	b.n	10000bc0 <find_volume+0x300>
100009f8:	4b85      	ldr	r3, [pc, #532]	; (10000c10 <find_volume+0x350>)
100009fa:	4298      	cmp	r0, r3
100009fc:	d800      	bhi.n	10000a00 <find_volume+0x140>
100009fe:	e121      	b.n	10000c44 <find_volume+0x384>
10000a00:	465b      	mov	r3, fp
10000a02:	18eb      	adds	r3, r5, r3
10000a04:	6223      	str	r3, [r4, #32]
10000a06:	4653      	mov	r3, sl
10000a08:	18eb      	adds	r3, r5, r3
10000a0a:	62a3      	str	r3, [r4, #40]	; 0x28
10000a0c:	4643      	mov	r3, r8
10000a0e:	3002      	adds	r0, #2
10000a10:	6160      	str	r0, [r4, #20]
10000a12:	61e5      	str	r5, [r4, #28]
10000a14:	2b00      	cmp	r3, #0
10000a16:	d17c      	bne.n	10000b12 <find_volume+0x252>
10000a18:	6de3      	ldr	r3, [r4, #92]	; 0x5c
10000a1a:	0080      	lsls	r0, r0, #2
10000a1c:	6263      	str	r3, [r4, #36]	; 0x24
10000a1e:	4b7d      	ldr	r3, [pc, #500]	; (10000c14 <find_volume+0x354>)
10000a20:	469c      	mov	ip, r3
10000a22:	4460      	add	r0, ip
10000a24:	0a40      	lsrs	r0, r0, #9
10000a26:	4286      	cmp	r6, r0
10000a28:	d373      	bcc.n	10000b12 <find_volume+0x252>
10000a2a:	2301      	movs	r3, #1
10000a2c:	425b      	negs	r3, r3
10000a2e:	6123      	str	r3, [r4, #16]
10000a30:	60e3      	str	r3, [r4, #12]
10000a32:	3381      	adds	r3, #129	; 0x81
10000a34:	7163      	strb	r3, [r4, #5]
10000a36:	3b20      	subs	r3, #32
10000a38:	5ae3      	ldrh	r3, [r4, r3]
10000a3a:	2b01      	cmp	r3, #1
10000a3c:	d100      	bne.n	10000a40 <find_volume+0x180>
10000a3e:	e082      	b.n	10000b46 <find_volume+0x286>
10000a40:	2303      	movs	r3, #3
10000a42:	4a75      	ldr	r2, [pc, #468]	; (10000c18 <find_volume+0x358>)
10000a44:	7023      	strb	r3, [r4, #0]
10000a46:	8813      	ldrh	r3, [r2, #0]
10000a48:	2600      	movs	r6, #0
10000a4a:	3301      	adds	r3, #1
10000a4c:	b29b      	uxth	r3, r3
10000a4e:	8013      	strh	r3, [r2, #0]
10000a50:	80e3      	strh	r3, [r4, #6]
10000a52:	e05f      	b.n	10000b14 <find_volume+0x254>
10000a54:	7862      	ldrb	r2, [r4, #1]
10000a56:	2a3a      	cmp	r2, #58	; 0x3a
10000a58:	d000      	beq.n	10000a5c <find_volume+0x19c>
10000a5a:	e744      	b.n	100008e6 <find_volume+0x26>
10000a5c:	3402      	adds	r4, #2
10000a5e:	600c      	str	r4, [r1, #0]
10000a60:	2b00      	cmp	r3, #0
10000a62:	d100      	bne.n	10000a66 <find_volume+0x1a6>
10000a64:	e73f      	b.n	100008e6 <find_volume+0x26>
10000a66:	260b      	movs	r6, #11
10000a68:	e054      	b.n	10000b14 <find_volume+0x254>
10000a6a:	23f9      	movs	r3, #249	; 0xf9
10000a6c:	005b      	lsls	r3, r3, #1
10000a6e:	5ce3      	ldrb	r3, [r4, r3]
10000a70:	2700      	movs	r7, #0
10000a72:	2b00      	cmp	r3, #0
10000a74:	d00c      	beq.n	10000a90 <find_volume+0x1d0>
10000a76:	23fb      	movs	r3, #251	; 0xfb
10000a78:	005b      	lsls	r3, r3, #1
10000a7a:	18e1      	adds	r1, r4, r3
10000a7c:	5ce2      	ldrb	r2, [r4, r3]
10000a7e:	784b      	ldrb	r3, [r1, #1]
10000a80:	788f      	ldrb	r7, [r1, #2]
10000a82:	021b      	lsls	r3, r3, #8
10000a84:	431a      	orrs	r2, r3
10000a86:	78cb      	ldrb	r3, [r1, #3]
10000a88:	043f      	lsls	r7, r7, #16
10000a8a:	4317      	orrs	r7, r2
10000a8c:	061b      	lsls	r3, r3, #24
10000a8e:	431f      	orrs	r7, r3
10000a90:	4b62      	ldr	r3, [pc, #392]	; (10000c1c <find_volume+0x35c>)
10000a92:	2500      	movs	r5, #0
10000a94:	5ce3      	ldrb	r3, [r4, r3]
10000a96:	2b00      	cmp	r3, #0
10000a98:	d00b      	beq.n	10000ab2 <find_volume+0x1f2>
10000a9a:	4b61      	ldr	r3, [pc, #388]	; (10000c20 <find_volume+0x360>)
10000a9c:	18e2      	adds	r2, r4, r3
10000a9e:	7851      	ldrb	r1, [r2, #1]
10000aa0:	5ce5      	ldrb	r5, [r4, r3]
10000aa2:	0209      	lsls	r1, r1, #8
10000aa4:	7893      	ldrb	r3, [r2, #2]
10000aa6:	4329      	orrs	r1, r5
10000aa8:	78d5      	ldrb	r5, [r2, #3]
10000aaa:	041b      	lsls	r3, r3, #16
10000aac:	4319      	orrs	r1, r3
10000aae:	062d      	lsls	r5, r5, #24
10000ab0:	430d      	orrs	r5, r1
10000ab2:	2200      	movs	r2, #0
10000ab4:	4b5b      	ldr	r3, [pc, #364]	; (10000c24 <find_volume+0x364>)
10000ab6:	4690      	mov	r8, r2
10000ab8:	5ce3      	ldrb	r3, [r4, r3]
10000aba:	2b00      	cmp	r3, #0
10000abc:	d00c      	beq.n	10000ad8 <find_volume+0x218>
10000abe:	4b5a      	ldr	r3, [pc, #360]	; (10000c28 <find_volume+0x368>)
10000ac0:	18e0      	adds	r0, r4, r3
10000ac2:	7842      	ldrb	r2, [r0, #1]
10000ac4:	5ce1      	ldrb	r1, [r4, r3]
10000ac6:	0212      	lsls	r2, r2, #8
10000ac8:	7883      	ldrb	r3, [r0, #2]
10000aca:	4311      	orrs	r1, r2
10000acc:	78c2      	ldrb	r2, [r0, #3]
10000ace:	041b      	lsls	r3, r3, #16
10000ad0:	430b      	orrs	r3, r1
10000ad2:	0612      	lsls	r2, r2, #24
10000ad4:	431a      	orrs	r2, r3
10000ad6:	4690      	mov	r8, r2
10000ad8:	2200      	movs	r2, #0
10000ada:	4b54      	ldr	r3, [pc, #336]	; (10000c2c <find_volume+0x36c>)
10000adc:	4691      	mov	r9, r2
10000ade:	5ce3      	ldrb	r3, [r4, r3]
10000ae0:	2b00      	cmp	r3, #0
10000ae2:	d00c      	beq.n	10000afe <find_volume+0x23e>
10000ae4:	4b52      	ldr	r3, [pc, #328]	; (10000c30 <find_volume+0x370>)
10000ae6:	18e0      	adds	r0, r4, r3
10000ae8:	7842      	ldrb	r2, [r0, #1]
10000aea:	5ce1      	ldrb	r1, [r4, r3]
10000aec:	0212      	lsls	r2, r2, #8
10000aee:	7883      	ldrb	r3, [r0, #2]
10000af0:	4311      	orrs	r1, r2
10000af2:	78c2      	ldrb	r2, [r0, #3]
10000af4:	041b      	lsls	r3, r3, #16
10000af6:	430b      	orrs	r3, r1
10000af8:	0612      	lsls	r2, r2, #24
10000afa:	431a      	orrs	r2, r3
10000afc:	4691      	mov	r9, r2
10000afe:	2f00      	cmp	r7, #0
10000b00:	d145      	bne.n	10000b8e <find_volume+0x2ce>
10000b02:	2d00      	cmp	r5, #0
10000b04:	d14b      	bne.n	10000b9e <find_volume+0x2de>
10000b06:	4643      	mov	r3, r8
10000b08:	2b00      	cmp	r3, #0
10000b0a:	d14f      	bne.n	10000bac <find_volume+0x2ec>
10000b0c:	464b      	mov	r3, r9
10000b0e:	2b00      	cmp	r3, #0
10000b10:	d10e      	bne.n	10000b30 <find_volume+0x270>
10000b12:	260d      	movs	r6, #13
10000b14:	0030      	movs	r0, r6
10000b16:	b003      	add	sp, #12
10000b18:	bcf0      	pop	{r4, r5, r6, r7}
10000b1a:	46bb      	mov	fp, r7
10000b1c:	46b2      	mov	sl, r6
10000b1e:	46a9      	mov	r9, r5
10000b20:	46a0      	mov	r8, r4
10000b22:	bdf0      	pop	{r4, r5, r6, r7, pc}
10000b24:	2600      	movs	r6, #0
10000b26:	e7f5      	b.n	10000b14 <find_volume+0x254>
10000b28:	2603      	movs	r6, #3
10000b2a:	e7f3      	b.n	10000b14 <find_volume+0x254>
10000b2c:	260c      	movs	r6, #12
10000b2e:	e7f1      	b.n	10000b14 <find_volume+0x254>
10000b30:	4649      	mov	r1, r9
10000b32:	0020      	movs	r0, r4
10000b34:	f7ff fe44 	bl	100007c0 <check_fs>
10000b38:	464d      	mov	r5, r9
10000b3a:	2800      	cmp	r0, #0
10000b3c:	d100      	bne.n	10000b40 <find_volume+0x280>
10000b3e:	e706      	b.n	1000094e <find_volume+0x8e>
10000b40:	2803      	cmp	r0, #3
10000b42:	d0e7      	beq.n	10000b14 <find_volume+0x254>
10000b44:	e7e5      	b.n	10000b12 <find_volume+0x252>
10000b46:	0020      	movs	r0, r4
10000b48:	1c69      	adds	r1, r5, #1
10000b4a:	f7ff fe79 	bl	10000840 <move_window>
10000b4e:	2800      	cmp	r0, #0
10000b50:	d000      	beq.n	10000b54 <find_volume+0x294>
10000b52:	e775      	b.n	10000a40 <find_volume+0x180>
10000b54:	4643      	mov	r3, r8
10000b56:	7163      	strb	r3, [r4, #5]
10000b58:	4b36      	ldr	r3, [pc, #216]	; (10000c34 <find_volume+0x374>)
10000b5a:	5ae2      	ldrh	r2, [r4, r3]
10000b5c:	4b36      	ldr	r3, [pc, #216]	; (10000c38 <find_volume+0x378>)
10000b5e:	429a      	cmp	r2, r3
10000b60:	d000      	beq.n	10000b64 <find_volume+0x2a4>
10000b62:	e76d      	b.n	10000a40 <find_volume+0x180>
10000b64:	4b35      	ldr	r3, [pc, #212]	; (10000c3c <find_volume+0x37c>)
10000b66:	6b22      	ldr	r2, [r4, #48]	; 0x30
10000b68:	429a      	cmp	r2, r3
10000b6a:	d000      	beq.n	10000b6e <find_volume+0x2ae>
10000b6c:	e768      	b.n	10000a40 <find_volume+0x180>
10000b6e:	2285      	movs	r2, #133	; 0x85
10000b70:	0092      	lsls	r2, r2, #2
10000b72:	4b33      	ldr	r3, [pc, #204]	; (10000c40 <find_volume+0x380>)
10000b74:	58a2      	ldr	r2, [r4, r2]
10000b76:	429a      	cmp	r2, r3
10000b78:	d000      	beq.n	10000b7c <find_volume+0x2bc>
10000b7a:	e761      	b.n	10000a40 <find_volume+0x180>
10000b7c:	2386      	movs	r3, #134	; 0x86
10000b7e:	2287      	movs	r2, #135	; 0x87
10000b80:	009b      	lsls	r3, r3, #2
10000b82:	0092      	lsls	r2, r2, #2
10000b84:	58e3      	ldr	r3, [r4, r3]
10000b86:	58a2      	ldr	r2, [r4, r2]
10000b88:	6123      	str	r3, [r4, #16]
10000b8a:	60e2      	str	r2, [r4, #12]
10000b8c:	e758      	b.n	10000a40 <find_volume+0x180>
10000b8e:	0039      	movs	r1, r7
10000b90:	0020      	movs	r0, r4
10000b92:	f7ff fe15 	bl	100007c0 <check_fs>
10000b96:	2800      	cmp	r0, #0
10000b98:	d1b3      	bne.n	10000b02 <find_volume+0x242>
10000b9a:	003d      	movs	r5, r7
10000b9c:	e6d7      	b.n	1000094e <find_volume+0x8e>
10000b9e:	0029      	movs	r1, r5
10000ba0:	0020      	movs	r0, r4
10000ba2:	f7ff fe0d 	bl	100007c0 <check_fs>
10000ba6:	2800      	cmp	r0, #0
10000ba8:	d1ad      	bne.n	10000b06 <find_volume+0x246>
10000baa:	e6d0      	b.n	1000094e <find_volume+0x8e>
10000bac:	4641      	mov	r1, r8
10000bae:	0020      	movs	r0, r4
10000bb0:	f7ff fe06 	bl	100007c0 <check_fs>
10000bb4:	4645      	mov	r5, r8
10000bb6:	2800      	cmp	r0, #0
10000bb8:	d1a8      	bne.n	10000b0c <find_volume+0x24c>
10000bba:	e6c8      	b.n	1000094e <find_volume+0x8e>
10000bbc:	2601      	movs	r6, #1
10000bbe:	e7a9      	b.n	10000b14 <find_volume+0x254>
10000bc0:	465b      	mov	r3, fp
10000bc2:	4641      	mov	r1, r8
10000bc4:	18eb      	adds	r3, r5, r3
10000bc6:	1c82      	adds	r2, r0, #2
10000bc8:	61e5      	str	r5, [r4, #28]
10000bca:	4455      	add	r5, sl
10000bcc:	6162      	str	r2, [r4, #20]
10000bce:	6223      	str	r3, [r4, #32]
10000bd0:	62a5      	str	r5, [r4, #40]	; 0x28
10000bd2:	2900      	cmp	r1, #0
10000bd4:	d09d      	beq.n	10000b12 <find_volume+0x252>
10000bd6:	9901      	ldr	r1, [sp, #4]
10000bd8:	0050      	lsls	r0, r2, #1
10000bda:	468c      	mov	ip, r1
10000bdc:	4463      	add	r3, ip
10000bde:	6263      	str	r3, [r4, #36]	; 0x24
10000be0:	2301      	movs	r3, #1
10000be2:	1880      	adds	r0, r0, r2
10000be4:	0840      	lsrs	r0, r0, #1
10000be6:	401a      	ands	r2, r3
10000be8:	1880      	adds	r0, r0, r2
10000bea:	4a0a      	ldr	r2, [pc, #40]	; (10000c14 <find_volume+0x354>)
10000bec:	4694      	mov	ip, r2
10000bee:	4460      	add	r0, ip
10000bf0:	0a40      	lsrs	r0, r0, #9
10000bf2:	4286      	cmp	r6, r0
10000bf4:	d200      	bcs.n	10000bf8 <find_volume+0x338>
10000bf6:	e78c      	b.n	10000b12 <find_volume+0x252>
10000bf8:	2201      	movs	r2, #1
10000bfa:	4252      	negs	r2, r2
10000bfc:	6122      	str	r2, [r4, #16]
10000bfe:	60e2      	str	r2, [r4, #12]
10000c00:	3281      	adds	r2, #129	; 0x81
10000c02:	7162      	strb	r2, [r4, #5]
10000c04:	e71d      	b.n	10000a42 <find_volume+0x182>
10000c06:	46c0      	nop			; (mov r8, r8)
10000c08:	20000840 	.word	0x20000840
10000c0c:	00000ff5 	.word	0x00000ff5
10000c10:	0000fff5 	.word	0x0000fff5
10000c14:	000001ff 	.word	0x000001ff
10000c18:	2002714a 	.word	0x2002714a
10000c1c:	00000202 	.word	0x00000202
10000c20:	00000206 	.word	0x00000206
10000c24:	00000212 	.word	0x00000212
10000c28:	00000216 	.word	0x00000216
10000c2c:	00000222 	.word	0x00000222
10000c30:	00000226 	.word	0x00000226
10000c34:	0000022e 	.word	0x0000022e
10000c38:	0000aa55 	.word	0x0000aa55
10000c3c:	41615252 	.word	0x41615252
10000c40:	61417272 	.word	0x61417272
10000c44:	465b      	mov	r3, fp
10000c46:	4642      	mov	r2, r8
10000c48:	18eb      	adds	r3, r5, r3
10000c4a:	3002      	adds	r0, #2
10000c4c:	61e5      	str	r5, [r4, #28]
10000c4e:	4455      	add	r5, sl
10000c50:	6160      	str	r0, [r4, #20]
10000c52:	6223      	str	r3, [r4, #32]
10000c54:	62a5      	str	r5, [r4, #40]	; 0x28
10000c56:	2a00      	cmp	r2, #0
10000c58:	d100      	bne.n	10000c5c <find_volume+0x39c>
10000c5a:	e75a      	b.n	10000b12 <find_volume+0x252>
10000c5c:	9a01      	ldr	r2, [sp, #4]
10000c5e:	0040      	lsls	r0, r0, #1
10000c60:	4694      	mov	ip, r2
10000c62:	4463      	add	r3, ip
10000c64:	6263      	str	r3, [r4, #36]	; 0x24
10000c66:	2302      	movs	r3, #2
10000c68:	e7bf      	b.n	10000bea <find_volume+0x32a>
10000c6a:	46c0      	nop			; (mov r8, r8)

10000c6c <get_fat.part.0>:
10000c6c:	b5f0      	push	{r4, r5, r6, r7, lr}
10000c6e:	46c6      	mov	lr, r8
10000c70:	7807      	ldrb	r7, [r0, #0]
10000c72:	0004      	movs	r4, r0
10000c74:	000d      	movs	r5, r1
10000c76:	b500      	push	{lr}
10000c78:	2f02      	cmp	r7, #2
10000c7a:	d008      	beq.n	10000c8e <get_fat.part.0+0x22>
10000c7c:	2f03      	cmp	r7, #3
10000c7e:	d03f      	beq.n	10000d00 <get_fat.part.0+0x94>
10000c80:	2f01      	cmp	r7, #1
10000c82:	d017      	beq.n	10000cb4 <get_fat.part.0+0x48>
10000c84:	2001      	movs	r0, #1
10000c86:	4240      	negs	r0, r0
10000c88:	bc80      	pop	{r7}
10000c8a:	46b8      	mov	r8, r7
10000c8c:	bdf0      	pop	{r4, r5, r6, r7, pc}
10000c8e:	6a03      	ldr	r3, [r0, #32]
10000c90:	0a09      	lsrs	r1, r1, #8
10000c92:	469c      	mov	ip, r3
10000c94:	4461      	add	r1, ip
10000c96:	f7ff fdd3 	bl	10000840 <move_window>
10000c9a:	2800      	cmp	r0, #0
10000c9c:	d1f2      	bne.n	10000c84 <get_fat.part.0+0x18>
10000c9e:	21ff      	movs	r1, #255	; 0xff
10000ca0:	006d      	lsls	r5, r5, #1
10000ca2:	0049      	lsls	r1, r1, #1
10000ca4:	400d      	ands	r5, r1
10000ca6:	1964      	adds	r4, r4, r5
10000ca8:	3430      	adds	r4, #48	; 0x30
10000caa:	7863      	ldrb	r3, [r4, #1]
10000cac:	7820      	ldrb	r0, [r4, #0]
10000cae:	021b      	lsls	r3, r3, #8
10000cb0:	4318      	orrs	r0, r3
10000cb2:	e7e9      	b.n	10000c88 <get_fat.part.0+0x1c>
10000cb4:	6a03      	ldr	r3, [r0, #32]
10000cb6:	084e      	lsrs	r6, r1, #1
10000cb8:	469c      	mov	ip, r3
10000cba:	1876      	adds	r6, r6, r1
10000cbc:	0a71      	lsrs	r1, r6, #9
10000cbe:	4461      	add	r1, ip
10000cc0:	f7ff fdbe 	bl	10000840 <move_window>
10000cc4:	2800      	cmp	r0, #0
10000cc6:	d1dd      	bne.n	10000c84 <get_fat.part.0+0x18>
10000cc8:	05f3      	lsls	r3, r6, #23
10000cca:	0ddb      	lsrs	r3, r3, #23
10000ccc:	18e3      	adds	r3, r4, r3
10000cce:	3330      	adds	r3, #48	; 0x30
10000cd0:	781b      	ldrb	r3, [r3, #0]
10000cd2:	3601      	adds	r6, #1
10000cd4:	4698      	mov	r8, r3
10000cd6:	6a23      	ldr	r3, [r4, #32]
10000cd8:	0a71      	lsrs	r1, r6, #9
10000cda:	469c      	mov	ip, r3
10000cdc:	0020      	movs	r0, r4
10000cde:	4461      	add	r1, ip
10000ce0:	f7ff fdae 	bl	10000840 <move_window>
10000ce4:	2800      	cmp	r0, #0
10000ce6:	d1cd      	bne.n	10000c84 <get_fat.part.0+0x18>
10000ce8:	4643      	mov	r3, r8
10000cea:	05f6      	lsls	r6, r6, #23
10000cec:	0df6      	lsrs	r6, r6, #23
10000cee:	19a4      	adds	r4, r4, r6
10000cf0:	3430      	adds	r4, #48	; 0x30
10000cf2:	7820      	ldrb	r0, [r4, #0]
10000cf4:	0200      	lsls	r0, r0, #8
10000cf6:	4318      	orrs	r0, r3
10000cf8:	422f      	tst	r7, r5
10000cfa:	d01f      	beq.n	10000d3c <get_fat.part.0+0xd0>
10000cfc:	0900      	lsrs	r0, r0, #4
10000cfe:	e7c3      	b.n	10000c88 <get_fat.part.0+0x1c>
10000d00:	6a03      	ldr	r3, [r0, #32]
10000d02:	09c9      	lsrs	r1, r1, #7
10000d04:	469c      	mov	ip, r3
10000d06:	4461      	add	r1, ip
10000d08:	f7ff fd9a 	bl	10000840 <move_window>
10000d0c:	2800      	cmp	r0, #0
10000d0e:	d1b9      	bne.n	10000c84 <get_fat.part.0+0x18>
10000d10:	21fe      	movs	r1, #254	; 0xfe
10000d12:	00ad      	lsls	r5, r5, #2
10000d14:	0049      	lsls	r1, r1, #1
10000d16:	400d      	ands	r5, r1
10000d18:	002b      	movs	r3, r5
10000d1a:	3330      	adds	r3, #48	; 0x30
10000d1c:	18e3      	adds	r3, r4, r3
10000d1e:	78d8      	ldrb	r0, [r3, #3]
10000d20:	789a      	ldrb	r2, [r3, #2]
10000d22:	1964      	adds	r4, r4, r5
10000d24:	0412      	lsls	r2, r2, #16
10000d26:	0600      	lsls	r0, r0, #24
10000d28:	3430      	adds	r4, #48	; 0x30
10000d2a:	4310      	orrs	r0, r2
10000d2c:	785b      	ldrb	r3, [r3, #1]
10000d2e:	7822      	ldrb	r2, [r4, #0]
10000d30:	021b      	lsls	r3, r3, #8
10000d32:	4310      	orrs	r0, r2
10000d34:	4318      	orrs	r0, r3
10000d36:	0100      	lsls	r0, r0, #4
10000d38:	0900      	lsrs	r0, r0, #4
10000d3a:	e7a5      	b.n	10000c88 <get_fat.part.0+0x1c>
10000d3c:	0500      	lsls	r0, r0, #20
10000d3e:	0d00      	lsrs	r0, r0, #20
10000d40:	e7a2      	b.n	10000c88 <get_fat.part.0+0x1c>
10000d42:	46c0      	nop			; (mov r8, r8)

10000d44 <f_read.part.0>:
10000d44:	b5f8      	push	{r3, r4, r5, r6, r7, lr}
10000d46:	464e      	mov	r6, r9
10000d48:	46de      	mov	lr, fp
10000d4a:	4657      	mov	r7, sl
10000d4c:	4645      	mov	r5, r8
10000d4e:	469b      	mov	fp, r3
10000d50:	6884      	ldr	r4, [r0, #8]
10000d52:	68c3      	ldr	r3, [r0, #12]
10000d54:	b5e0      	push	{r5, r6, r7, lr}
10000d56:	1b1b      	subs	r3, r3, r4
10000d58:	0006      	movs	r6, r0
10000d5a:	000f      	movs	r7, r1
10000d5c:	4699      	mov	r9, r3
10000d5e:	4293      	cmp	r3, r2
10000d60:	d900      	bls.n	10000d64 <f_read.part.0+0x20>
10000d62:	4691      	mov	r9, r2
10000d64:	464b      	mov	r3, r9
10000d66:	2b00      	cmp	r3, #0
10000d68:	d100      	bne.n	10000d6c <f_read.part.0+0x28>
10000d6a:	e090      	b.n	10000e8e <f_read.part.0+0x14a>
10000d6c:	0022      	movs	r2, r4
10000d6e:	05d3      	lsls	r3, r2, #23
10000d70:	0ddd      	lsrs	r5, r3, #23
10000d72:	2b00      	cmp	r3, #0
10000d74:	d141      	bne.n	10000dfa <f_read.part.0+0xb6>
10000d76:	6833      	ldr	r3, [r6, #0]
10000d78:	0a50      	lsrs	r0, r2, #9
10000d7a:	7899      	ldrb	r1, [r3, #2]
10000d7c:	1e4c      	subs	r4, r1, #1
10000d7e:	4004      	ands	r4, r0
10000d80:	b2e4      	uxtb	r4, r4
10000d82:	2c00      	cmp	r4, #0
10000d84:	d100      	bne.n	10000d88 <f_read.part.0+0x44>
10000d86:	e084      	b.n	10000e92 <f_read.part.0+0x14e>
10000d88:	6970      	ldr	r0, [r6, #20]
10000d8a:	695a      	ldr	r2, [r3, #20]
10000d8c:	3802      	subs	r0, #2
10000d8e:	3a02      	subs	r2, #2
10000d90:	4290      	cmp	r0, r2
10000d92:	d300      	bcc.n	10000d96 <f_read.part.0+0x52>
10000d94:	e08c      	b.n	10000eb0 <f_read.part.0+0x16c>
10000d96:	6a99      	ldr	r1, [r3, #40]	; 0x28
10000d98:	789a      	ldrb	r2, [r3, #2]
10000d9a:	468c      	mov	ip, r1
10000d9c:	4350      	muls	r0, r2
10000d9e:	4460      	add	r0, ip
10000da0:	2800      	cmp	r0, #0
10000da2:	d100      	bne.n	10000da6 <f_read.part.0+0x62>
10000da4:	e084      	b.n	10000eb0 <f_read.part.0+0x16c>
10000da6:	4680      	mov	r8, r0
10000da8:	2180      	movs	r1, #128	; 0x80
10000daa:	44a0      	add	r8, r4
10000dac:	0089      	lsls	r1, r1, #2
10000dae:	4589      	cmp	r9, r1
10000db0:	d300      	bcc.n	10000db4 <f_read.part.0+0x70>
10000db2:	e086      	b.n	10000ec2 <f_read.part.0+0x17e>
10000db4:	69b2      	ldr	r2, [r6, #24]
10000db6:	4590      	cmp	r8, r2
10000db8:	d01a      	beq.n	10000df0 <f_read.part.0+0xac>
10000dba:	0035      	movs	r5, r6
10000dbc:	2440      	movs	r4, #64	; 0x40
10000dbe:	79b1      	ldrb	r1, [r6, #6]
10000dc0:	3528      	adds	r5, #40	; 0x28
10000dc2:	420c      	tst	r4, r1
10000dc4:	d00b      	beq.n	10000dde <f_read.part.0+0x9a>
10000dc6:	7858      	ldrb	r0, [r3, #1]
10000dc8:	0029      	movs	r1, r5
10000dca:	2301      	movs	r3, #1
10000dcc:	f7ff fbcc 	bl	10000568 <disk_write>
10000dd0:	2800      	cmp	r0, #0
10000dd2:	d000      	beq.n	10000dd6 <f_read.part.0+0x92>
10000dd4:	e0a0      	b.n	10000f18 <f_read.part.0+0x1d4>
10000dd6:	79b3      	ldrb	r3, [r6, #6]
10000dd8:	43a3      	bics	r3, r4
10000dda:	71b3      	strb	r3, [r6, #6]
10000ddc:	6833      	ldr	r3, [r6, #0]
10000dde:	7858      	ldrb	r0, [r3, #1]
10000de0:	4642      	mov	r2, r8
10000de2:	2301      	movs	r3, #1
10000de4:	0029      	movs	r1, r5
10000de6:	f7ff fba5 	bl	10000534 <disk_read>
10000dea:	2800      	cmp	r0, #0
10000dec:	d000      	beq.n	10000df0 <f_read.part.0+0xac>
10000dee:	e093      	b.n	10000f18 <f_read.part.0+0x1d4>
10000df0:	4643      	mov	r3, r8
10000df2:	61b3      	str	r3, [r6, #24]
10000df4:	68b3      	ldr	r3, [r6, #8]
10000df6:	05dd      	lsls	r5, r3, #23
10000df8:	0ded      	lsrs	r5, r5, #23
10000dfa:	2380      	movs	r3, #128	; 0x80
10000dfc:	009b      	lsls	r3, r3, #2
10000dfe:	1b59      	subs	r1, r3, r5
10000e00:	4549      	cmp	r1, r9
10000e02:	d900      	bls.n	10000e06 <f_read.part.0+0xc2>
10000e04:	4649      	mov	r1, r9
10000e06:	2402      	movs	r4, #2
10000e08:	002b      	movs	r3, r5
10000e0a:	46a4      	mov	ip, r4
10000e0c:	3329      	adds	r3, #41	; 0x29
10000e0e:	18f3      	adds	r3, r6, r3
10000e10:	3406      	adds	r4, #6
10000e12:	1afb      	subs	r3, r7, r3
10000e14:	459c      	cmp	ip, r3
10000e16:	419b      	sbcs	r3, r3
10000e18:	46a4      	mov	ip, r4
10000e1a:	1e48      	subs	r0, r1, #1
10000e1c:	002a      	movs	r2, r5
10000e1e:	4584      	cmp	ip, r0
10000e20:	41a4      	sbcs	r4, r4
10000e22:	3228      	adds	r2, #40	; 0x28
10000e24:	425b      	negs	r3, r3
10000e26:	4264      	negs	r4, r4
10000e28:	18b2      	adds	r2, r6, r2
10000e2a:	421c      	tst	r4, r3
10000e2c:	d100      	bne.n	10000e30 <f_read.part.0+0xec>
10000e2e:	e077      	b.n	10000f20 <f_read.part.0+0x1dc>
10000e30:	003b      	movs	r3, r7
10000e32:	4313      	orrs	r3, r2
10000e34:	079b      	lsls	r3, r3, #30
10000e36:	d000      	beq.n	10000e3a <f_read.part.0+0xf6>
10000e38:	e072      	b.n	10000f20 <f_read.part.0+0x1dc>
10000e3a:	2300      	movs	r3, #0
10000e3c:	088c      	lsrs	r4, r1, #2
10000e3e:	00a4      	lsls	r4, r4, #2
10000e40:	58d5      	ldr	r5, [r2, r3]
10000e42:	50fd      	str	r5, [r7, r3]
10000e44:	3304      	adds	r3, #4
10000e46:	42a3      	cmp	r3, r4
10000e48:	d1fa      	bne.n	10000e40 <f_read.part.0+0xfc>
10000e4a:	2303      	movs	r3, #3
10000e4c:	000c      	movs	r4, r1
10000e4e:	439c      	bics	r4, r3
10000e50:	0023      	movs	r3, r4
10000e52:	1912      	adds	r2, r2, r4
10000e54:	1ac0      	subs	r0, r0, r3
10000e56:	193c      	adds	r4, r7, r4
10000e58:	428b      	cmp	r3, r1
10000e5a:	d009      	beq.n	10000e70 <f_read.part.0+0x12c>
10000e5c:	7813      	ldrb	r3, [r2, #0]
10000e5e:	7023      	strb	r3, [r4, #0]
10000e60:	2800      	cmp	r0, #0
10000e62:	d005      	beq.n	10000e70 <f_read.part.0+0x12c>
10000e64:	7853      	ldrb	r3, [r2, #1]
10000e66:	7063      	strb	r3, [r4, #1]
10000e68:	2801      	cmp	r0, #1
10000e6a:	d001      	beq.n	10000e70 <f_read.part.0+0x12c>
10000e6c:	7893      	ldrb	r3, [r2, #2]
10000e6e:	70a3      	strb	r3, [r4, #2]
10000e70:	68b3      	ldr	r3, [r6, #8]
10000e72:	4658      	mov	r0, fp
10000e74:	18ca      	adds	r2, r1, r3
10000e76:	465b      	mov	r3, fp
10000e78:	681b      	ldr	r3, [r3, #0]
10000e7a:	60b2      	str	r2, [r6, #8]
10000e7c:	185b      	adds	r3, r3, r1
10000e7e:	6003      	str	r3, [r0, #0]
10000e80:	464b      	mov	r3, r9
10000e82:	1a5b      	subs	r3, r3, r1
10000e84:	4699      	mov	r9, r3
10000e86:	187f      	adds	r7, r7, r1
10000e88:	2b00      	cmp	r3, #0
10000e8a:	d000      	beq.n	10000e8e <f_read.part.0+0x14a>
10000e8c:	e76f      	b.n	10000d6e <f_read.part.0+0x2a>
10000e8e:	2000      	movs	r0, #0
10000e90:	e011      	b.n	10000eb6 <f_read.part.0+0x172>
10000e92:	2a00      	cmp	r2, #0
10000e94:	d132      	bne.n	10000efc <f_read.part.0+0x1b8>
10000e96:	6930      	ldr	r0, [r6, #16]
10000e98:	2801      	cmp	r0, #1
10000e9a:	d909      	bls.n	10000eb0 <f_read.part.0+0x16c>
10000e9c:	1c43      	adds	r3, r0, #1
10000e9e:	d03b      	beq.n	10000f18 <f_read.part.0+0x1d4>
10000ea0:	6833      	ldr	r3, [r6, #0]
10000ea2:	6170      	str	r0, [r6, #20]
10000ea4:	695a      	ldr	r2, [r3, #20]
10000ea6:	3802      	subs	r0, #2
10000ea8:	3a02      	subs	r2, #2
10000eaa:	4290      	cmp	r0, r2
10000eac:	d200      	bcs.n	10000eb0 <f_read.part.0+0x16c>
10000eae:	e772      	b.n	10000d96 <f_read.part.0+0x52>
10000eb0:	2302      	movs	r3, #2
10000eb2:	2002      	movs	r0, #2
10000eb4:	71f3      	strb	r3, [r6, #7]
10000eb6:	bcf0      	pop	{r4, r5, r6, r7}
10000eb8:	46bb      	mov	fp, r7
10000eba:	46b2      	mov	sl, r6
10000ebc:	46a9      	mov	r9, r5
10000ebe:	46a0      	mov	r8, r4
10000ec0:	bdf8      	pop	{r3, r4, r5, r6, r7, pc}
10000ec2:	4649      	mov	r1, r9
10000ec4:	0a49      	lsrs	r1, r1, #9
10000ec6:	468a      	mov	sl, r1
10000ec8:	1861      	adds	r1, r4, r1
10000eca:	428a      	cmp	r2, r1
10000ecc:	d201      	bcs.n	10000ed2 <f_read.part.0+0x18e>
10000ece:	1b12      	subs	r2, r2, r4
10000ed0:	4692      	mov	sl, r2
10000ed2:	4652      	mov	r2, sl
10000ed4:	b2d2      	uxtb	r2, r2
10000ed6:	7858      	ldrb	r0, [r3, #1]
10000ed8:	0039      	movs	r1, r7
10000eda:	0013      	movs	r3, r2
10000edc:	4642      	mov	r2, r8
10000ede:	f7ff fb29 	bl	10000534 <disk_read>
10000ee2:	2800      	cmp	r0, #0
10000ee4:	d118      	bne.n	10000f18 <f_read.part.0+0x1d4>
10000ee6:	79b3      	ldrb	r3, [r6, #6]
10000ee8:	065b      	lsls	r3, r3, #25
10000eea:	d504      	bpl.n	10000ef6 <f_read.part.0+0x1b2>
10000eec:	4642      	mov	r2, r8
10000eee:	69b3      	ldr	r3, [r6, #24]
10000ef0:	1a9b      	subs	r3, r3, r2
10000ef2:	459a      	cmp	sl, r3
10000ef4:	d830      	bhi.n	10000f58 <f_read.part.0+0x214>
10000ef6:	4653      	mov	r3, sl
10000ef8:	0259      	lsls	r1, r3, #9
10000efa:	e7b9      	b.n	10000e70 <f_read.part.0+0x12c>
10000efc:	6a72      	ldr	r2, [r6, #36]	; 0x24
10000efe:	4692      	mov	sl, r2
10000f00:	2a00      	cmp	r2, #0
10000f02:	d114      	bne.n	10000f2e <f_read.part.0+0x1ea>
10000f04:	6971      	ldr	r1, [r6, #20]
10000f06:	2901      	cmp	r1, #1
10000f08:	d9d2      	bls.n	10000eb0 <f_read.part.0+0x16c>
10000f0a:	695a      	ldr	r2, [r3, #20]
10000f0c:	4291      	cmp	r1, r2
10000f0e:	d2cf      	bcs.n	10000eb0 <f_read.part.0+0x16c>
10000f10:	0018      	movs	r0, r3
10000f12:	f7ff feab 	bl	10000c6c <get_fat.part.0>
10000f16:	e7bf      	b.n	10000e98 <f_read.part.0+0x154>
10000f18:	2301      	movs	r3, #1
10000f1a:	2001      	movs	r0, #1
10000f1c:	71f3      	strb	r3, [r6, #7]
10000f1e:	e7ca      	b.n	10000eb6 <f_read.part.0+0x172>
10000f20:	2300      	movs	r3, #0
10000f22:	5cd0      	ldrb	r0, [r2, r3]
10000f24:	54f8      	strb	r0, [r7, r3]
10000f26:	3301      	adds	r3, #1
10000f28:	4299      	cmp	r1, r3
10000f2a:	d1fa      	bne.n	10000f22 <f_read.part.0+0x1de>
10000f2c:	e7a0      	b.n	10000e70 <f_read.part.0+0x12c>
10000f2e:	2304      	movs	r3, #4
10000f30:	4453      	add	r3, sl
10000f32:	4698      	mov	r8, r3
10000f34:	f007 f9c8 	bl	100082c8 <__wrap___aeabi_uidiv>
10000f38:	4653      	mov	r3, sl
10000f3a:	685b      	ldr	r3, [r3, #4]
10000f3c:	2b00      	cmp	r3, #0
10000f3e:	d0b7      	beq.n	10000eb0 <f_read.part.0+0x16c>
10000f40:	4642      	mov	r2, r8
10000f42:	e004      	b.n	10000f4e <f_read.part.0+0x20a>
10000f44:	3208      	adds	r2, #8
10000f46:	1ac0      	subs	r0, r0, r3
10000f48:	6813      	ldr	r3, [r2, #0]
10000f4a:	2b00      	cmp	r3, #0
10000f4c:	d0b0      	beq.n	10000eb0 <f_read.part.0+0x16c>
10000f4e:	4298      	cmp	r0, r3
10000f50:	d2f8      	bcs.n	10000f44 <f_read.part.0+0x200>
10000f52:	6853      	ldr	r3, [r2, #4]
10000f54:	18c0      	adds	r0, r0, r3
10000f56:	e79f      	b.n	10000e98 <f_read.part.0+0x154>
10000f58:	0031      	movs	r1, r6
10000f5a:	0032      	movs	r2, r6
10000f5c:	2002      	movs	r0, #2
10000f5e:	025b      	lsls	r3, r3, #9
10000f60:	18fb      	adds	r3, r7, r3
10000f62:	3129      	adds	r1, #41	; 0x29
10000f64:	3228      	adds	r2, #40	; 0x28
10000f66:	1a59      	subs	r1, r3, r1
10000f68:	4288      	cmp	r0, r1
10000f6a:	d20b      	bcs.n	10000f84 <f_read.part.0+0x240>
10000f6c:	0019      	movs	r1, r3
10000f6e:	4311      	orrs	r1, r2
10000f70:	0789      	lsls	r1, r1, #30
10000f72:	d107      	bne.n	10000f84 <f_read.part.0+0x240>
10000f74:	5951      	ldr	r1, [r2, r5]
10000f76:	5159      	str	r1, [r3, r5]
10000f78:	2180      	movs	r1, #128	; 0x80
10000f7a:	3504      	adds	r5, #4
10000f7c:	0089      	lsls	r1, r1, #2
10000f7e:	428d      	cmp	r5, r1
10000f80:	d1f8      	bne.n	10000f74 <f_read.part.0+0x230>
10000f82:	e7b8      	b.n	10000ef6 <f_read.part.0+0x1b2>
10000f84:	5d51      	ldrb	r1, [r2, r5]
10000f86:	5559      	strb	r1, [r3, r5]
10000f88:	2180      	movs	r1, #128	; 0x80
10000f8a:	3501      	adds	r5, #1
10000f8c:	0089      	lsls	r1, r1, #2
10000f8e:	428d      	cmp	r5, r1
10000f90:	d1f8      	bne.n	10000f84 <f_read.part.0+0x240>
10000f92:	e7b0      	b.n	10000ef6 <f_read.part.0+0x1b2>

10000f94 <put_fat.part.0>:
10000f94:	b5f8      	push	{r3, r4, r5, r6, r7, lr}
10000f96:	4647      	mov	r7, r8
10000f98:	46ce      	mov	lr, r9
10000f9a:	7806      	ldrb	r6, [r0, #0]
10000f9c:	0004      	movs	r4, r0
10000f9e:	000d      	movs	r5, r1
10000fa0:	4690      	mov	r8, r2
10000fa2:	b580      	push	{r7, lr}
10000fa4:	2e02      	cmp	r6, #2
10000fa6:	d00b      	beq.n	10000fc0 <put_fat.part.0+0x2c>
10000fa8:	2e03      	cmp	r6, #3
10000faa:	d045      	beq.n	10001038 <put_fat.part.0+0xa4>
10000fac:	2702      	movs	r7, #2
10000fae:	2e01      	cmp	r6, #1
10000fb0:	d01a      	beq.n	10000fe8 <put_fat.part.0+0x54>
10000fb2:	2301      	movs	r3, #1
10000fb4:	0038      	movs	r0, r7
10000fb6:	7123      	strb	r3, [r4, #4]
10000fb8:	bcc0      	pop	{r6, r7}
10000fba:	46b9      	mov	r9, r7
10000fbc:	46b0      	mov	r8, r6
10000fbe:	bdf8      	pop	{r3, r4, r5, r6, r7, pc}
10000fc0:	6a03      	ldr	r3, [r0, #32]
10000fc2:	0a09      	lsrs	r1, r1, #8
10000fc4:	469c      	mov	ip, r3
10000fc6:	4461      	add	r1, ip
10000fc8:	f7ff fc3a 	bl	10000840 <move_window>
10000fcc:	1e07      	subs	r7, r0, #0
10000fce:	d1f0      	bne.n	10000fb2 <put_fat.part.0+0x1e>
10000fd0:	006b      	lsls	r3, r5, #1
10000fd2:	25ff      	movs	r5, #255	; 0xff
10000fd4:	4642      	mov	r2, r8
10000fd6:	006d      	lsls	r5, r5, #1
10000fd8:	402b      	ands	r3, r5
10000fda:	18e3      	adds	r3, r4, r3
10000fdc:	3330      	adds	r3, #48	; 0x30
10000fde:	701a      	strb	r2, [r3, #0]
10000fe0:	b292      	uxth	r2, r2
10000fe2:	0a12      	lsrs	r2, r2, #8
10000fe4:	705a      	strb	r2, [r3, #1]
10000fe6:	e7e4      	b.n	10000fb2 <put_fat.part.0+0x1e>
10000fe8:	084b      	lsrs	r3, r1, #1
10000fea:	4699      	mov	r9, r3
10000fec:	4489      	add	r9, r1
10000fee:	464b      	mov	r3, r9
10000ff0:	0a59      	lsrs	r1, r3, #9
10000ff2:	6a03      	ldr	r3, [r0, #32]
10000ff4:	469c      	mov	ip, r3
10000ff6:	4461      	add	r1, ip
10000ff8:	f7ff fc22 	bl	10000840 <move_window>
10000ffc:	1e07      	subs	r7, r0, #0
10000ffe:	d1d8      	bne.n	10000fb2 <put_fat.part.0+0x1e>
10001000:	464b      	mov	r3, r9
10001002:	05db      	lsls	r3, r3, #23
10001004:	0ddb      	lsrs	r3, r3, #23
10001006:	18e3      	adds	r3, r4, r3
10001008:	3330      	adds	r3, #48	; 0x30
1000100a:	422e      	tst	r6, r5
1000100c:	d033      	beq.n	10001076 <put_fat.part.0+0xe2>
1000100e:	220f      	movs	r2, #15
10001010:	7819      	ldrb	r1, [r3, #0]
10001012:	464d      	mov	r5, r9
10001014:	4011      	ands	r1, r2
10001016:	4642      	mov	r2, r8
10001018:	0112      	lsls	r2, r2, #4
1000101a:	430a      	orrs	r2, r1
1000101c:	701a      	strb	r2, [r3, #0]
1000101e:	6a23      	ldr	r3, [r4, #32]
10001020:	3501      	adds	r5, #1
10001022:	469c      	mov	ip, r3
10001024:	0a69      	lsrs	r1, r5, #9
10001026:	0020      	movs	r0, r4
10001028:	7126      	strb	r6, [r4, #4]
1000102a:	4461      	add	r1, ip
1000102c:	f7ff fc08 	bl	10000840 <move_window>
10001030:	2800      	cmp	r0, #0
10001032:	d03d      	beq.n	100010b0 <put_fat.part.0+0x11c>
10001034:	0007      	movs	r7, r0
10001036:	e7bc      	b.n	10000fb2 <put_fat.part.0+0x1e>
10001038:	6a03      	ldr	r3, [r0, #32]
1000103a:	09c9      	lsrs	r1, r1, #7
1000103c:	469c      	mov	ip, r3
1000103e:	4461      	add	r1, ip
10001040:	f7ff fbfe 	bl	10000840 <move_window>
10001044:	1e07      	subs	r7, r0, #0
10001046:	d1b4      	bne.n	10000fb2 <put_fat.part.0+0x1e>
10001048:	21fe      	movs	r1, #254	; 0xfe
1000104a:	00ad      	lsls	r5, r5, #2
1000104c:	0049      	lsls	r1, r1, #1
1000104e:	400d      	ands	r5, r1
10001050:	002b      	movs	r3, r5
10001052:	4641      	mov	r1, r8
10001054:	3330      	adds	r3, #48	; 0x30
10001056:	18e3      	adds	r3, r4, r3
10001058:	78da      	ldrb	r2, [r3, #3]
1000105a:	1965      	adds	r5, r4, r5
1000105c:	0912      	lsrs	r2, r2, #4
1000105e:	0712      	lsls	r2, r2, #28
10001060:	430a      	orrs	r2, r1
10001062:	b291      	uxth	r1, r2
10001064:	0a09      	lsrs	r1, r1, #8
10001066:	3530      	adds	r5, #48	; 0x30
10001068:	702a      	strb	r2, [r5, #0]
1000106a:	7059      	strb	r1, [r3, #1]
1000106c:	0c11      	lsrs	r1, r2, #16
1000106e:	0e12      	lsrs	r2, r2, #24
10001070:	7099      	strb	r1, [r3, #2]
10001072:	70da      	strb	r2, [r3, #3]
10001074:	e79d      	b.n	10000fb2 <put_fat.part.0+0x1e>
10001076:	4642      	mov	r2, r8
10001078:	701a      	strb	r2, [r3, #0]
1000107a:	464d      	mov	r5, r9
1000107c:	6a23      	ldr	r3, [r4, #32]
1000107e:	3501      	adds	r5, #1
10001080:	469c      	mov	ip, r3
10001082:	0a69      	lsrs	r1, r5, #9
10001084:	0020      	movs	r0, r4
10001086:	7126      	strb	r6, [r4, #4]
10001088:	4461      	add	r1, ip
1000108a:	f7ff fbd9 	bl	10000840 <move_window>
1000108e:	2800      	cmp	r0, #0
10001090:	d1d0      	bne.n	10001034 <put_fat.part.0+0xa0>
10001092:	05ed      	lsls	r5, r5, #23
10001094:	0ded      	lsrs	r5, r5, #23
10001096:	1965      	adds	r5, r4, r5
10001098:	002b      	movs	r3, r5
1000109a:	4642      	mov	r2, r8
1000109c:	210f      	movs	r1, #15
1000109e:	3330      	adds	r3, #48	; 0x30
100010a0:	781b      	ldrb	r3, [r3, #0]
100010a2:	0a12      	lsrs	r2, r2, #8
100010a4:	438b      	bics	r3, r1
100010a6:	400a      	ands	r2, r1
100010a8:	431a      	orrs	r2, r3
100010aa:	3530      	adds	r5, #48	; 0x30
100010ac:	702a      	strb	r2, [r5, #0]
100010ae:	e780      	b.n	10000fb2 <put_fat.part.0+0x1e>
100010b0:	4643      	mov	r3, r8
100010b2:	05ed      	lsls	r5, r5, #23
100010b4:	0ded      	lsrs	r5, r5, #23
100010b6:	091a      	lsrs	r2, r3, #4
100010b8:	b2d2      	uxtb	r2, r2
100010ba:	1965      	adds	r5, r4, r5
100010bc:	e7f5      	b.n	100010aa <put_fat.part.0+0x116>
100010be:	46c0      	nop			; (mov r8, r8)

100010c0 <sync_fs>:
100010c0:	b5f8      	push	{r3, r4, r5, r6, r7, lr}
100010c2:	7903      	ldrb	r3, [r0, #4]
100010c4:	0004      	movs	r4, r0
100010c6:	2b00      	cmp	r3, #0
100010c8:	d10b      	bne.n	100010e2 <sync_fs+0x22>
100010ca:	7823      	ldrb	r3, [r4, #0]
100010cc:	2b03      	cmp	r3, #3
100010ce:	d029      	beq.n	10001124 <sync_fs+0x64>
100010d0:	2200      	movs	r2, #0
100010d2:	2100      	movs	r1, #0
100010d4:	7860      	ldrb	r0, [r4, #1]
100010d6:	f7ff fa5b 	bl	10000590 <disk_ioctl>
100010da:	1e43      	subs	r3, r0, #1
100010dc:	4198      	sbcs	r0, r3
100010de:	b2c0      	uxtb	r0, r0
100010e0:	bdf8      	pop	{r3, r4, r5, r6, r7, pc}
100010e2:	0007      	movs	r7, r0
100010e4:	6ac5      	ldr	r5, [r0, #44]	; 0x2c
100010e6:	3730      	adds	r7, #48	; 0x30
100010e8:	2301      	movs	r3, #1
100010ea:	002a      	movs	r2, r5
100010ec:	0039      	movs	r1, r7
100010ee:	7840      	ldrb	r0, [r0, #1]
100010f0:	f7ff fa3a 	bl	10000568 <disk_write>
100010f4:	2800      	cmp	r0, #0
100010f6:	d13a      	bne.n	1000116e <sync_fs+0xae>
100010f8:	6a22      	ldr	r2, [r4, #32]
100010fa:	69a3      	ldr	r3, [r4, #24]
100010fc:	7120      	strb	r0, [r4, #4]
100010fe:	1aaa      	subs	r2, r5, r2
10001100:	429a      	cmp	r2, r3
10001102:	d2e2      	bcs.n	100010ca <sync_fs+0xa>
10001104:	78e6      	ldrb	r6, [r4, #3]
10001106:	2e01      	cmp	r6, #1
10001108:	d801      	bhi.n	1000110e <sync_fs+0x4e>
1000110a:	e7de      	b.n	100010ca <sync_fs+0xa>
1000110c:	69a3      	ldr	r3, [r4, #24]
1000110e:	18ed      	adds	r5, r5, r3
10001110:	002a      	movs	r2, r5
10001112:	2301      	movs	r3, #1
10001114:	0039      	movs	r1, r7
10001116:	7860      	ldrb	r0, [r4, #1]
10001118:	3e01      	subs	r6, #1
1000111a:	f7ff fa25 	bl	10000568 <disk_write>
1000111e:	2e01      	cmp	r6, #1
10001120:	d1f4      	bne.n	1000110c <sync_fs+0x4c>
10001122:	e7d2      	b.n	100010ca <sync_fs+0xa>
10001124:	7963      	ldrb	r3, [r4, #5]
10001126:	2b01      	cmp	r3, #1
10001128:	d1d2      	bne.n	100010d0 <sync_fs+0x10>
1000112a:	0025      	movs	r5, r4
1000112c:	2280      	movs	r2, #128	; 0x80
1000112e:	3530      	adds	r5, #48	; 0x30
10001130:	2100      	movs	r1, #0
10001132:	0092      	lsls	r2, r2, #2
10001134:	0028      	movs	r0, r5
10001136:	f007 ffa3 	bl	10009080 <__wrap_memset>
1000113a:	4b0e      	ldr	r3, [pc, #56]	; (10001174 <sync_fs+0xb4>)
1000113c:	4a0e      	ldr	r2, [pc, #56]	; (10001178 <sync_fs+0xb8>)
1000113e:	0029      	movs	r1, r5
10001140:	52e2      	strh	r2, [r4, r3]
10001142:	4b0e      	ldr	r3, [pc, #56]	; (1000117c <sync_fs+0xbc>)
10001144:	4a0e      	ldr	r2, [pc, #56]	; (10001180 <sync_fs+0xc0>)
10001146:	6323      	str	r3, [r4, #48]	; 0x30
10001148:	2385      	movs	r3, #133	; 0x85
1000114a:	009b      	lsls	r3, r3, #2
1000114c:	50e2      	str	r2, [r4, r3]
1000114e:	6922      	ldr	r2, [r4, #16]
10001150:	3304      	adds	r3, #4
10001152:	50e2      	str	r2, [r4, r3]
10001154:	68e2      	ldr	r2, [r4, #12]
10001156:	3304      	adds	r3, #4
10001158:	50e2      	str	r2, [r4, r3]
1000115a:	69e3      	ldr	r3, [r4, #28]
1000115c:	7860      	ldrb	r0, [r4, #1]
1000115e:	1c5a      	adds	r2, r3, #1
10001160:	62e2      	str	r2, [r4, #44]	; 0x2c
10001162:	2301      	movs	r3, #1
10001164:	f7ff fa00 	bl	10000568 <disk_write>
10001168:	2300      	movs	r3, #0
1000116a:	7163      	strb	r3, [r4, #5]
1000116c:	e7b0      	b.n	100010d0 <sync_fs+0x10>
1000116e:	2001      	movs	r0, #1
10001170:	e7b6      	b.n	100010e0 <sync_fs+0x20>
10001172:	46c0      	nop			; (mov r8, r8)
10001174:	0000022e 	.word	0x0000022e
10001178:	ffffaa55 	.word	0xffffaa55
1000117c:	41615252 	.word	0x41615252
10001180:	61417272 	.word	0x61417272

10001184 <create_chain>:
10001184:	b5f0      	push	{r4, r5, r6, r7, lr}
10001186:	464e      	mov	r6, r9
10001188:	4645      	mov	r5, r8
1000118a:	46de      	mov	lr, fp
1000118c:	4657      	mov	r7, sl
1000118e:	b5e0      	push	{r5, r6, r7, lr}
10001190:	4689      	mov	r9, r1
10001192:	0005      	movs	r5, r0
10001194:	b083      	sub	sp, #12
10001196:	2900      	cmp	r1, #0
10001198:	d11e      	bne.n	100011d8 <create_chain+0x54>
1000119a:	68c7      	ldr	r7, [r0, #12]
1000119c:	6943      	ldr	r3, [r0, #20]
1000119e:	2f00      	cmp	r7, #0
100011a0:	d134      	bne.n	1000120c <create_chain+0x88>
100011a2:	3701      	adds	r7, #1
100011a4:	22ff      	movs	r2, #255	; 0xff
100011a6:	0052      	lsls	r2, r2, #1
100011a8:	4693      	mov	fp, r2
100011aa:	3a02      	subs	r2, #2
100011ac:	003c      	movs	r4, r7
100011ae:	4692      	mov	sl, r2
100011b0:	3401      	adds	r4, #1
100011b2:	429c      	cmp	r4, r3
100011b4:	d31f      	bcc.n	100011f6 <create_chain+0x72>
100011b6:	2f01      	cmp	r7, #1
100011b8:	d800      	bhi.n	100011bc <create_chain+0x38>
100011ba:	e091      	b.n	100012e0 <create_chain+0x15c>
100011bc:	2b02      	cmp	r3, #2
100011be:	d91c      	bls.n	100011fa <create_chain+0x76>
100011c0:	2402      	movs	r4, #2
100011c2:	782e      	ldrb	r6, [r5, #0]
100011c4:	2e02      	cmp	r6, #2
100011c6:	d100      	bne.n	100011ca <create_chain+0x46>
100011c8:	e076      	b.n	100012b8 <create_chain+0x134>
100011ca:	2e03      	cmp	r6, #3
100011cc:	d057      	beq.n	1000127e <create_chain+0xfa>
100011ce:	2e01      	cmp	r6, #1
100011d0:	d020      	beq.n	10001214 <create_chain+0x90>
100011d2:	2401      	movs	r4, #1
100011d4:	4264      	negs	r4, r4
100011d6:	e011      	b.n	100011fc <create_chain+0x78>
100011d8:	2901      	cmp	r1, #1
100011da:	d00e      	beq.n	100011fa <create_chain+0x76>
100011dc:	6943      	ldr	r3, [r0, #20]
100011de:	4299      	cmp	r1, r3
100011e0:	d20b      	bcs.n	100011fa <create_chain+0x76>
100011e2:	f7ff fd43 	bl	10000c6c <get_fat.part.0>
100011e6:	0004      	movs	r4, r0
100011e8:	2801      	cmp	r0, #1
100011ea:	d906      	bls.n	100011fa <create_chain+0x76>
100011ec:	696b      	ldr	r3, [r5, #20]
100011ee:	4283      	cmp	r3, r0
100011f0:	d804      	bhi.n	100011fc <create_chain+0x78>
100011f2:	464f      	mov	r7, r9
100011f4:	e7d6      	b.n	100011a4 <create_chain+0x20>
100011f6:	2c01      	cmp	r4, #1
100011f8:	d8e3      	bhi.n	100011c2 <create_chain+0x3e>
100011fa:	2401      	movs	r4, #1
100011fc:	0020      	movs	r0, r4
100011fe:	b003      	add	sp, #12
10001200:	bcf0      	pop	{r4, r5, r6, r7}
10001202:	46bb      	mov	fp, r7
10001204:	46b2      	mov	sl, r6
10001206:	46a9      	mov	r9, r5
10001208:	46a0      	mov	r8, r4
1000120a:	bdf0      	pop	{r4, r5, r6, r7, pc}
1000120c:	42bb      	cmp	r3, r7
1000120e:	d8c9      	bhi.n	100011a4 <create_chain+0x20>
10001210:	2701      	movs	r7, #1
10001212:	e7c7      	b.n	100011a4 <create_chain+0x20>
10001214:	0863      	lsrs	r3, r4, #1
10001216:	4698      	mov	r8, r3
10001218:	44a0      	add	r8, r4
1000121a:	4643      	mov	r3, r8
1000121c:	0a59      	lsrs	r1, r3, #9
1000121e:	6a2b      	ldr	r3, [r5, #32]
10001220:	0028      	movs	r0, r5
10001222:	469c      	mov	ip, r3
10001224:	4461      	add	r1, ip
10001226:	f7ff fb0b 	bl	10000840 <move_window>
1000122a:	2800      	cmp	r0, #0
1000122c:	d1d1      	bne.n	100011d2 <create_chain+0x4e>
1000122e:	4643      	mov	r3, r8
10001230:	05db      	lsls	r3, r3, #23
10001232:	0ddb      	lsrs	r3, r3, #23
10001234:	18eb      	adds	r3, r5, r3
10001236:	3330      	adds	r3, #48	; 0x30
10001238:	781b      	ldrb	r3, [r3, #0]
1000123a:	0028      	movs	r0, r5
1000123c:	9301      	str	r3, [sp, #4]
1000123e:	2301      	movs	r3, #1
10001240:	469c      	mov	ip, r3
10001242:	44e0      	add	r8, ip
10001244:	4643      	mov	r3, r8
10001246:	0a59      	lsrs	r1, r3, #9
10001248:	6a2b      	ldr	r3, [r5, #32]
1000124a:	469c      	mov	ip, r3
1000124c:	4461      	add	r1, ip
1000124e:	f7ff faf7 	bl	10000840 <move_window>
10001252:	2800      	cmp	r0, #0
10001254:	d1bd      	bne.n	100011d2 <create_chain+0x4e>
10001256:	4641      	mov	r1, r8
10001258:	05cb      	lsls	r3, r1, #23
1000125a:	0ddb      	lsrs	r3, r3, #23
1000125c:	18eb      	adds	r3, r5, r3
1000125e:	3330      	adds	r3, #48	; 0x30
10001260:	781b      	ldrb	r3, [r3, #0]
10001262:	9a01      	ldr	r2, [sp, #4]
10001264:	021b      	lsls	r3, r3, #8
10001266:	4313      	orrs	r3, r2
10001268:	4226      	tst	r6, r4
1000126a:	d03b      	beq.n	100012e4 <create_chain+0x160>
1000126c:	091b      	lsrs	r3, r3, #4
1000126e:	2b00      	cmp	r3, #0
10001270:	d03b      	beq.n	100012ea <create_chain+0x166>
10001272:	2b01      	cmp	r3, #1
10001274:	d0c1      	beq.n	100011fa <create_chain+0x76>
10001276:	42a7      	cmp	r7, r4
10001278:	d032      	beq.n	100012e0 <create_chain+0x15c>
1000127a:	696b      	ldr	r3, [r5, #20]
1000127c:	e798      	b.n	100011b0 <create_chain+0x2c>
1000127e:	6a2b      	ldr	r3, [r5, #32]
10001280:	09e1      	lsrs	r1, r4, #7
10001282:	469c      	mov	ip, r3
10001284:	0028      	movs	r0, r5
10001286:	4461      	add	r1, ip
10001288:	f7ff fada 	bl	10000840 <move_window>
1000128c:	2800      	cmp	r0, #0
1000128e:	d1a0      	bne.n	100011d2 <create_chain+0x4e>
10001290:	4653      	mov	r3, sl
10001292:	00a2      	lsls	r2, r4, #2
10001294:	401a      	ands	r2, r3
10001296:	0011      	movs	r1, r2
10001298:	3130      	adds	r1, #48	; 0x30
1000129a:	1869      	adds	r1, r5, r1
1000129c:	78cb      	ldrb	r3, [r1, #3]
1000129e:	7888      	ldrb	r0, [r1, #2]
100012a0:	18aa      	adds	r2, r5, r2
100012a2:	3230      	adds	r2, #48	; 0x30
100012a4:	7812      	ldrb	r2, [r2, #0]
100012a6:	061b      	lsls	r3, r3, #24
100012a8:	0400      	lsls	r0, r0, #16
100012aa:	4303      	orrs	r3, r0
100012ac:	4313      	orrs	r3, r2
100012ae:	784a      	ldrb	r2, [r1, #1]
100012b0:	0212      	lsls	r2, r2, #8
100012b2:	4313      	orrs	r3, r2
100012b4:	011b      	lsls	r3, r3, #4
100012b6:	e7d9      	b.n	1000126c <create_chain+0xe8>
100012b8:	6a2b      	ldr	r3, [r5, #32]
100012ba:	0a21      	lsrs	r1, r4, #8
100012bc:	469c      	mov	ip, r3
100012be:	0028      	movs	r0, r5
100012c0:	4461      	add	r1, ip
100012c2:	f7ff fabd 	bl	10000840 <move_window>
100012c6:	2800      	cmp	r0, #0
100012c8:	d000      	beq.n	100012cc <create_chain+0x148>
100012ca:	e782      	b.n	100011d2 <create_chain+0x4e>
100012cc:	465b      	mov	r3, fp
100012ce:	0062      	lsls	r2, r4, #1
100012d0:	401a      	ands	r2, r3
100012d2:	18aa      	adds	r2, r5, r2
100012d4:	3230      	adds	r2, #48	; 0x30
100012d6:	7851      	ldrb	r1, [r2, #1]
100012d8:	7813      	ldrb	r3, [r2, #0]
100012da:	0209      	lsls	r1, r1, #8
100012dc:	430b      	orrs	r3, r1
100012de:	e7c6      	b.n	1000126e <create_chain+0xea>
100012e0:	2400      	movs	r4, #0
100012e2:	e78b      	b.n	100011fc <create_chain+0x78>
100012e4:	051b      	lsls	r3, r3, #20
100012e6:	0d1b      	lsrs	r3, r3, #20
100012e8:	e7c1      	b.n	1000126e <create_chain+0xea>
100012ea:	696b      	ldr	r3, [r5, #20]
100012ec:	42a3      	cmp	r3, r4
100012ee:	d800      	bhi.n	100012f2 <create_chain+0x16e>
100012f0:	e783      	b.n	100011fa <create_chain+0x76>
100012f2:	0021      	movs	r1, r4
100012f4:	0028      	movs	r0, r5
100012f6:	4a13      	ldr	r2, [pc, #76]	; (10001344 <create_chain+0x1c0>)
100012f8:	f7ff fe4c 	bl	10000f94 <put_fat.part.0>
100012fc:	2800      	cmp	r0, #0
100012fe:	d003      	beq.n	10001308 <create_chain+0x184>
10001300:	2801      	cmp	r0, #1
10001302:	d100      	bne.n	10001306 <create_chain+0x182>
10001304:	e765      	b.n	100011d2 <create_chain+0x4e>
10001306:	e778      	b.n	100011fa <create_chain+0x76>
10001308:	464b      	mov	r3, r9
1000130a:	2b00      	cmp	r3, #0
1000130c:	d00d      	beq.n	1000132a <create_chain+0x1a6>
1000130e:	2b01      	cmp	r3, #1
10001310:	d100      	bne.n	10001314 <create_chain+0x190>
10001312:	e772      	b.n	100011fa <create_chain+0x76>
10001314:	696b      	ldr	r3, [r5, #20]
10001316:	4599      	cmp	r9, r3
10001318:	d300      	bcc.n	1000131c <create_chain+0x198>
1000131a:	e76e      	b.n	100011fa <create_chain+0x76>
1000131c:	0022      	movs	r2, r4
1000131e:	4649      	mov	r1, r9
10001320:	0028      	movs	r0, r5
10001322:	f7ff fe37 	bl	10000f94 <put_fat.part.0>
10001326:	2800      	cmp	r0, #0
10001328:	d1ea      	bne.n	10001300 <create_chain+0x17c>
1000132a:	692b      	ldr	r3, [r5, #16]
1000132c:	60ec      	str	r4, [r5, #12]
1000132e:	1c5a      	adds	r2, r3, #1
10001330:	d100      	bne.n	10001334 <create_chain+0x1b0>
10001332:	e763      	b.n	100011fc <create_chain+0x78>
10001334:	2201      	movs	r2, #1
10001336:	3b01      	subs	r3, #1
10001338:	612b      	str	r3, [r5, #16]
1000133a:	796b      	ldrb	r3, [r5, #5]
1000133c:	4313      	orrs	r3, r2
1000133e:	716b      	strb	r3, [r5, #5]
10001340:	e75c      	b.n	100011fc <create_chain+0x78>
10001342:	46c0      	nop			; (mov r8, r8)
10001344:	0fffffff 	.word	0x0fffffff

10001348 <dir_sdi>:
10001348:	b5f0      	push	{r4, r5, r6, r7, lr}
1000134a:	4657      	mov	r7, sl
1000134c:	4645      	mov	r5, r8
1000134e:	46de      	mov	lr, fp
10001350:	464e      	mov	r6, r9
10001352:	b5e0      	push	{r5, r6, r7, lr}
10001354:	6885      	ldr	r5, [r0, #8]
10001356:	0007      	movs	r7, r0
10001358:	000c      	movs	r4, r1
1000135a:	b083      	sub	sp, #12
1000135c:	80c1      	strh	r1, [r0, #6]
1000135e:	2d01      	cmp	r5, #1
10001360:	d026      	beq.n	100013b0 <dir_sdi+0x68>
10001362:	6806      	ldr	r6, [r0, #0]
10001364:	6973      	ldr	r3, [r6, #20]
10001366:	42ab      	cmp	r3, r5
10001368:	d922      	bls.n	100013b0 <dir_sdi+0x68>
1000136a:	2d00      	cmp	r5, #0
1000136c:	d057      	beq.n	1000141e <dir_sdi+0xd6>
1000136e:	78b2      	ldrb	r2, [r6, #2]
10001370:	0112      	lsls	r2, r2, #4
10001372:	4690      	mov	r8, r2
10001374:	4291      	cmp	r1, r2
10001376:	d200      	bcs.n	1000137a <dir_sdi+0x32>
10001378:	e091      	b.n	1000149e <dir_sdi+0x156>
1000137a:	22ff      	movs	r2, #255	; 0xff
1000137c:	0052      	lsls	r2, r2, #1
1000137e:	4693      	mov	fp, r2
10001380:	429d      	cmp	r5, r3
10001382:	d215      	bcs.n	100013b0 <dir_sdi+0x68>
10001384:	7833      	ldrb	r3, [r6, #0]
10001386:	4699      	mov	r9, r3
10001388:	2b02      	cmp	r3, #2
1000138a:	d100      	bne.n	1000138e <dir_sdi+0x46>
1000138c:	e095      	b.n	100014ba <dir_sdi+0x172>
1000138e:	2b03      	cmp	r3, #3
10001390:	d05a      	beq.n	10001448 <dir_sdi+0x100>
10001392:	2b01      	cmp	r3, #1
10001394:	d014      	beq.n	100013c0 <dir_sdi+0x78>
10001396:	2001      	movs	r0, #1
10001398:	e00b      	b.n	100013b2 <dir_sdi+0x6a>
1000139a:	6a75      	ldr	r5, [r6, #36]	; 0x24
1000139c:	2d00      	cmp	r5, #0
1000139e:	d041      	beq.n	10001424 <dir_sdi+0xdc>
100013a0:	78b2      	ldrb	r2, [r6, #2]
100013a2:	0112      	lsls	r2, r2, #4
100013a4:	4690      	mov	r8, r2
100013a6:	4291      	cmp	r1, r2
100013a8:	d200      	bcs.n	100013ac <dir_sdi+0x64>
100013aa:	e078      	b.n	1000149e <dir_sdi+0x156>
100013ac:	2d01      	cmp	r5, #1
100013ae:	d1e4      	bne.n	1000137a <dir_sdi+0x32>
100013b0:	2002      	movs	r0, #2
100013b2:	b003      	add	sp, #12
100013b4:	bcf0      	pop	{r4, r5, r6, r7}
100013b6:	46bb      	mov	fp, r7
100013b8:	46b2      	mov	sl, r6
100013ba:	46a9      	mov	r9, r5
100013bc:	46a0      	mov	r8, r4
100013be:	bdf0      	pop	{r4, r5, r6, r7, pc}
100013c0:	086b      	lsrs	r3, r5, #1
100013c2:	469a      	mov	sl, r3
100013c4:	44aa      	add	sl, r5
100013c6:	4653      	mov	r3, sl
100013c8:	0a59      	lsrs	r1, r3, #9
100013ca:	6a33      	ldr	r3, [r6, #32]
100013cc:	0030      	movs	r0, r6
100013ce:	469c      	mov	ip, r3
100013d0:	4461      	add	r1, ip
100013d2:	f7ff fa35 	bl	10000840 <move_window>
100013d6:	2800      	cmp	r0, #0
100013d8:	d1dd      	bne.n	10001396 <dir_sdi+0x4e>
100013da:	4653      	mov	r3, sl
100013dc:	05db      	lsls	r3, r3, #23
100013de:	0ddb      	lsrs	r3, r3, #23
100013e0:	18f3      	adds	r3, r6, r3
100013e2:	3330      	adds	r3, #48	; 0x30
100013e4:	781b      	ldrb	r3, [r3, #0]
100013e6:	0030      	movs	r0, r6
100013e8:	9301      	str	r3, [sp, #4]
100013ea:	2301      	movs	r3, #1
100013ec:	469c      	mov	ip, r3
100013ee:	44e2      	add	sl, ip
100013f0:	4653      	mov	r3, sl
100013f2:	0a59      	lsrs	r1, r3, #9
100013f4:	6a33      	ldr	r3, [r6, #32]
100013f6:	469c      	mov	ip, r3
100013f8:	4461      	add	r1, ip
100013fa:	f7ff fa21 	bl	10000840 <move_window>
100013fe:	2800      	cmp	r0, #0
10001400:	d1c9      	bne.n	10001396 <dir_sdi+0x4e>
10001402:	4651      	mov	r1, sl
10001404:	05cb      	lsls	r3, r1, #23
10001406:	0ddb      	lsrs	r3, r3, #23
10001408:	18f6      	adds	r6, r6, r3
1000140a:	3630      	adds	r6, #48	; 0x30
1000140c:	7833      	ldrb	r3, [r6, #0]
1000140e:	9a01      	ldr	r2, [sp, #4]
10001410:	021b      	lsls	r3, r3, #8
10001412:	4313      	orrs	r3, r2
10001414:	464a      	mov	r2, r9
10001416:	422a      	tst	r2, r5
10001418:	d063      	beq.n	100014e2 <dir_sdi+0x19a>
1000141a:	091d      	lsrs	r5, r3, #4
1000141c:	e032      	b.n	10001484 <dir_sdi+0x13c>
1000141e:	7832      	ldrb	r2, [r6, #0]
10001420:	2a03      	cmp	r2, #3
10001422:	d0ba      	beq.n	1000139a <dir_sdi+0x52>
10001424:	2300      	movs	r3, #0
10001426:	60fb      	str	r3, [r7, #12]
10001428:	8933      	ldrh	r3, [r6, #8]
1000142a:	42a3      	cmp	r3, r4
1000142c:	d9c0      	bls.n	100013b0 <dir_sdi+0x68>
1000142e:	6a72      	ldr	r2, [r6, #36]	; 0x24
10001430:	0923      	lsrs	r3, r4, #4
10001432:	4694      	mov	ip, r2
10001434:	4463      	add	r3, ip
10001436:	613b      	str	r3, [r7, #16]
10001438:	210f      	movs	r1, #15
1000143a:	400c      	ands	r4, r1
1000143c:	3630      	adds	r6, #48	; 0x30
1000143e:	0164      	lsls	r4, r4, #5
10001440:	1934      	adds	r4, r6, r4
10001442:	2000      	movs	r0, #0
10001444:	617c      	str	r4, [r7, #20]
10001446:	e7b4      	b.n	100013b2 <dir_sdi+0x6a>
10001448:	6a33      	ldr	r3, [r6, #32]
1000144a:	09e9      	lsrs	r1, r5, #7
1000144c:	469c      	mov	ip, r3
1000144e:	0030      	movs	r0, r6
10001450:	4461      	add	r1, ip
10001452:	f7ff f9f5 	bl	10000840 <move_window>
10001456:	2800      	cmp	r0, #0
10001458:	d19d      	bne.n	10001396 <dir_sdi+0x4e>
1000145a:	22fe      	movs	r2, #254	; 0xfe
1000145c:	00ab      	lsls	r3, r5, #2
1000145e:	0052      	lsls	r2, r2, #1
10001460:	4013      	ands	r3, r2
10001462:	001a      	movs	r2, r3
10001464:	3230      	adds	r2, #48	; 0x30
10001466:	18b2      	adds	r2, r6, r2
10001468:	78d5      	ldrb	r5, [r2, #3]
1000146a:	7891      	ldrb	r1, [r2, #2]
1000146c:	18f3      	adds	r3, r6, r3
1000146e:	3330      	adds	r3, #48	; 0x30
10001470:	781b      	ldrb	r3, [r3, #0]
10001472:	062d      	lsls	r5, r5, #24
10001474:	0409      	lsls	r1, r1, #16
10001476:	430d      	orrs	r5, r1
10001478:	431d      	orrs	r5, r3
1000147a:	7853      	ldrb	r3, [r2, #1]
1000147c:	021b      	lsls	r3, r3, #8
1000147e:	431d      	orrs	r5, r3
10001480:	012d      	lsls	r5, r5, #4
10001482:	092d      	lsrs	r5, r5, #4
10001484:	2d01      	cmp	r5, #1
10001486:	d993      	bls.n	100013b0 <dir_sdi+0x68>
10001488:	683e      	ldr	r6, [r7, #0]
1000148a:	6973      	ldr	r3, [r6, #20]
1000148c:	42ab      	cmp	r3, r5
1000148e:	d800      	bhi.n	10001492 <dir_sdi+0x14a>
10001490:	e78e      	b.n	100013b0 <dir_sdi+0x68>
10001492:	4642      	mov	r2, r8
10001494:	1aa4      	subs	r4, r4, r2
10001496:	b2a4      	uxth	r4, r4
10001498:	4544      	cmp	r4, r8
1000149a:	d300      	bcc.n	1000149e <dir_sdi+0x156>
1000149c:	e770      	b.n	10001380 <dir_sdi+0x38>
1000149e:	60fd      	str	r5, [r7, #12]
100014a0:	3b02      	subs	r3, #2
100014a2:	3d02      	subs	r5, #2
100014a4:	429d      	cmp	r5, r3
100014a6:	d21f      	bcs.n	100014e8 <dir_sdi+0x1a0>
100014a8:	78b3      	ldrb	r3, [r6, #2]
100014aa:	435d      	muls	r5, r3
100014ac:	6ab3      	ldr	r3, [r6, #40]	; 0x28
100014ae:	469c      	mov	ip, r3
100014b0:	4465      	add	r5, ip
100014b2:	0923      	lsrs	r3, r4, #4
100014b4:	195d      	adds	r5, r3, r5
100014b6:	613d      	str	r5, [r7, #16]
100014b8:	e7be      	b.n	10001438 <dir_sdi+0xf0>
100014ba:	6a33      	ldr	r3, [r6, #32]
100014bc:	0a29      	lsrs	r1, r5, #8
100014be:	469c      	mov	ip, r3
100014c0:	0030      	movs	r0, r6
100014c2:	4461      	add	r1, ip
100014c4:	f7ff f9bc 	bl	10000840 <move_window>
100014c8:	2800      	cmp	r0, #0
100014ca:	d000      	beq.n	100014ce <dir_sdi+0x186>
100014cc:	e763      	b.n	10001396 <dir_sdi+0x4e>
100014ce:	465b      	mov	r3, fp
100014d0:	006d      	lsls	r5, r5, #1
100014d2:	401d      	ands	r5, r3
100014d4:	1976      	adds	r6, r6, r5
100014d6:	3630      	adds	r6, #48	; 0x30
100014d8:	7873      	ldrb	r3, [r6, #1]
100014da:	7835      	ldrb	r5, [r6, #0]
100014dc:	021b      	lsls	r3, r3, #8
100014de:	431d      	orrs	r5, r3
100014e0:	e7d0      	b.n	10001484 <dir_sdi+0x13c>
100014e2:	051b      	lsls	r3, r3, #20
100014e4:	0d1d      	lsrs	r5, r3, #20
100014e6:	e7cd      	b.n	10001484 <dir_sdi+0x13c>
100014e8:	2500      	movs	r5, #0
100014ea:	e7e2      	b.n	100014b2 <dir_sdi+0x16a>

100014ec <follow_path>:
100014ec:	b5f8      	push	{r3, r4, r5, r6, r7, lr}
100014ee:	4657      	mov	r7, sl
100014f0:	4645      	mov	r5, r8
100014f2:	46de      	mov	lr, fp
100014f4:	464e      	mov	r6, r9
100014f6:	b5e0      	push	{r5, r6, r7, lr}
100014f8:	780b      	ldrb	r3, [r1, #0]
100014fa:	0005      	movs	r5, r0
100014fc:	468a      	mov	sl, r1
100014fe:	2b2f      	cmp	r3, #47	; 0x2f
10001500:	d053      	beq.n	100015aa <follow_path+0xbe>
10001502:	2b5c      	cmp	r3, #92	; 0x5c
10001504:	d051      	beq.n	100015aa <follow_path+0xbe>
10001506:	2400      	movs	r4, #0
10001508:	4653      	mov	r3, sl
1000150a:	60ac      	str	r4, [r5, #8]
1000150c:	781b      	ldrb	r3, [r3, #0]
1000150e:	2b1f      	cmp	r3, #31
10001510:	d954      	bls.n	100015bc <follow_path+0xd0>
10001512:	4656      	mov	r6, sl
10001514:	69ab      	ldr	r3, [r5, #24]
10001516:	7832      	ldrb	r2, [r6, #0]
10001518:	2a2f      	cmp	r2, #47	; 0x2f
1000151a:	d001      	beq.n	10001520 <follow_path+0x34>
1000151c:	2a5c      	cmp	r2, #92	; 0x5c
1000151e:	d101      	bne.n	10001524 <follow_path+0x38>
10001520:	3601      	adds	r6, #1
10001522:	e7f8      	b.n	10001516 <follow_path+0x2a>
10001524:	2220      	movs	r2, #32
10001526:	701a      	strb	r2, [r3, #0]
10001528:	705a      	strb	r2, [r3, #1]
1000152a:	709a      	strb	r2, [r3, #2]
1000152c:	70da      	strb	r2, [r3, #3]
1000152e:	711a      	strb	r2, [r3, #4]
10001530:	715a      	strb	r2, [r3, #5]
10001532:	719a      	strb	r2, [r3, #6]
10001534:	71da      	strb	r2, [r3, #7]
10001536:	721a      	strb	r2, [r3, #8]
10001538:	725a      	strb	r2, [r3, #9]
1000153a:	729a      	strb	r2, [r3, #10]
1000153c:	7832      	ldrb	r2, [r6, #0]
1000153e:	2a20      	cmp	r2, #32
10001540:	d919      	bls.n	10001576 <follow_path+0x8a>
10001542:	2100      	movs	r1, #0
10001544:	468c      	mov	ip, r1
10001546:	3108      	adds	r1, #8
10001548:	4688      	mov	r8, r1
1000154a:	2102      	movs	r1, #2
1000154c:	468a      	mov	sl, r1
1000154e:	2103      	movs	r1, #3
10001550:	468b      	mov	fp, r1
10001552:	1e71      	subs	r1, r6, #1
10001554:	4689      	mov	r9, r1
10001556:	4661      	mov	r1, ip
10001558:	469c      	mov	ip, r3
1000155a:	002b      	movs	r3, r5
1000155c:	2400      	movs	r4, #0
1000155e:	4645      	mov	r5, r8
10001560:	2701      	movs	r7, #1
10001562:	4698      	mov	r8, r3
10001564:	000b      	movs	r3, r1
10001566:	2a2f      	cmp	r2, #47	; 0x2f
10001568:	d055      	beq.n	10001616 <follow_path+0x12a>
1000156a:	2a5c      	cmp	r2, #92	; 0x5c
1000156c:	d053      	beq.n	10001616 <follow_path+0x12a>
1000156e:	2a2e      	cmp	r2, #46	; 0x2e
10001570:	d02a      	beq.n	100015c8 <follow_path+0xdc>
10001572:	429d      	cmp	r5, r3
10001574:	d806      	bhi.n	10001584 <follow_path+0x98>
10001576:	2006      	movs	r0, #6
10001578:	bcf0      	pop	{r4, r5, r6, r7}
1000157a:	46bb      	mov	fp, r7
1000157c:	46b2      	mov	sl, r6
1000157e:	46a9      	mov	r9, r5
10001580:	46a0      	mov	r8, r4
10001582:	bdf8      	pop	{r3, r4, r5, r6, r7, pc}
10001584:	b251      	sxtb	r1, r2
10001586:	2900      	cmp	r1, #0
10001588:	da05      	bge.n	10001596 <follow_path+0xaa>
1000158a:	4659      	mov	r1, fp
1000158c:	430c      	orrs	r4, r1
1000158e:	49b4      	ldr	r1, [pc, #720]	; (10001860 <follow_path+0x374>)
10001590:	3a80      	subs	r2, #128	; 0x80
10001592:	5c8a      	ldrb	r2, [r1, r2]
10001594:	b2e4      	uxtb	r4, r4
10001596:	2122      	movs	r1, #34	; 0x22
10001598:	48b2      	ldr	r0, [pc, #712]	; (10001864 <follow_path+0x378>)
1000159a:	e003      	b.n	100015a4 <follow_path+0xb8>
1000159c:	7841      	ldrb	r1, [r0, #1]
1000159e:	3001      	adds	r0, #1
100015a0:	2900      	cmp	r1, #0
100015a2:	d023      	beq.n	100015ec <follow_path+0x100>
100015a4:	428a      	cmp	r2, r1
100015a6:	d1f9      	bne.n	1000159c <follow_path+0xb0>
100015a8:	e7e5      	b.n	10001576 <follow_path+0x8a>
100015aa:	2301      	movs	r3, #1
100015ac:	469c      	mov	ip, r3
100015ae:	2400      	movs	r4, #0
100015b0:	44e2      	add	sl, ip
100015b2:	4653      	mov	r3, sl
100015b4:	60ac      	str	r4, [r5, #8]
100015b6:	781b      	ldrb	r3, [r3, #0]
100015b8:	2b1f      	cmp	r3, #31
100015ba:	d8aa      	bhi.n	10001512 <follow_path+0x26>
100015bc:	2100      	movs	r1, #0
100015be:	0028      	movs	r0, r5
100015c0:	f7ff fec2 	bl	10001348 <dir_sdi>
100015c4:	616c      	str	r4, [r5, #20]
100015c6:	e7d7      	b.n	10001578 <follow_path+0x8c>
100015c8:	2d08      	cmp	r5, #8
100015ca:	d1d4      	bne.n	10001576 <follow_path+0x8a>
100015cc:	2308      	movs	r3, #8
100015ce:	250b      	movs	r5, #11
100015d0:	00a4      	lsls	r4, r4, #2
100015d2:	b2e4      	uxtb	r4, r4
100015d4:	464a      	mov	r2, r9
100015d6:	3701      	adds	r7, #1
100015d8:	5dd2      	ldrb	r2, [r2, r7]
100015da:	2a20      	cmp	r2, #32
100015dc:	d8c3      	bhi.n	10001566 <follow_path+0x7a>
100015de:	4642      	mov	r2, r8
100015e0:	4663      	mov	r3, ip
100015e2:	46a8      	mov	r8, r5
100015e4:	19f6      	adds	r6, r6, r7
100015e6:	0015      	movs	r5, r2
100015e8:	2204      	movs	r2, #4
100015ea:	e01d      	b.n	10001628 <follow_path+0x13c>
100015ec:	0011      	movs	r1, r2
100015ee:	3941      	subs	r1, #65	; 0x41
100015f0:	2919      	cmp	r1, #25
100015f2:	d806      	bhi.n	10001602 <follow_path+0x116>
100015f4:	4651      	mov	r1, sl
100015f6:	430c      	orrs	r4, r1
100015f8:	b2e4      	uxtb	r4, r4
100015fa:	4661      	mov	r1, ip
100015fc:	54ca      	strb	r2, [r1, r3]
100015fe:	3301      	adds	r3, #1
10001600:	e7e8      	b.n	100015d4 <follow_path+0xe8>
10001602:	0011      	movs	r1, r2
10001604:	3961      	subs	r1, #97	; 0x61
10001606:	2919      	cmp	r1, #25
10001608:	d8f7      	bhi.n	100015fa <follow_path+0x10e>
1000160a:	2101      	movs	r1, #1
1000160c:	3a20      	subs	r2, #32
1000160e:	430c      	orrs	r4, r1
10001610:	b2e4      	uxtb	r4, r4
10001612:	b2d2      	uxtb	r2, r2
10001614:	e7f1      	b.n	100015fa <follow_path+0x10e>
10001616:	4642      	mov	r2, r8
10001618:	0019      	movs	r1, r3
1000161a:	46a8      	mov	r8, r5
1000161c:	4663      	mov	r3, ip
1000161e:	0015      	movs	r5, r2
10001620:	19f6      	adds	r6, r6, r7
10001622:	2900      	cmp	r1, #0
10001624:	d0a7      	beq.n	10001576 <follow_path+0x8a>
10001626:	2200      	movs	r2, #0
10001628:	7819      	ldrb	r1, [r3, #0]
1000162a:	29e5      	cmp	r1, #229	; 0xe5
1000162c:	d101      	bne.n	10001632 <follow_path+0x146>
1000162e:	39e0      	subs	r1, #224	; 0xe0
10001630:	7019      	strb	r1, [r3, #0]
10001632:	4641      	mov	r1, r8
10001634:	2908      	cmp	r1, #8
10001636:	d100      	bne.n	1000163a <follow_path+0x14e>
10001638:	e105      	b.n	10001846 <follow_path+0x35a>
1000163a:	2103      	movs	r1, #3
1000163c:	4021      	ands	r1, r4
1000163e:	2901      	cmp	r1, #1
10001640:	d101      	bne.n	10001646 <follow_path+0x15a>
10001642:	310f      	adds	r1, #15
10001644:	430a      	orrs	r2, r1
10001646:	210c      	movs	r1, #12
10001648:	400c      	ands	r4, r1
1000164a:	2c04      	cmp	r4, #4
1000164c:	d101      	bne.n	10001652 <follow_path+0x166>
1000164e:	3904      	subs	r1, #4
10001650:	430a      	orrs	r2, r1
10001652:	2100      	movs	r1, #0
10001654:	0028      	movs	r0, r5
10001656:	72da      	strb	r2, [r3, #11]
10001658:	f7ff fe76 	bl	10001348 <dir_sdi>
1000165c:	2800      	cmp	r0, #0
1000165e:	d000      	beq.n	10001662 <follow_path+0x176>
10001660:	e0f7      	b.n	10001852 <follow_path+0x366>
10001662:	682c      	ldr	r4, [r5, #0]
10001664:	692f      	ldr	r7, [r5, #16]
10001666:	46b0      	mov	r8, r6
10001668:	003e      	movs	r6, r7
1000166a:	0027      	movs	r7, r4
1000166c:	2308      	movs	r3, #8
1000166e:	6afc      	ldr	r4, [r7, #44]	; 0x2c
10001670:	469a      	mov	sl, r3
10001672:	42b4      	cmp	r4, r6
10001674:	d00e      	beq.n	10001694 <follow_path+0x1a8>
10001676:	2230      	movs	r2, #48	; 0x30
10001678:	4691      	mov	r9, r2
1000167a:	793b      	ldrb	r3, [r7, #4]
1000167c:	44b9      	add	r9, r7
1000167e:	2b00      	cmp	r3, #0
10001680:	d131      	bne.n	100016e6 <follow_path+0x1fa>
10001682:	2301      	movs	r3, #1
10001684:	0032      	movs	r2, r6
10001686:	4649      	mov	r1, r9
10001688:	7878      	ldrb	r0, [r7, #1]
1000168a:	f7fe ff53 	bl	10000534 <disk_read>
1000168e:	2800      	cmp	r0, #0
10001690:	d159      	bne.n	10001746 <follow_path+0x25a>
10001692:	62fe      	str	r6, [r7, #44]	; 0x2c
10001694:	696a      	ldr	r2, [r5, #20]
10001696:	7814      	ldrb	r4, [r2, #0]
10001698:	2c00      	cmp	r4, #0
1000169a:	d05f      	beq.n	1000175c <follow_path+0x270>
1000169c:	4650      	mov	r0, sl
1000169e:	4653      	mov	r3, sl
100016a0:	7ad1      	ldrb	r1, [r2, #11]
100016a2:	4008      	ands	r0, r1
100016a4:	420b      	tst	r3, r1
100016a6:	d061      	beq.n	1000176c <follow_path+0x280>
100016a8:	88ec      	ldrh	r4, [r5, #6]
100016aa:	3401      	adds	r4, #1
100016ac:	b2a4      	uxth	r4, r4
100016ae:	2c00      	cmp	r4, #0
100016b0:	d054      	beq.n	1000175c <follow_path+0x270>
100016b2:	692e      	ldr	r6, [r5, #16]
100016b4:	2e00      	cmp	r6, #0
100016b6:	d051      	beq.n	1000175c <follow_path+0x270>
100016b8:	230f      	movs	r3, #15
100016ba:	4023      	ands	r3, r4
100016bc:	4699      	mov	r9, r3
100016be:	230f      	movs	r3, #15
100016c0:	4223      	tst	r3, r4
100016c2:	d042      	beq.n	1000174a <follow_path+0x25e>
100016c4:	682f      	ldr	r7, [r5, #0]
100016c6:	464b      	mov	r3, r9
100016c8:	015a      	lsls	r2, r3, #5
100016ca:	003b      	movs	r3, r7
100016cc:	80ec      	strh	r4, [r5, #6]
100016ce:	3330      	adds	r3, #48	; 0x30
100016d0:	6afc      	ldr	r4, [r7, #44]	; 0x2c
100016d2:	189b      	adds	r3, r3, r2
100016d4:	616b      	str	r3, [r5, #20]
100016d6:	42b4      	cmp	r4, r6
100016d8:	d0dc      	beq.n	10001694 <follow_path+0x1a8>
100016da:	2230      	movs	r2, #48	; 0x30
100016dc:	4691      	mov	r9, r2
100016de:	793b      	ldrb	r3, [r7, #4]
100016e0:	44b9      	add	r9, r7
100016e2:	2b00      	cmp	r3, #0
100016e4:	d0cd      	beq.n	10001682 <follow_path+0x196>
100016e6:	2301      	movs	r3, #1
100016e8:	0022      	movs	r2, r4
100016ea:	4649      	mov	r1, r9
100016ec:	7878      	ldrb	r0, [r7, #1]
100016ee:	f7fe ff3b 	bl	10000568 <disk_write>
100016f2:	2800      	cmp	r0, #0
100016f4:	d127      	bne.n	10001746 <follow_path+0x25a>
100016f6:	6a3a      	ldr	r2, [r7, #32]
100016f8:	69bb      	ldr	r3, [r7, #24]
100016fa:	7138      	strb	r0, [r7, #4]
100016fc:	1aa2      	subs	r2, r4, r2
100016fe:	429a      	cmp	r2, r3
10001700:	d2bf      	bcs.n	10001682 <follow_path+0x196>
10001702:	78fa      	ldrb	r2, [r7, #3]
10001704:	4693      	mov	fp, r2
10001706:	2a01      	cmp	r2, #1
10001708:	d9bb      	bls.n	10001682 <follow_path+0x196>
1000170a:	0031      	movs	r1, r6
1000170c:	002a      	movs	r2, r5
1000170e:	464e      	mov	r6, r9
10001710:	465d      	mov	r5, fp
10001712:	4689      	mov	r9, r1
10001714:	4693      	mov	fp, r2
10001716:	e000      	b.n	1000171a <follow_path+0x22e>
10001718:	69bb      	ldr	r3, [r7, #24]
1000171a:	18e4      	adds	r4, r4, r3
1000171c:	0022      	movs	r2, r4
1000171e:	2301      	movs	r3, #1
10001720:	0031      	movs	r1, r6
10001722:	7878      	ldrb	r0, [r7, #1]
10001724:	3d01      	subs	r5, #1
10001726:	f7fe ff1f 	bl	10000568 <disk_write>
1000172a:	2d01      	cmp	r5, #1
1000172c:	d1f4      	bne.n	10001718 <follow_path+0x22c>
1000172e:	464b      	mov	r3, r9
10001730:	46b1      	mov	r9, r6
10001732:	001e      	movs	r6, r3
10001734:	4649      	mov	r1, r9
10001736:	2301      	movs	r3, #1
10001738:	0032      	movs	r2, r6
1000173a:	7878      	ldrb	r0, [r7, #1]
1000173c:	465d      	mov	r5, fp
1000173e:	f7fe fef9 	bl	10000534 <disk_read>
10001742:	2800      	cmp	r0, #0
10001744:	d0a5      	beq.n	10001692 <follow_path+0x1a6>
10001746:	2001      	movs	r0, #1
10001748:	e716      	b.n	10001578 <follow_path+0x8c>
1000174a:	68e9      	ldr	r1, [r5, #12]
1000174c:	3601      	adds	r6, #1
1000174e:	682f      	ldr	r7, [r5, #0]
10001750:	612e      	str	r6, [r5, #16]
10001752:	2900      	cmp	r1, #0
10001754:	d154      	bne.n	10001800 <follow_path+0x314>
10001756:	893b      	ldrh	r3, [r7, #8]
10001758:	42a3      	cmp	r3, r4
1000175a:	d8b4      	bhi.n	100016c6 <follow_path+0x1da>
1000175c:	69ab      	ldr	r3, [r5, #24]
1000175e:	7adb      	ldrb	r3, [r3, #11]
10001760:	2004      	movs	r0, #4
10001762:	075b      	lsls	r3, r3, #29
10001764:	d500      	bpl.n	10001768 <follow_path+0x27c>
10001766:	e707      	b.n	10001578 <follow_path+0x8c>
10001768:	2005      	movs	r0, #5
1000176a:	e705      	b.n	10001578 <follow_path+0x8c>
1000176c:	69ab      	ldr	r3, [r5, #24]
1000176e:	781f      	ldrb	r7, [r3, #0]
10001770:	42a7      	cmp	r7, r4
10001772:	d199      	bne.n	100016a8 <follow_path+0x1bc>
10001774:	7857      	ldrb	r7, [r2, #1]
10001776:	785c      	ldrb	r4, [r3, #1]
10001778:	42a7      	cmp	r7, r4
1000177a:	d195      	bne.n	100016a8 <follow_path+0x1bc>
1000177c:	789f      	ldrb	r7, [r3, #2]
1000177e:	7894      	ldrb	r4, [r2, #2]
10001780:	42a7      	cmp	r7, r4
10001782:	d191      	bne.n	100016a8 <follow_path+0x1bc>
10001784:	78d7      	ldrb	r7, [r2, #3]
10001786:	78dc      	ldrb	r4, [r3, #3]
10001788:	42a7      	cmp	r7, r4
1000178a:	d18d      	bne.n	100016a8 <follow_path+0x1bc>
1000178c:	7917      	ldrb	r7, [r2, #4]
1000178e:	791c      	ldrb	r4, [r3, #4]
10001790:	42a7      	cmp	r7, r4
10001792:	d189      	bne.n	100016a8 <follow_path+0x1bc>
10001794:	7957      	ldrb	r7, [r2, #5]
10001796:	795c      	ldrb	r4, [r3, #5]
10001798:	42a7      	cmp	r7, r4
1000179a:	d185      	bne.n	100016a8 <follow_path+0x1bc>
1000179c:	7997      	ldrb	r7, [r2, #6]
1000179e:	799c      	ldrb	r4, [r3, #6]
100017a0:	42a7      	cmp	r7, r4
100017a2:	d000      	beq.n	100017a6 <follow_path+0x2ba>
100017a4:	e780      	b.n	100016a8 <follow_path+0x1bc>
100017a6:	79d7      	ldrb	r7, [r2, #7]
100017a8:	79dc      	ldrb	r4, [r3, #7]
100017aa:	42a7      	cmp	r7, r4
100017ac:	d000      	beq.n	100017b0 <follow_path+0x2c4>
100017ae:	e77b      	b.n	100016a8 <follow_path+0x1bc>
100017b0:	7a17      	ldrb	r7, [r2, #8]
100017b2:	7a1c      	ldrb	r4, [r3, #8]
100017b4:	42a7      	cmp	r7, r4
100017b6:	d000      	beq.n	100017ba <follow_path+0x2ce>
100017b8:	e776      	b.n	100016a8 <follow_path+0x1bc>
100017ba:	7a57      	ldrb	r7, [r2, #9]
100017bc:	7a5c      	ldrb	r4, [r3, #9]
100017be:	42a7      	cmp	r7, r4
100017c0:	d000      	beq.n	100017c4 <follow_path+0x2d8>
100017c2:	e771      	b.n	100016a8 <follow_path+0x1bc>
100017c4:	7a97      	ldrb	r7, [r2, #10]
100017c6:	7a9c      	ldrb	r4, [r3, #10]
100017c8:	42a7      	cmp	r7, r4
100017ca:	d000      	beq.n	100017ce <follow_path+0x2e2>
100017cc:	e76c      	b.n	100016a8 <follow_path+0x1bc>
100017ce:	7adc      	ldrb	r4, [r3, #11]
100017d0:	4646      	mov	r6, r8
100017d2:	0764      	lsls	r4, r4, #29
100017d4:	d500      	bpl.n	100017d8 <follow_path+0x2ec>
100017d6:	e6cf      	b.n	10001578 <follow_path+0x8c>
100017d8:	06c9      	lsls	r1, r1, #27
100017da:	d5c5      	bpl.n	10001768 <follow_path+0x27c>
100017dc:	7ed1      	ldrb	r1, [r2, #27]
100017de:	7e90      	ldrb	r0, [r2, #26]
100017e0:	0209      	lsls	r1, r1, #8
100017e2:	4301      	orrs	r1, r0
100017e4:	6828      	ldr	r0, [r5, #0]
100017e6:	7800      	ldrb	r0, [r0, #0]
100017e8:	2803      	cmp	r0, #3
100017ea:	d001      	beq.n	100017f0 <follow_path+0x304>
100017ec:	60a9      	str	r1, [r5, #8]
100017ee:	e692      	b.n	10001516 <follow_path+0x2a>
100017f0:	7d14      	ldrb	r4, [r2, #20]
100017f2:	7d52      	ldrb	r2, [r2, #21]
100017f4:	0212      	lsls	r2, r2, #8
100017f6:	4322      	orrs	r2, r4
100017f8:	0412      	lsls	r2, r2, #16
100017fa:	4311      	orrs	r1, r2
100017fc:	60a9      	str	r1, [r5, #8]
100017fe:	e68a      	b.n	10001516 <follow_path+0x2a>
10001800:	78bb      	ldrb	r3, [r7, #2]
10001802:	0922      	lsrs	r2, r4, #4
10001804:	3b01      	subs	r3, #1
10001806:	421a      	tst	r2, r3
10001808:	d000      	beq.n	1000180c <follow_path+0x320>
1000180a:	e75c      	b.n	100016c6 <follow_path+0x1da>
1000180c:	2901      	cmp	r1, #1
1000180e:	d018      	beq.n	10001842 <follow_path+0x356>
10001810:	697b      	ldr	r3, [r7, #20]
10001812:	4299      	cmp	r1, r3
10001814:	d215      	bcs.n	10001842 <follow_path+0x356>
10001816:	0038      	movs	r0, r7
10001818:	f7ff fa28 	bl	10000c6c <get_fat.part.0>
1000181c:	2801      	cmp	r0, #1
1000181e:	d910      	bls.n	10001842 <follow_path+0x356>
10001820:	1c43      	adds	r3, r0, #1
10001822:	d090      	beq.n	10001746 <follow_path+0x25a>
10001824:	682f      	ldr	r7, [r5, #0]
10001826:	697b      	ldr	r3, [r7, #20]
10001828:	4298      	cmp	r0, r3
1000182a:	d297      	bcs.n	1000175c <follow_path+0x270>
1000182c:	60e8      	str	r0, [r5, #12]
1000182e:	3b02      	subs	r3, #2
10001830:	3802      	subs	r0, #2
10001832:	4298      	cmp	r0, r3
10001834:	d20a      	bcs.n	1000184c <follow_path+0x360>
10001836:	78bb      	ldrb	r3, [r7, #2]
10001838:	4358      	muls	r0, r3
1000183a:	6abb      	ldr	r3, [r7, #40]	; 0x28
1000183c:	18c6      	adds	r6, r0, r3
1000183e:	612e      	str	r6, [r5, #16]
10001840:	e741      	b.n	100016c6 <follow_path+0x1da>
10001842:	2002      	movs	r0, #2
10001844:	e698      	b.n	10001578 <follow_path+0x8c>
10001846:	00a4      	lsls	r4, r4, #2
10001848:	b2e4      	uxtb	r4, r4
1000184a:	e6fc      	b.n	10001646 <follow_path+0x15a>
1000184c:	2600      	movs	r6, #0
1000184e:	612e      	str	r6, [r5, #16]
10001850:	e739      	b.n	100016c6 <follow_path+0x1da>
10001852:	69ab      	ldr	r3, [r5, #24]
10001854:	7adb      	ldrb	r3, [r3, #11]
10001856:	2804      	cmp	r0, #4
10001858:	d000      	beq.n	1000185c <follow_path+0x370>
1000185a:	e68d      	b.n	10001578 <follow_path+0x8c>
1000185c:	e780      	b.n	10001760 <follow_path+0x274>
1000185e:	46c0      	nop			; (mov r8, r8)
10001860:	1000c3ec 	.word	0x1000c3ec
10001864:	1000c3dc 	.word	0x1000c3dc

10001868 <remove_chain.part.0>:
10001868:	b5f8      	push	{r3, r4, r5, r6, r7, lr}
1000186a:	4645      	mov	r5, r8
1000186c:	46de      	mov	lr, fp
1000186e:	4657      	mov	r7, sl
10001870:	464e      	mov	r6, r9
10001872:	6943      	ldr	r3, [r0, #20]
10001874:	b5e0      	push	{r5, r6, r7, lr}
10001876:	0004      	movs	r4, r0
10001878:	000d      	movs	r5, r1
1000187a:	4299      	cmp	r1, r3
1000187c:	d300      	bcc.n	10001880 <remove_chain.part.0+0x18>
1000187e:	e098      	b.n	100019b2 <remove_chain.part.0+0x14a>
10001880:	2901      	cmp	r1, #1
10001882:	d914      	bls.n	100018ae <remove_chain.part.0+0x46>
10001884:	23ff      	movs	r3, #255	; 0xff
10001886:	7826      	ldrb	r6, [r4, #0]
10001888:	005b      	lsls	r3, r3, #1
1000188a:	4699      	mov	r9, r3
1000188c:	3b02      	subs	r3, #2
1000188e:	4698      	mov	r8, r3
10001890:	2701      	movs	r7, #1
10001892:	2e02      	cmp	r6, #2
10001894:	d100      	bne.n	10001898 <remove_chain.part.0+0x30>
10001896:	e075      	b.n	10001984 <remove_chain.part.0+0x11c>
10001898:	2e03      	cmp	r6, #3
1000189a:	d038      	beq.n	1000190e <remove_chain.part.0+0xa6>
1000189c:	2e01      	cmp	r6, #1
1000189e:	d008      	beq.n	100018b2 <remove_chain.part.0+0x4a>
100018a0:	2001      	movs	r0, #1
100018a2:	bcf0      	pop	{r4, r5, r6, r7}
100018a4:	46bb      	mov	fp, r7
100018a6:	46b2      	mov	sl, r6
100018a8:	46a9      	mov	r9, r5
100018aa:	46a0      	mov	r8, r4
100018ac:	bdf8      	pop	{r3, r4, r5, r6, r7, pc}
100018ae:	2002      	movs	r0, #2
100018b0:	e7f7      	b.n	100018a2 <remove_chain.part.0+0x3a>
100018b2:	086b      	lsrs	r3, r5, #1
100018b4:	469a      	mov	sl, r3
100018b6:	44aa      	add	sl, r5
100018b8:	4653      	mov	r3, sl
100018ba:	0a59      	lsrs	r1, r3, #9
100018bc:	6a23      	ldr	r3, [r4, #32]
100018be:	0020      	movs	r0, r4
100018c0:	469c      	mov	ip, r3
100018c2:	4461      	add	r1, ip
100018c4:	f7fe ffbc 	bl	10000840 <move_window>
100018c8:	2800      	cmp	r0, #0
100018ca:	d1e9      	bne.n	100018a0 <remove_chain.part.0+0x38>
100018cc:	4653      	mov	r3, sl
100018ce:	05db      	lsls	r3, r3, #23
100018d0:	0ddb      	lsrs	r3, r3, #23
100018d2:	18e3      	adds	r3, r4, r3
100018d4:	3330      	adds	r3, #48	; 0x30
100018d6:	781b      	ldrb	r3, [r3, #0]
100018d8:	0020      	movs	r0, r4
100018da:	469b      	mov	fp, r3
100018dc:	2301      	movs	r3, #1
100018de:	469c      	mov	ip, r3
100018e0:	44e2      	add	sl, ip
100018e2:	4653      	mov	r3, sl
100018e4:	0a59      	lsrs	r1, r3, #9
100018e6:	6a23      	ldr	r3, [r4, #32]
100018e8:	469c      	mov	ip, r3
100018ea:	4461      	add	r1, ip
100018ec:	f7fe ffa8 	bl	10000840 <move_window>
100018f0:	2800      	cmp	r0, #0
100018f2:	d1d5      	bne.n	100018a0 <remove_chain.part.0+0x38>
100018f4:	4653      	mov	r3, sl
100018f6:	465a      	mov	r2, fp
100018f8:	05db      	lsls	r3, r3, #23
100018fa:	0ddb      	lsrs	r3, r3, #23
100018fc:	18e3      	adds	r3, r4, r3
100018fe:	3330      	adds	r3, #48	; 0x30
10001900:	781b      	ldrb	r3, [r3, #0]
10001902:	021b      	lsls	r3, r3, #8
10001904:	4313      	orrs	r3, r2
10001906:	422e      	tst	r6, r5
10001908:	d055      	beq.n	100019b6 <remove_chain.part.0+0x14e>
1000190a:	091e      	lsrs	r6, r3, #4
1000190c:	e01c      	b.n	10001948 <remove_chain.part.0+0xe0>
1000190e:	6a23      	ldr	r3, [r4, #32]
10001910:	09e9      	lsrs	r1, r5, #7
10001912:	469c      	mov	ip, r3
10001914:	0020      	movs	r0, r4
10001916:	4461      	add	r1, ip
10001918:	f7fe ff92 	bl	10000840 <move_window>
1000191c:	2800      	cmp	r0, #0
1000191e:	d1bf      	bne.n	100018a0 <remove_chain.part.0+0x38>
10001920:	4642      	mov	r2, r8
10001922:	00ab      	lsls	r3, r5, #2
10001924:	4013      	ands	r3, r2
10001926:	001a      	movs	r2, r3
10001928:	3230      	adds	r2, #48	; 0x30
1000192a:	18a2      	adds	r2, r4, r2
1000192c:	78d6      	ldrb	r6, [r2, #3]
1000192e:	7891      	ldrb	r1, [r2, #2]
10001930:	18e3      	adds	r3, r4, r3
10001932:	3330      	adds	r3, #48	; 0x30
10001934:	781b      	ldrb	r3, [r3, #0]
10001936:	0636      	lsls	r6, r6, #24
10001938:	0409      	lsls	r1, r1, #16
1000193a:	430e      	orrs	r6, r1
1000193c:	431e      	orrs	r6, r3
1000193e:	7853      	ldrb	r3, [r2, #1]
10001940:	021b      	lsls	r3, r3, #8
10001942:	431e      	orrs	r6, r3
10001944:	0136      	lsls	r6, r6, #4
10001946:	0936      	lsrs	r6, r6, #4
10001948:	2e00      	cmp	r6, #0
1000194a:	d032      	beq.n	100019b2 <remove_chain.part.0+0x14a>
1000194c:	2e01      	cmp	r6, #1
1000194e:	d0ae      	beq.n	100018ae <remove_chain.part.0+0x46>
10001950:	6963      	ldr	r3, [r4, #20]
10001952:	42ab      	cmp	r3, r5
10001954:	d9ab      	bls.n	100018ae <remove_chain.part.0+0x46>
10001956:	2200      	movs	r2, #0
10001958:	0029      	movs	r1, r5
1000195a:	0020      	movs	r0, r4
1000195c:	f7ff fb1a 	bl	10000f94 <put_fat.part.0>
10001960:	2800      	cmp	r0, #0
10001962:	d19e      	bne.n	100018a2 <remove_chain.part.0+0x3a>
10001964:	6923      	ldr	r3, [r4, #16]
10001966:	1c5a      	adds	r2, r3, #1
10001968:	d020      	beq.n	100019ac <remove_chain.part.0+0x144>
1000196a:	3301      	adds	r3, #1
1000196c:	6123      	str	r3, [r4, #16]
1000196e:	7963      	ldrb	r3, [r4, #5]
10001970:	433b      	orrs	r3, r7
10001972:	7163      	strb	r3, [r4, #5]
10001974:	6963      	ldr	r3, [r4, #20]
10001976:	429e      	cmp	r6, r3
10001978:	d21b      	bcs.n	100019b2 <remove_chain.part.0+0x14a>
1000197a:	0035      	movs	r5, r6
1000197c:	7826      	ldrb	r6, [r4, #0]
1000197e:	2e02      	cmp	r6, #2
10001980:	d000      	beq.n	10001984 <remove_chain.part.0+0x11c>
10001982:	e789      	b.n	10001898 <remove_chain.part.0+0x30>
10001984:	6a23      	ldr	r3, [r4, #32]
10001986:	0a29      	lsrs	r1, r5, #8
10001988:	469c      	mov	ip, r3
1000198a:	0020      	movs	r0, r4
1000198c:	4461      	add	r1, ip
1000198e:	f7fe ff57 	bl	10000840 <move_window>
10001992:	2800      	cmp	r0, #0
10001994:	d000      	beq.n	10001998 <remove_chain.part.0+0x130>
10001996:	e783      	b.n	100018a0 <remove_chain.part.0+0x38>
10001998:	464a      	mov	r2, r9
1000199a:	006b      	lsls	r3, r5, #1
1000199c:	4013      	ands	r3, r2
1000199e:	18e3      	adds	r3, r4, r3
100019a0:	3330      	adds	r3, #48	; 0x30
100019a2:	785a      	ldrb	r2, [r3, #1]
100019a4:	781e      	ldrb	r6, [r3, #0]
100019a6:	0212      	lsls	r2, r2, #8
100019a8:	4316      	orrs	r6, r2
100019aa:	e7cd      	b.n	10001948 <remove_chain.part.0+0xe0>
100019ac:	6963      	ldr	r3, [r4, #20]
100019ae:	42b3      	cmp	r3, r6
100019b0:	d8e3      	bhi.n	1000197a <remove_chain.part.0+0x112>
100019b2:	2000      	movs	r0, #0
100019b4:	e775      	b.n	100018a2 <remove_chain.part.0+0x3a>
100019b6:	051e      	lsls	r6, r3, #20
100019b8:	0d36      	lsrs	r6, r6, #20
100019ba:	e7c5      	b.n	10001948 <remove_chain.part.0+0xe0>

100019bc <dir_register>:
100019bc:	b5f0      	push	{r4, r5, r6, r7, lr}
100019be:	46de      	mov	lr, fp
100019c0:	464e      	mov	r6, r9
100019c2:	4657      	mov	r7, sl
100019c4:	4645      	mov	r5, r8
100019c6:	b5e0      	push	{r5, r6, r7, lr}
100019c8:	2100      	movs	r1, #0
100019ca:	b085      	sub	sp, #20
100019cc:	0006      	movs	r6, r0
100019ce:	f7ff fcbb 	bl	10001348 <dir_sdi>
100019d2:	1e04      	subs	r4, r0, #0
100019d4:	d00a      	beq.n	100019ec <dir_register+0x30>
100019d6:	2804      	cmp	r0, #4
100019d8:	d100      	bne.n	100019dc <dir_register+0x20>
100019da:	2407      	movs	r4, #7
100019dc:	0020      	movs	r0, r4
100019de:	b005      	add	sp, #20
100019e0:	bcf0      	pop	{r4, r5, r6, r7}
100019e2:	46bb      	mov	fp, r7
100019e4:	46b2      	mov	sl, r6
100019e6:	46a9      	mov	r9, r5
100019e8:	46a0      	mov	r8, r4
100019ea:	bdf0      	pop	{r4, r5, r6, r7, pc}
100019ec:	6933      	ldr	r3, [r6, #16]
100019ee:	6835      	ldr	r5, [r6, #0]
100019f0:	4698      	mov	r8, r3
100019f2:	230f      	movs	r3, #15
100019f4:	469a      	mov	sl, r3
100019f6:	6aec      	ldr	r4, [r5, #44]	; 0x2c
100019f8:	4544      	cmp	r4, r8
100019fa:	d00e      	beq.n	10001a1a <dir_register+0x5e>
100019fc:	002f      	movs	r7, r5
100019fe:	792b      	ldrb	r3, [r5, #4]
10001a00:	3730      	adds	r7, #48	; 0x30
10001a02:	2b00      	cmp	r3, #0
10001a04:	d159      	bne.n	10001aba <dir_register+0xfe>
10001a06:	2301      	movs	r3, #1
10001a08:	4642      	mov	r2, r8
10001a0a:	0039      	movs	r1, r7
10001a0c:	7868      	ldrb	r0, [r5, #1]
10001a0e:	f7fe fd91 	bl	10000534 <disk_read>
10001a12:	2800      	cmp	r0, #0
10001a14:	d142      	bne.n	10001a9c <dir_register+0xe0>
10001a16:	4643      	mov	r3, r8
10001a18:	62eb      	str	r3, [r5, #44]	; 0x2c
10001a1a:	6973      	ldr	r3, [r6, #20]
10001a1c:	781b      	ldrb	r3, [r3, #0]
10001a1e:	2be5      	cmp	r3, #229	; 0xe5
10001a20:	d001      	beq.n	10001a26 <dir_register+0x6a>
10001a22:	2b00      	cmp	r3, #0
10001a24:	d124      	bne.n	10001a70 <dir_register+0xb4>
10001a26:	6931      	ldr	r1, [r6, #16]
10001a28:	6830      	ldr	r0, [r6, #0]
10001a2a:	f7fe ff09 	bl	10000840 <move_window>
10001a2e:	1e04      	subs	r4, r0, #0
10001a30:	d1d4      	bne.n	100019dc <dir_register+0x20>
10001a32:	2220      	movs	r2, #32
10001a34:	2100      	movs	r1, #0
10001a36:	6970      	ldr	r0, [r6, #20]
10001a38:	f007 fb22 	bl	10009080 <__wrap_memset>
10001a3c:	6973      	ldr	r3, [r6, #20]
10001a3e:	69b2      	ldr	r2, [r6, #24]
10001a40:	0019      	movs	r1, r3
10001a42:	4311      	orrs	r1, r2
10001a44:	0789      	lsls	r1, r1, #30
10001a46:	d000      	beq.n	10001a4a <dir_register+0x8e>
10001a48:	e0f1      	b.n	10001c2e <dir_register+0x272>
10001a4a:	1c51      	adds	r1, r2, #1
10001a4c:	1a59      	subs	r1, r3, r1
10001a4e:	2902      	cmp	r1, #2
10001a50:	d800      	bhi.n	10001a54 <dir_register+0x98>
10001a52:	e0ec      	b.n	10001c2e <dir_register+0x272>
10001a54:	6811      	ldr	r1, [r2, #0]
10001a56:	6019      	str	r1, [r3, #0]
10001a58:	6851      	ldr	r1, [r2, #4]
10001a5a:	6059      	str	r1, [r3, #4]
10001a5c:	7a11      	ldrb	r1, [r2, #8]
10001a5e:	7219      	strb	r1, [r3, #8]
10001a60:	7a51      	ldrb	r1, [r2, #9]
10001a62:	7259      	strb	r1, [r3, #9]
10001a64:	7a92      	ldrb	r2, [r2, #10]
10001a66:	729a      	strb	r2, [r3, #10]
10001a68:	2201      	movs	r2, #1
10001a6a:	6833      	ldr	r3, [r6, #0]
10001a6c:	711a      	strb	r2, [r3, #4]
10001a6e:	e7b5      	b.n	100019dc <dir_register+0x20>
10001a70:	88f4      	ldrh	r4, [r6, #6]
10001a72:	3401      	adds	r4, #1
10001a74:	b2a4      	uxth	r4, r4
10001a76:	2c00      	cmp	r4, #0
10001a78:	d0af      	beq.n	100019da <dir_register+0x1e>
10001a7a:	6933      	ldr	r3, [r6, #16]
10001a7c:	4698      	mov	r8, r3
10001a7e:	2b00      	cmp	r3, #0
10001a80:	d0ab      	beq.n	100019da <dir_register+0x1e>
10001a82:	4657      	mov	r7, sl
10001a84:	4653      	mov	r3, sl
10001a86:	4027      	ands	r7, r4
10001a88:	4223      	tst	r3, r4
10001a8a:	d009      	beq.n	10001aa0 <dir_register+0xe4>
10001a8c:	6835      	ldr	r5, [r6, #0]
10001a8e:	017b      	lsls	r3, r7, #5
10001a90:	002f      	movs	r7, r5
10001a92:	3730      	adds	r7, #48	; 0x30
10001a94:	18ff      	adds	r7, r7, r3
10001a96:	80f4      	strh	r4, [r6, #6]
10001a98:	6177      	str	r7, [r6, #20]
10001a9a:	e7ac      	b.n	100019f6 <dir_register+0x3a>
10001a9c:	2401      	movs	r4, #1
10001a9e:	e79d      	b.n	100019dc <dir_register+0x20>
10001aa0:	2301      	movs	r3, #1
10001aa2:	469c      	mov	ip, r3
10001aa4:	44e0      	add	r8, ip
10001aa6:	4643      	mov	r3, r8
10001aa8:	68f1      	ldr	r1, [r6, #12]
10001aaa:	6835      	ldr	r5, [r6, #0]
10001aac:	6133      	str	r3, [r6, #16]
10001aae:	2900      	cmp	r1, #0
10001ab0:	d128      	bne.n	10001b04 <dir_register+0x148>
10001ab2:	892b      	ldrh	r3, [r5, #8]
10001ab4:	42a3      	cmp	r3, r4
10001ab6:	d8ea      	bhi.n	10001a8e <dir_register+0xd2>
10001ab8:	e78f      	b.n	100019da <dir_register+0x1e>
10001aba:	2301      	movs	r3, #1
10001abc:	0022      	movs	r2, r4
10001abe:	0039      	movs	r1, r7
10001ac0:	7868      	ldrb	r0, [r5, #1]
10001ac2:	f7fe fd51 	bl	10000568 <disk_write>
10001ac6:	2800      	cmp	r0, #0
10001ac8:	d1e8      	bne.n	10001a9c <dir_register+0xe0>
10001aca:	6a2a      	ldr	r2, [r5, #32]
10001acc:	69ab      	ldr	r3, [r5, #24]
10001ace:	7128      	strb	r0, [r5, #4]
10001ad0:	1aa2      	subs	r2, r4, r2
10001ad2:	429a      	cmp	r2, r3
10001ad4:	d297      	bcs.n	10001a06 <dir_register+0x4a>
10001ad6:	78ea      	ldrb	r2, [r5, #3]
10001ad8:	4691      	mov	r9, r2
10001ada:	2a01      	cmp	r2, #1
10001adc:	d993      	bls.n	10001a06 <dir_register+0x4a>
10001ade:	0032      	movs	r2, r6
10001ae0:	002e      	movs	r6, r5
10001ae2:	464d      	mov	r5, r9
10001ae4:	4691      	mov	r9, r2
10001ae6:	e000      	b.n	10001aea <dir_register+0x12e>
10001ae8:	69b3      	ldr	r3, [r6, #24]
10001aea:	18e4      	adds	r4, r4, r3
10001aec:	0022      	movs	r2, r4
10001aee:	2301      	movs	r3, #1
10001af0:	0039      	movs	r1, r7
10001af2:	7870      	ldrb	r0, [r6, #1]
10001af4:	3d01      	subs	r5, #1
10001af6:	f7fe fd37 	bl	10000568 <disk_write>
10001afa:	2d01      	cmp	r5, #1
10001afc:	d1f4      	bne.n	10001ae8 <dir_register+0x12c>
10001afe:	0035      	movs	r5, r6
10001b00:	464e      	mov	r6, r9
10001b02:	e780      	b.n	10001a06 <dir_register+0x4a>
10001b04:	78ab      	ldrb	r3, [r5, #2]
10001b06:	0922      	lsrs	r2, r4, #4
10001b08:	3b01      	subs	r3, #1
10001b0a:	421a      	tst	r2, r3
10001b0c:	d1bf      	bne.n	10001a8e <dir_register+0xd2>
10001b0e:	2901      	cmp	r1, #1
10001b10:	d021      	beq.n	10001b56 <dir_register+0x19a>
10001b12:	696b      	ldr	r3, [r5, #20]
10001b14:	4299      	cmp	r1, r3
10001b16:	d21e      	bcs.n	10001b56 <dir_register+0x19a>
10001b18:	0028      	movs	r0, r5
10001b1a:	f7ff f8a7 	bl	10000c6c <get_fat.part.0>
10001b1e:	0002      	movs	r2, r0
10001b20:	9001      	str	r0, [sp, #4]
10001b22:	2801      	cmp	r0, #1
10001b24:	d917      	bls.n	10001b56 <dir_register+0x19a>
10001b26:	1c43      	adds	r3, r0, #1
10001b28:	d0b8      	beq.n	10001a9c <dir_register+0xe0>
10001b2a:	6835      	ldr	r5, [r6, #0]
10001b2c:	696b      	ldr	r3, [r5, #20]
10001b2e:	4298      	cmp	r0, r3
10001b30:	d213      	bcs.n	10001b5a <dir_register+0x19e>
10001b32:	3a02      	subs	r2, #2
10001b34:	9202      	str	r2, [sp, #8]
10001b36:	3b02      	subs	r3, #2
10001b38:	9a01      	ldr	r2, [sp, #4]
10001b3a:	60f2      	str	r2, [r6, #12]
10001b3c:	9a02      	ldr	r2, [sp, #8]
10001b3e:	4293      	cmp	r3, r2
10001b40:	d800      	bhi.n	10001b44 <dir_register+0x188>
10001b42:	e085      	b.n	10001c50 <dir_register+0x294>
10001b44:	78ab      	ldrb	r3, [r5, #2]
10001b46:	435a      	muls	r2, r3
10001b48:	0013      	movs	r3, r2
10001b4a:	6aaa      	ldr	r2, [r5, #40]	; 0x28
10001b4c:	4690      	mov	r8, r2
10001b4e:	4498      	add	r8, r3
10001b50:	4643      	mov	r3, r8
10001b52:	6133      	str	r3, [r6, #16]
10001b54:	e79b      	b.n	10001a8e <dir_register+0xd2>
10001b56:	2402      	movs	r4, #2
10001b58:	e740      	b.n	100019dc <dir_register+0x20>
10001b5a:	0028      	movs	r0, r5
10001b5c:	68f1      	ldr	r1, [r6, #12]
10001b5e:	f7ff fb11 	bl	10001184 <create_chain>
10001b62:	1e03      	subs	r3, r0, #0
10001b64:	9001      	str	r0, [sp, #4]
10001b66:	d100      	bne.n	10001b6a <dir_register+0x1ae>
10001b68:	e737      	b.n	100019da <dir_register+0x1e>
10001b6a:	2801      	cmp	r0, #1
10001b6c:	d0f3      	beq.n	10001b56 <dir_register+0x19a>
10001b6e:	3301      	adds	r3, #1
10001b70:	d094      	beq.n	10001a9c <dir_register+0xe0>
10001b72:	6835      	ldr	r5, [r6, #0]
10001b74:	792b      	ldrb	r3, [r5, #4]
10001b76:	2b00      	cmp	r3, #0
10001b78:	d16d      	bne.n	10001c56 <dir_register+0x29a>
10001b7a:	0028      	movs	r0, r5
10001b7c:	2280      	movs	r2, #128	; 0x80
10001b7e:	2100      	movs	r1, #0
10001b80:	0092      	lsls	r2, r2, #2
10001b82:	3030      	adds	r0, #48	; 0x30
10001b84:	f007 fa7c 	bl	10009080 <__wrap_memset>
10001b88:	9b01      	ldr	r3, [sp, #4]
10001b8a:	6835      	ldr	r5, [r6, #0]
10001b8c:	1e9a      	subs	r2, r3, #2
10001b8e:	696b      	ldr	r3, [r5, #20]
10001b90:	9202      	str	r2, [sp, #8]
10001b92:	3b02      	subs	r3, #2
10001b94:	429a      	cmp	r2, r3
10001b96:	d300      	bcc.n	10001b9a <dir_register+0x1de>
10001b98:	e090      	b.n	10001cbc <dir_register+0x300>
10001b9a:	0011      	movs	r1, r2
10001b9c:	6aa8      	ldr	r0, [r5, #40]	; 0x28
10001b9e:	78aa      	ldrb	r2, [r5, #2]
10001ba0:	4680      	mov	r8, r0
10001ba2:	4351      	muls	r1, r2
10001ba4:	4488      	add	r8, r1
10001ba6:	4641      	mov	r1, r8
10001ba8:	62e9      	str	r1, [r5, #44]	; 0x2c
10001baa:	2a00      	cmp	r2, #0
10001bac:	d03c      	beq.n	10001c28 <dir_register+0x26c>
10001bae:	2300      	movs	r3, #0
10001bb0:	9403      	str	r4, [sp, #12]
10001bb2:	46bb      	mov	fp, r7
10001bb4:	4644      	mov	r4, r8
10001bb6:	46b1      	mov	r9, r6
10001bb8:	4698      	mov	r8, r3
10001bba:	002f      	movs	r7, r5
10001bbc:	2301      	movs	r3, #1
10001bbe:	3730      	adds	r7, #48	; 0x30
10001bc0:	0022      	movs	r2, r4
10001bc2:	0039      	movs	r1, r7
10001bc4:	7868      	ldrb	r0, [r5, #1]
10001bc6:	712b      	strb	r3, [r5, #4]
10001bc8:	f7fe fcce 	bl	10000568 <disk_write>
10001bcc:	2800      	cmp	r0, #0
10001bce:	d000      	beq.n	10001bd2 <dir_register+0x216>
10001bd0:	e764      	b.n	10001a9c <dir_register+0xe0>
10001bd2:	6a2a      	ldr	r2, [r5, #32]
10001bd4:	69ab      	ldr	r3, [r5, #24]
10001bd6:	7128      	strb	r0, [r5, #4]
10001bd8:	1aa2      	subs	r2, r4, r2
10001bda:	429a      	cmp	r2, r3
10001bdc:	d20e      	bcs.n	10001bfc <dir_register+0x240>
10001bde:	78ee      	ldrb	r6, [r5, #3]
10001be0:	2e01      	cmp	r6, #1
10001be2:	d801      	bhi.n	10001be8 <dir_register+0x22c>
10001be4:	e00a      	b.n	10001bfc <dir_register+0x240>
10001be6:	69ab      	ldr	r3, [r5, #24]
10001be8:	18e4      	adds	r4, r4, r3
10001bea:	0022      	movs	r2, r4
10001bec:	2301      	movs	r3, #1
10001bee:	0039      	movs	r1, r7
10001bf0:	7868      	ldrb	r0, [r5, #1]
10001bf2:	3e01      	subs	r6, #1
10001bf4:	f7fe fcb8 	bl	10000568 <disk_write>
10001bf8:	2e01      	cmp	r6, #1
10001bfa:	d1f4      	bne.n	10001be6 <dir_register+0x22a>
10001bfc:	464b      	mov	r3, r9
10001bfe:	4647      	mov	r7, r8
10001c00:	681d      	ldr	r5, [r3, #0]
10001c02:	3701      	adds	r7, #1
10001c04:	6aeb      	ldr	r3, [r5, #44]	; 0x2c
10001c06:	1c5c      	adds	r4, r3, #1
10001c08:	b2fb      	uxtb	r3, r7
10001c0a:	4698      	mov	r8, r3
10001c0c:	78ab      	ldrb	r3, [r5, #2]
10001c0e:	62ec      	str	r4, [r5, #44]	; 0x2c
10001c10:	4543      	cmp	r3, r8
10001c12:	d8d2      	bhi.n	10001bba <dir_register+0x1fe>
10001c14:	4643      	mov	r3, r8
10001c16:	46a0      	mov	r8, r4
10001c18:	4642      	mov	r2, r8
10001c1a:	465f      	mov	r7, fp
10001c1c:	464e      	mov	r6, r9
10001c1e:	1ad3      	subs	r3, r2, r3
10001c20:	4698      	mov	r8, r3
10001c22:	696b      	ldr	r3, [r5, #20]
10001c24:	9c03      	ldr	r4, [sp, #12]
10001c26:	3b02      	subs	r3, #2
10001c28:	4642      	mov	r2, r8
10001c2a:	62ea      	str	r2, [r5, #44]	; 0x2c
10001c2c:	e784      	b.n	10001b38 <dir_register+0x17c>
10001c2e:	7811      	ldrb	r1, [r2, #0]
10001c30:	7019      	strb	r1, [r3, #0]
10001c32:	7851      	ldrb	r1, [r2, #1]
10001c34:	7059      	strb	r1, [r3, #1]
10001c36:	7891      	ldrb	r1, [r2, #2]
10001c38:	7099      	strb	r1, [r3, #2]
10001c3a:	78d1      	ldrb	r1, [r2, #3]
10001c3c:	70d9      	strb	r1, [r3, #3]
10001c3e:	7911      	ldrb	r1, [r2, #4]
10001c40:	7119      	strb	r1, [r3, #4]
10001c42:	7951      	ldrb	r1, [r2, #5]
10001c44:	7159      	strb	r1, [r3, #5]
10001c46:	7991      	ldrb	r1, [r2, #6]
10001c48:	7199      	strb	r1, [r3, #6]
10001c4a:	79d1      	ldrb	r1, [r2, #7]
10001c4c:	71d9      	strb	r1, [r3, #7]
10001c4e:	e705      	b.n	10001a5c <dir_register+0xa0>
10001c50:	2300      	movs	r3, #0
10001c52:	4698      	mov	r8, r3
10001c54:	e77c      	b.n	10001b50 <dir_register+0x194>
10001c56:	6aeb      	ldr	r3, [r5, #44]	; 0x2c
10001c58:	7868      	ldrb	r0, [r5, #1]
10001c5a:	4698      	mov	r8, r3
10001c5c:	2330      	movs	r3, #48	; 0x30
10001c5e:	469b      	mov	fp, r3
10001c60:	44ab      	add	fp, r5
10001c62:	4642      	mov	r2, r8
10001c64:	4659      	mov	r1, fp
10001c66:	3b2f      	subs	r3, #47	; 0x2f
10001c68:	f7fe fc7e 	bl	10000568 <disk_write>
10001c6c:	2800      	cmp	r0, #0
10001c6e:	d000      	beq.n	10001c72 <dir_register+0x2b6>
10001c70:	e714      	b.n	10001a9c <dir_register+0xe0>
10001c72:	4642      	mov	r2, r8
10001c74:	6a29      	ldr	r1, [r5, #32]
10001c76:	69ab      	ldr	r3, [r5, #24]
10001c78:	7128      	strb	r0, [r5, #4]
10001c7a:	1a52      	subs	r2, r2, r1
10001c7c:	429a      	cmp	r2, r3
10001c7e:	d21b      	bcs.n	10001cb8 <dir_register+0x2fc>
10001c80:	78ea      	ldrb	r2, [r5, #3]
10001c82:	4691      	mov	r9, r2
10001c84:	2a01      	cmp	r2, #1
10001c86:	d917      	bls.n	10001cb8 <dir_register+0x2fc>
10001c88:	4642      	mov	r2, r8
10001c8a:	0031      	movs	r1, r6
10001c8c:	46a0      	mov	r8, r4
10001c8e:	002e      	movs	r6, r5
10001c90:	0014      	movs	r4, r2
10001c92:	464d      	mov	r5, r9
10001c94:	46b9      	mov	r9, r7
10001c96:	465f      	mov	r7, fp
10001c98:	468b      	mov	fp, r1
10001c9a:	e000      	b.n	10001c9e <dir_register+0x2e2>
10001c9c:	69b3      	ldr	r3, [r6, #24]
10001c9e:	18e4      	adds	r4, r4, r3
10001ca0:	0022      	movs	r2, r4
10001ca2:	2301      	movs	r3, #1
10001ca4:	0039      	movs	r1, r7
10001ca6:	7870      	ldrb	r0, [r6, #1]
10001ca8:	3d01      	subs	r5, #1
10001caa:	f7fe fc5d 	bl	10000568 <disk_write>
10001cae:	2d01      	cmp	r5, #1
10001cb0:	d1f4      	bne.n	10001c9c <dir_register+0x2e0>
10001cb2:	4644      	mov	r4, r8
10001cb4:	464f      	mov	r7, r9
10001cb6:	465e      	mov	r6, fp
10001cb8:	6835      	ldr	r5, [r6, #0]
10001cba:	e75e      	b.n	10001b7a <dir_register+0x1be>
10001cbc:	2100      	movs	r1, #0
10001cbe:	78aa      	ldrb	r2, [r5, #2]
10001cc0:	4688      	mov	r8, r1
10001cc2:	e770      	b.n	10001ba6 <dir_register+0x1ea>

10001cc4 <f_mount>:
10001cc4:	b500      	push	{lr}
10001cc6:	b083      	sub	sp, #12
10001cc8:	1e0b      	subs	r3, r1, #0
10001cca:	9001      	str	r0, [sp, #4]
10001ccc:	9100      	str	r1, [sp, #0]
10001cce:	d01a      	beq.n	10001d06 <f_mount+0x42>
10001cd0:	7809      	ldrb	r1, [r1, #0]
10001cd2:	3930      	subs	r1, #48	; 0x30
10001cd4:	2908      	cmp	r1, #8
10001cd6:	d90f      	bls.n	10001cf8 <f_mount+0x34>
10001cd8:	4910      	ldr	r1, [pc, #64]	; (10001d1c <f_mount+0x58>)
10001cda:	680b      	ldr	r3, [r1, #0]
10001cdc:	2b00      	cmp	r3, #0
10001cde:	d001      	beq.n	10001ce4 <f_mount+0x20>
10001ce0:	2000      	movs	r0, #0
10001ce2:	7018      	strb	r0, [r3, #0]
10001ce4:	9b01      	ldr	r3, [sp, #4]
10001ce6:	2b00      	cmp	r3, #0
10001ce8:	d015      	beq.n	10001d16 <f_mount+0x52>
10001cea:	2000      	movs	r0, #0
10001cec:	600b      	str	r3, [r1, #0]
10001cee:	7018      	strb	r0, [r3, #0]
10001cf0:	2a01      	cmp	r2, #1
10001cf2:	d00a      	beq.n	10001d0a <f_mount+0x46>
10001cf4:	b003      	add	sp, #12
10001cf6:	bd00      	pop	{pc}
10001cf8:	7858      	ldrb	r0, [r3, #1]
10001cfa:	283a      	cmp	r0, #58	; 0x3a
10001cfc:	d1ec      	bne.n	10001cd8 <f_mount+0x14>
10001cfe:	3302      	adds	r3, #2
10001d00:	9300      	str	r3, [sp, #0]
10001d02:	2900      	cmp	r1, #0
10001d04:	d0e8      	beq.n	10001cd8 <f_mount+0x14>
10001d06:	200b      	movs	r0, #11
10001d08:	e7f4      	b.n	10001cf4 <f_mount+0x30>
10001d0a:	2200      	movs	r2, #0
10001d0c:	4669      	mov	r1, sp
10001d0e:	a801      	add	r0, sp, #4
10001d10:	f7fe fdd6 	bl	100008c0 <find_volume>
10001d14:	e7ee      	b.n	10001cf4 <f_mount+0x30>
10001d16:	2000      	movs	r0, #0
10001d18:	600b      	str	r3, [r1, #0]
10001d1a:	e7eb      	b.n	10001cf4 <f_mount+0x30>
10001d1c:	20000840 	.word	0x20000840

10001d20 <f_open>:
10001d20:	b5f0      	push	{r4, r5, r6, r7, lr}
10001d22:	4647      	mov	r7, r8
10001d24:	46ce      	mov	lr, r9
10001d26:	b580      	push	{r7, lr}
10001d28:	b08d      	sub	sp, #52	; 0x34
10001d2a:	0004      	movs	r4, r0
10001d2c:	0017      	movs	r7, r2
10001d2e:	9101      	str	r1, [sp, #4]
10001d30:	2800      	cmp	r0, #0
10001d32:	d068      	beq.n	10001e06 <f_open+0xe6>
10001d34:	2300      	movs	r3, #0
10001d36:	221e      	movs	r2, #30
10001d38:	6003      	str	r3, [r0, #0]
10001d3a:	403a      	ands	r2, r7
10001d3c:	a901      	add	r1, sp, #4
10001d3e:	a805      	add	r0, sp, #20
10001d40:	f7fe fdbe 	bl	100008c0 <find_volume>
10001d44:	1e05      	subs	r5, r0, #0
10001d46:	d005      	beq.n	10001d54 <f_open+0x34>
10001d48:	0028      	movs	r0, r5
10001d4a:	b00d      	add	sp, #52	; 0x34
10001d4c:	bcc0      	pop	{r6, r7}
10001d4e:	46b9      	mov	r9, r7
10001d50:	46b0      	mov	r8, r6
10001d52:	bdf0      	pop	{r4, r5, r6, r7, pc}
10001d54:	231f      	movs	r3, #31
10001d56:	403b      	ands	r3, r7
10001d58:	4698      	mov	r8, r3
10001d5a:	9901      	ldr	r1, [sp, #4]
10001d5c:	ab02      	add	r3, sp, #8
10001d5e:	a805      	add	r0, sp, #20
10001d60:	930b      	str	r3, [sp, #44]	; 0x2c
10001d62:	f7ff fbc3 	bl	100014ec <follow_path>
10001d66:	2800      	cmp	r0, #0
10001d68:	d10f      	bne.n	10001d8a <f_open+0x6a>
10001d6a:	9e0a      	ldr	r6, [sp, #40]	; 0x28
10001d6c:	2e00      	cmp	r6, #0
10001d6e:	d100      	bne.n	10001d72 <f_open+0x52>
10001d70:	e09b      	b.n	10001eaa <f_open+0x18a>
10001d72:	231c      	movs	r3, #28
10001d74:	423b      	tst	r3, r7
10001d76:	d00f      	beq.n	10001d98 <f_open+0x78>
10001d78:	2211      	movs	r2, #17
10001d7a:	7af3      	ldrb	r3, [r6, #11]
10001d7c:	421a      	tst	r2, r3
10001d7e:	d146      	bne.n	10001e0e <f_open+0xee>
10001d80:	077b      	lsls	r3, r7, #29
10001d82:	d400      	bmi.n	10001d86 <f_open+0x66>
10001d84:	e08d      	b.n	10001ea2 <f_open+0x182>
10001d86:	2508      	movs	r5, #8
10001d88:	e7de      	b.n	10001d48 <f_open+0x28>
10001d8a:	231c      	movs	r3, #28
10001d8c:	423b      	tst	r3, r7
10001d8e:	d001      	beq.n	10001d94 <f_open+0x74>
10001d90:	2804      	cmp	r0, #4
10001d92:	d03e      	beq.n	10001e12 <f_open+0xf2>
10001d94:	0005      	movs	r5, r0
10001d96:	e7d7      	b.n	10001d48 <f_open+0x28>
10001d98:	7af3      	ldrb	r3, [r6, #11]
10001d9a:	06da      	lsls	r2, r3, #27
10001d9c:	d435      	bmi.n	10001e0a <f_open+0xea>
10001d9e:	07ba      	lsls	r2, r7, #30
10001da0:	d501      	bpl.n	10001da6 <f_open+0x86>
10001da2:	07db      	lsls	r3, r3, #31
10001da4:	d433      	bmi.n	10001e0e <f_open+0xee>
10001da6:	2208      	movs	r2, #8
10001da8:	9805      	ldr	r0, [sp, #20]
10001daa:	403a      	ands	r2, r7
10001dac:	d003      	beq.n	10001db6 <f_open+0x96>
10001dae:	4642      	mov	r2, r8
10001db0:	2320      	movs	r3, #32
10001db2:	431a      	orrs	r2, r3
10001db4:	4690      	mov	r8, r2
10001db6:	6ac3      	ldr	r3, [r0, #44]	; 0x2c
10001db8:	6226      	str	r6, [r4, #32]
10001dba:	61e3      	str	r3, [r4, #28]
10001dbc:	4643      	mov	r3, r8
10001dbe:	71a3      	strb	r3, [r4, #6]
10001dc0:	2300      	movs	r3, #0
10001dc2:	71e3      	strb	r3, [r4, #7]
10001dc4:	7ef3      	ldrb	r3, [r6, #27]
10001dc6:	7eb2      	ldrb	r2, [r6, #26]
10001dc8:	021b      	lsls	r3, r3, #8
10001dca:	4313      	orrs	r3, r2
10001dcc:	7802      	ldrb	r2, [r0, #0]
10001dce:	2a03      	cmp	r2, #3
10001dd0:	d105      	bne.n	10001dde <f_open+0xbe>
10001dd2:	7d72      	ldrb	r2, [r6, #21]
10001dd4:	7d37      	ldrb	r7, [r6, #20]
10001dd6:	0212      	lsls	r2, r2, #8
10001dd8:	433a      	orrs	r2, r7
10001dda:	0412      	lsls	r2, r2, #16
10001ddc:	4313      	orrs	r3, r2
10001dde:	6123      	str	r3, [r4, #16]
10001de0:	7f71      	ldrb	r1, [r6, #29]
10001de2:	7f33      	ldrb	r3, [r6, #28]
10001de4:	7fb2      	ldrb	r2, [r6, #30]
10001de6:	0209      	lsls	r1, r1, #8
10001de8:	4319      	orrs	r1, r3
10001dea:	7ff3      	ldrb	r3, [r6, #31]
10001dec:	0412      	lsls	r2, r2, #16
10001dee:	4311      	orrs	r1, r2
10001df0:	061b      	lsls	r3, r3, #24
10001df2:	430b      	orrs	r3, r1
10001df4:	60e3      	str	r3, [r4, #12]
10001df6:	2300      	movs	r3, #0
10001df8:	6020      	str	r0, [r4, #0]
10001dfa:	60a3      	str	r3, [r4, #8]
10001dfc:	61a3      	str	r3, [r4, #24]
10001dfe:	6263      	str	r3, [r4, #36]	; 0x24
10001e00:	88c3      	ldrh	r3, [r0, #6]
10001e02:	80a3      	strh	r3, [r4, #4]
10001e04:	e7a0      	b.n	10001d48 <f_open+0x28>
10001e06:	2509      	movs	r5, #9
10001e08:	e79e      	b.n	10001d48 <f_open+0x28>
10001e0a:	2504      	movs	r5, #4
10001e0c:	e79c      	b.n	10001d48 <f_open+0x28>
10001e0e:	2507      	movs	r5, #7
10001e10:	e79a      	b.n	10001d48 <f_open+0x28>
10001e12:	a805      	add	r0, sp, #20
10001e14:	f7ff fdd2 	bl	100019bc <dir_register>
10001e18:	4642      	mov	r2, r8
10001e1a:	2308      	movs	r3, #8
10001e1c:	431a      	orrs	r2, r3
10001e1e:	4690      	mov	r8, r2
10001e20:	9e0a      	ldr	r6, [sp, #40]	; 0x28
10001e22:	2800      	cmp	r0, #0
10001e24:	d1b6      	bne.n	10001d94 <f_open+0x74>
10001e26:	f7fe fbdd 	bl	100005e4 <get_fattime>
10001e2a:	b283      	uxth	r3, r0
10001e2c:	0a1b      	lsrs	r3, r3, #8
10001e2e:	73f3      	strb	r3, [r6, #15]
10001e30:	0c03      	lsrs	r3, r0, #16
10001e32:	7433      	strb	r3, [r6, #16]
10001e34:	2300      	movs	r3, #0
10001e36:	73b0      	strb	r0, [r6, #14]
10001e38:	0e00      	lsrs	r0, r0, #24
10001e3a:	7470      	strb	r0, [r6, #17]
10001e3c:	9805      	ldr	r0, [sp, #20]
10001e3e:	7ef7      	ldrb	r7, [r6, #27]
10001e40:	72f3      	strb	r3, [r6, #11]
10001e42:	7733      	strb	r3, [r6, #28]
10001e44:	7773      	strb	r3, [r6, #29]
10001e46:	77b3      	strb	r3, [r6, #30]
10001e48:	77f3      	strb	r3, [r6, #31]
10001e4a:	7eb2      	ldrb	r2, [r6, #26]
10001e4c:	7803      	ldrb	r3, [r0, #0]
10001e4e:	023f      	lsls	r7, r7, #8
10001e50:	4317      	orrs	r7, r2
10001e52:	2b03      	cmp	r3, #3
10001e54:	d105      	bne.n	10001e62 <f_open+0x142>
10001e56:	7d73      	ldrb	r3, [r6, #21]
10001e58:	7d31      	ldrb	r1, [r6, #20]
10001e5a:	021b      	lsls	r3, r3, #8
10001e5c:	430b      	orrs	r3, r1
10001e5e:	041b      	lsls	r3, r3, #16
10001e60:	431f      	orrs	r7, r3
10001e62:	2300      	movs	r3, #0
10001e64:	76b3      	strb	r3, [r6, #26]
10001e66:	76f3      	strb	r3, [r6, #27]
10001e68:	7533      	strb	r3, [r6, #20]
10001e6a:	7573      	strb	r3, [r6, #21]
10001e6c:	3301      	adds	r3, #1
10001e6e:	7103      	strb	r3, [r0, #4]
10001e70:	2f00      	cmp	r7, #0
10001e72:	d09c      	beq.n	10001dae <f_open+0x8e>
10001e74:	2f01      	cmp	r7, #1
10001e76:	d01a      	beq.n	10001eae <f_open+0x18e>
10001e78:	6943      	ldr	r3, [r0, #20]
10001e7a:	429f      	cmp	r7, r3
10001e7c:	d217      	bcs.n	10001eae <f_open+0x18e>
10001e7e:	6ac3      	ldr	r3, [r0, #44]	; 0x2c
10001e80:	0039      	movs	r1, r7
10001e82:	4699      	mov	r9, r3
10001e84:	f7ff fcf0 	bl	10001868 <remove_chain.part.0>
10001e88:	2800      	cmp	r0, #0
10001e8a:	d183      	bne.n	10001d94 <f_open+0x74>
10001e8c:	9805      	ldr	r0, [sp, #20]
10001e8e:	3f01      	subs	r7, #1
10001e90:	4649      	mov	r1, r9
10001e92:	60c7      	str	r7, [r0, #12]
10001e94:	f7fe fcd4 	bl	10000840 <move_window>
10001e98:	2800      	cmp	r0, #0
10001e9a:	d000      	beq.n	10001e9e <f_open+0x17e>
10001e9c:	e77a      	b.n	10001d94 <f_open+0x74>
10001e9e:	9805      	ldr	r0, [sp, #20]
10001ea0:	e785      	b.n	10001dae <f_open+0x8e>
10001ea2:	073b      	lsls	r3, r7, #28
10001ea4:	d4bf      	bmi.n	10001e26 <f_open+0x106>
10001ea6:	9805      	ldr	r0, [sp, #20]
10001ea8:	e785      	b.n	10001db6 <f_open+0x96>
10001eaa:	2506      	movs	r5, #6
10001eac:	e74c      	b.n	10001d48 <f_open+0x28>
10001eae:	2502      	movs	r5, #2
10001eb0:	e74a      	b.n	10001d48 <f_open+0x28>
10001eb2:	46c0      	nop			; (mov r8, r8)

10001eb4 <f_read>:
10001eb4:	b5f8      	push	{r3, r4, r5, r6, r7, lr}
10001eb6:	001d      	movs	r5, r3
10001eb8:	2300      	movs	r3, #0
10001eba:	0004      	movs	r4, r0
10001ebc:	000e      	movs	r6, r1
10001ebe:	0017      	movs	r7, r2
10001ec0:	602b      	str	r3, [r5, #0]
10001ec2:	2800      	cmp	r0, #0
10001ec4:	d01e      	beq.n	10001f04 <f_read+0x50>
10001ec6:	6803      	ldr	r3, [r0, #0]
10001ec8:	2b00      	cmp	r3, #0
10001eca:	d01b      	beq.n	10001f04 <f_read+0x50>
10001ecc:	781a      	ldrb	r2, [r3, #0]
10001ece:	2a00      	cmp	r2, #0
10001ed0:	d018      	beq.n	10001f04 <f_read+0x50>
10001ed2:	8882      	ldrh	r2, [r0, #4]
10001ed4:	88d9      	ldrh	r1, [r3, #6]
10001ed6:	2009      	movs	r0, #9
10001ed8:	4291      	cmp	r1, r2
10001eda:	d000      	beq.n	10001ede <f_read+0x2a>
10001edc:	bdf8      	pop	{r3, r4, r5, r6, r7, pc}
10001ede:	7858      	ldrb	r0, [r3, #1]
10001ee0:	f7fe fb26 	bl	10000530 <disk_status>
10001ee4:	2301      	movs	r3, #1
10001ee6:	4203      	tst	r3, r0
10001ee8:	d110      	bne.n	10001f0c <f_read+0x58>
10001eea:	79e0      	ldrb	r0, [r4, #7]
10001eec:	2800      	cmp	r0, #0
10001eee:	d1f5      	bne.n	10001edc <f_read+0x28>
10001ef0:	79a2      	ldrb	r2, [r4, #6]
10001ef2:	4213      	tst	r3, r2
10001ef4:	d008      	beq.n	10001f08 <f_read+0x54>
10001ef6:	002b      	movs	r3, r5
10001ef8:	003a      	movs	r2, r7
10001efa:	0031      	movs	r1, r6
10001efc:	0020      	movs	r0, r4
10001efe:	f7fe ff21 	bl	10000d44 <f_read.part.0>
10001f02:	e7eb      	b.n	10001edc <f_read+0x28>
10001f04:	2009      	movs	r0, #9
10001f06:	e7e9      	b.n	10001edc <f_read+0x28>
10001f08:	2007      	movs	r0, #7
10001f0a:	e7e7      	b.n	10001edc <f_read+0x28>
10001f0c:	2003      	movs	r0, #3
10001f0e:	e7e5      	b.n	10001edc <f_read+0x28>

10001f10 <f_close>:
10001f10:	b5f8      	push	{r3, r4, r5, r6, r7, lr}
10001f12:	1e04      	subs	r4, r0, #0
10001f14:	d060      	beq.n	10001fd8 <f_close+0xc8>
10001f16:	6803      	ldr	r3, [r0, #0]
10001f18:	2b00      	cmp	r3, #0
10001f1a:	d05d      	beq.n	10001fd8 <f_close+0xc8>
10001f1c:	781a      	ldrb	r2, [r3, #0]
10001f1e:	2a00      	cmp	r2, #0
10001f20:	d05a      	beq.n	10001fd8 <f_close+0xc8>
10001f22:	88d9      	ldrh	r1, [r3, #6]
10001f24:	8882      	ldrh	r2, [r0, #4]
10001f26:	2509      	movs	r5, #9
10001f28:	4291      	cmp	r1, r2
10001f2a:	d001      	beq.n	10001f30 <f_close+0x20>
10001f2c:	0028      	movs	r0, r5
10001f2e:	bdf8      	pop	{r3, r4, r5, r6, r7, pc}
10001f30:	7858      	ldrb	r0, [r3, #1]
10001f32:	f7fe fafd 	bl	10000530 <disk_status>
10001f36:	2301      	movs	r3, #1
10001f38:	001d      	movs	r5, r3
10001f3a:	4005      	ands	r5, r0
10001f3c:	4203      	tst	r3, r0
10001f3e:	d14d      	bne.n	10001fdc <f_close+0xcc>
10001f40:	79a3      	ldrb	r3, [r4, #6]
10001f42:	069a      	lsls	r2, r3, #26
10001f44:	d545      	bpl.n	10001fd2 <f_close+0xc2>
10001f46:	2640      	movs	r6, #64	; 0x40
10001f48:	421e      	tst	r6, r3
10001f4a:	d00c      	beq.n	10001f66 <f_close+0x56>
10001f4c:	0021      	movs	r1, r4
10001f4e:	6823      	ldr	r3, [r4, #0]
10001f50:	69a2      	ldr	r2, [r4, #24]
10001f52:	7858      	ldrb	r0, [r3, #1]
10001f54:	3128      	adds	r1, #40	; 0x28
10001f56:	2301      	movs	r3, #1
10001f58:	f7fe fb06 	bl	10000568 <disk_write>
10001f5c:	2800      	cmp	r0, #0
10001f5e:	d13f      	bne.n	10001fe0 <f_close+0xd0>
10001f60:	79a3      	ldrb	r3, [r4, #6]
10001f62:	43b3      	bics	r3, r6
10001f64:	71a3      	strb	r3, [r4, #6]
10001f66:	69e1      	ldr	r1, [r4, #28]
10001f68:	6820      	ldr	r0, [r4, #0]
10001f6a:	f7fe fc69 	bl	10000840 <move_window>
10001f6e:	1e07      	subs	r7, r0, #0
10001f70:	d001      	beq.n	10001f76 <f_close+0x66>
10001f72:	0005      	movs	r5, r0
10001f74:	e7da      	b.n	10001f2c <f_close+0x1c>
10001f76:	2220      	movs	r2, #32
10001f78:	6a26      	ldr	r6, [r4, #32]
10001f7a:	7af3      	ldrb	r3, [r6, #11]
10001f7c:	4313      	orrs	r3, r2
10001f7e:	72f3      	strb	r3, [r6, #11]
10001f80:	68e3      	ldr	r3, [r4, #12]
10001f82:	7733      	strb	r3, [r6, #28]
10001f84:	89a3      	ldrh	r3, [r4, #12]
10001f86:	0a1b      	lsrs	r3, r3, #8
10001f88:	7773      	strb	r3, [r6, #29]
10001f8a:	89e3      	ldrh	r3, [r4, #14]
10001f8c:	77b3      	strb	r3, [r6, #30]
10001f8e:	7be3      	ldrb	r3, [r4, #15]
10001f90:	77f3      	strb	r3, [r6, #31]
10001f92:	6923      	ldr	r3, [r4, #16]
10001f94:	76b3      	strb	r3, [r6, #26]
10001f96:	b29a      	uxth	r2, r3
10001f98:	0c1b      	lsrs	r3, r3, #16
10001f9a:	0a12      	lsrs	r2, r2, #8
10001f9c:	7533      	strb	r3, [r6, #20]
10001f9e:	0a1b      	lsrs	r3, r3, #8
10001fa0:	76f2      	strb	r2, [r6, #27]
10001fa2:	7573      	strb	r3, [r6, #21]
10001fa4:	f7fe fb1e 	bl	100005e4 <get_fattime>
10001fa8:	2220      	movs	r2, #32
10001faa:	b283      	uxth	r3, r0
10001fac:	0a1b      	lsrs	r3, r3, #8
10001fae:	75b0      	strb	r0, [r6, #22]
10001fb0:	75f3      	strb	r3, [r6, #23]
10001fb2:	0c03      	lsrs	r3, r0, #16
10001fb4:	0e00      	lsrs	r0, r0, #24
10001fb6:	7633      	strb	r3, [r6, #24]
10001fb8:	7670      	strb	r0, [r6, #25]
10001fba:	74b7      	strb	r7, [r6, #18]
10001fbc:	74f7      	strb	r7, [r6, #19]
10001fbe:	79a3      	ldrb	r3, [r4, #6]
10001fc0:	6820      	ldr	r0, [r4, #0]
10001fc2:	4393      	bics	r3, r2
10001fc4:	71a3      	strb	r3, [r4, #6]
10001fc6:	2301      	movs	r3, #1
10001fc8:	7103      	strb	r3, [r0, #4]
10001fca:	f7ff f879 	bl	100010c0 <sync_fs>
10001fce:	2800      	cmp	r0, #0
10001fd0:	d108      	bne.n	10001fe4 <f_close+0xd4>
10001fd2:	2300      	movs	r3, #0
10001fd4:	6023      	str	r3, [r4, #0]
10001fd6:	e7a9      	b.n	10001f2c <f_close+0x1c>
10001fd8:	2509      	movs	r5, #9
10001fda:	e7a7      	b.n	10001f2c <f_close+0x1c>
10001fdc:	2503      	movs	r5, #3
10001fde:	e7a5      	b.n	10001f2c <f_close+0x1c>
10001fe0:	2501      	movs	r5, #1
10001fe2:	e7a3      	b.n	10001f2c <f_close+0x1c>
10001fe4:	0005      	movs	r5, r0
10001fe6:	e7a1      	b.n	10001f2c <f_close+0x1c>

10001fe8 <SD_Init>:
10001fe8:	b510      	push	{r4, lr}
10001fea:	2101      	movs	r1, #1
10001fec:	2016      	movs	r0, #22
10001fee:	f7fe f9af 	bl	10000350 <DEV_Digital_Write>
10001ff2:	2101      	movs	r1, #1
10001ff4:	2009      	movs	r0, #9
10001ff6:	f7fe f9ab 	bl	10000350 <DEV_Digital_Write>
10001ffa:	2101      	movs	r1, #1
10001ffc:	2010      	movs	r0, #16
10001ffe:	f7fe f9a7 	bl	10000350 <DEV_Digital_Write>
10002002:	490d      	ldr	r1, [pc, #52]	; (10002038 <SD_Init+0x50>)
10002004:	2201      	movs	r2, #1
10002006:	480d      	ldr	r0, [pc, #52]	; (1000203c <SD_Init+0x54>)
10002008:	f7ff fe5c 	bl	10001cc4 <f_mount>
1000200c:	4b0c      	ldr	r3, [pc, #48]	; (10002040 <SD_Init+0x58>)
1000200e:	1e01      	subs	r1, r0, #0
10002010:	7018      	strb	r0, [r3, #0]
10002012:	d003      	beq.n	1000201c <SD_Init+0x34>
10002014:	480b      	ldr	r0, [pc, #44]	; (10002044 <SD_Init+0x5c>)
10002016:	f007 fa43 	bl	100094a0 <__wrap_printf>
1000201a:	bd10      	pop	{r4, pc}
1000201c:	480a      	ldr	r0, [pc, #40]	; (10002048 <SD_Init+0x60>)
1000201e:	f007 f99d 	bl	1000935c <__wrap_puts>
10002022:	4b0a      	ldr	r3, [pc, #40]	; (1000204c <SD_Init+0x64>)
10002024:	4a0a      	ldr	r2, [pc, #40]	; (10002050 <SD_Init+0x68>)
10002026:	0019      	movs	r1, r3
10002028:	3114      	adds	r1, #20
1000202a:	31ff      	adds	r1, #255	; 0xff
1000202c:	c208      	stmia	r2!, {r3}
1000202e:	330b      	adds	r3, #11
10002030:	428b      	cmp	r3, r1
10002032:	d1fb      	bne.n	1000202c <SD_Init+0x44>
10002034:	e7f1      	b.n	1000201a <SD_Init+0x32>
10002036:	46c0      	nop			; (mov r8, r8)
10002038:	1000d04c 	.word	0x1000d04c
1000203c:	20001634 	.word	0x20001634
10002040:	20027151 	.word	0x20027151
10002044:	1000d050 	.word	0x1000d050
10002048:	1000d088 	.word	0x1000d088
1000204c:	20001114 	.word	0x20001114
10002050:	20001868 	.word	0x20001868

10002054 <LCD_SetGramScanWay>:
10002054:	b570      	push	{r4, r5, r6, lr}
10002056:	4c25      	ldr	r4, [pc, #148]	; (100020ec <LCD_SetGramScanWay+0x98>)
10002058:	7823      	ldrb	r3, [r4, #0]
1000205a:	2b52      	cmp	r3, #82	; 0x52
1000205c:	d000      	beq.n	10002060 <LCD_SetGramScanWay+0xc>
1000205e:	bd70      	pop	{r4, r5, r6, pc}
10002060:	1e43      	subs	r3, r0, #1
10002062:	b2db      	uxtb	r3, r3
10002064:	2500      	movs	r5, #0
10002066:	2b06      	cmp	r3, #6
10002068:	d931      	bls.n	100020ce <LCD_SetGramScanWay+0x7a>
1000206a:	4b21      	ldr	r3, [pc, #132]	; (100020f0 <LCD_SetGramScanWay+0x9c>)
1000206c:	7118      	strb	r0, [r3, #4]
1000206e:	2803      	cmp	r0, #3
10002070:	d929      	bls.n	100020c6 <LCD_SetGramScanWay+0x72>
10002072:	22a0      	movs	r2, #160	; 0xa0
10002074:	21f0      	movs	r1, #240	; 0xf0
10002076:	0052      	lsls	r2, r2, #1
10002078:	8059      	strh	r1, [r3, #2]
1000207a:	2008      	movs	r0, #8
1000207c:	2100      	movs	r1, #0
1000207e:	801a      	strh	r2, [r3, #0]
10002080:	f7fe f966 	bl	10000350 <DEV_Digital_Write>
10002084:	2100      	movs	r1, #0
10002086:	2009      	movs	r0, #9
10002088:	f7fe f962 	bl	10000350 <DEV_Digital_Write>
1000208c:	2036      	movs	r0, #54	; 0x36
1000208e:	f7fe fa13 	bl	100004b8 <SPI4W_Write_Byte>
10002092:	2101      	movs	r1, #1
10002094:	2009      	movs	r0, #9
10002096:	f7fe f95b 	bl	10000350 <DEV_Digital_Write>
1000209a:	7823      	ldrb	r3, [r4, #0]
1000209c:	2101      	movs	r1, #1
1000209e:	2008      	movs	r0, #8
100020a0:	2b52      	cmp	r3, #82	; 0x52
100020a2:	d01c      	beq.n	100020de <LCD_SetGramScanWay+0x8a>
100020a4:	f7fe f954 	bl	10000350 <DEV_Digital_Write>
100020a8:	2009      	movs	r0, #9
100020aa:	2100      	movs	r1, #0
100020ac:	f7fe f950 	bl	10000350 <DEV_Digital_Write>
100020b0:	2000      	movs	r0, #0
100020b2:	f7fe fa01 	bl	100004b8 <SPI4W_Write_Byte>
100020b6:	0028      	movs	r0, r5
100020b8:	f7fe f9fe 	bl	100004b8 <SPI4W_Write_Byte>
100020bc:	2101      	movs	r1, #1
100020be:	2009      	movs	r0, #9
100020c0:	f7fe f946 	bl	10000350 <DEV_Digital_Write>
100020c4:	e7cb      	b.n	1000205e <LCD_SetGramScanWay+0xa>
100020c6:	21a0      	movs	r1, #160	; 0xa0
100020c8:	22f0      	movs	r2, #240	; 0xf0
100020ca:	0049      	lsls	r1, r1, #1
100020cc:	e7d4      	b.n	10002078 <LCD_SetGramScanWay+0x24>
100020ce:	4a09      	ldr	r2, [pc, #36]	; (100020f4 <LCD_SetGramScanWay+0xa0>)
100020d0:	005b      	lsls	r3, r3, #1
100020d2:	5cd5      	ldrb	r5, [r2, r3]
100020d4:	4b06      	ldr	r3, [pc, #24]	; (100020f0 <LCD_SetGramScanWay+0x9c>)
100020d6:	7118      	strb	r0, [r3, #4]
100020d8:	2803      	cmp	r0, #3
100020da:	d9f4      	bls.n	100020c6 <LCD_SetGramScanWay+0x72>
100020dc:	e7c9      	b.n	10002072 <LCD_SetGramScanWay+0x1e>
100020de:	f7fe f937 	bl	10000350 <DEV_Digital_Write>
100020e2:	2100      	movs	r1, #0
100020e4:	2009      	movs	r0, #9
100020e6:	f7fe f933 	bl	10000350 <DEV_Digital_Write>
100020ea:	e7e4      	b.n	100020b6 <LCD_SetGramScanWay+0x62>
100020ec:	20000400 	.word	0x20000400
100020f0:	200270e4 	.word	0x200270e4
100020f4:	1000d0b0 	.word	0x1000d0b0

100020f8 <LCD_Init>:
100020f8:	b570      	push	{r4, r5, r6, lr}
100020fa:	2101      	movs	r1, #1
100020fc:	b082      	sub	sp, #8
100020fe:	0005      	movs	r5, r0
10002100:	200f      	movs	r0, #15
10002102:	f7fe f925 	bl	10000350 <DEV_Digital_Write>
10002106:	20fa      	movs	r0, #250	; 0xfa
10002108:	0040      	lsls	r0, r0, #1
1000210a:	f7fe f9f7 	bl	100004fc <Driver_Delay_ms>
1000210e:	2100      	movs	r1, #0
10002110:	200f      	movs	r0, #15
10002112:	f7fe f91d 	bl	10000350 <DEV_Digital_Write>
10002116:	20fa      	movs	r0, #250	; 0xfa
10002118:	0040      	lsls	r0, r0, #1
1000211a:	f7fe f9ef 	bl	100004fc <Driver_Delay_ms>
1000211e:	2101      	movs	r1, #1
10002120:	200f      	movs	r0, #15
10002122:	f7fe f915 	bl	10000350 <DEV_Digital_Write>
10002126:	20fa      	movs	r0, #250	; 0xfa
10002128:	0040      	lsls	r0, r0, #1
1000212a:	f7fe f9e7 	bl	100004fc <Driver_Delay_ms>
1000212e:	466b      	mov	r3, sp
10002130:	1d9e      	adds	r6, r3, #6
10002132:	2300      	movs	r3, #0
10002134:	2100      	movs	r1, #0
10002136:	2009      	movs	r0, #9
10002138:	7033      	strb	r3, [r6, #0]
1000213a:	f7fe f909 	bl	10000350 <DEV_Digital_Write>
1000213e:	2100      	movs	r1, #0
10002140:	2008      	movs	r0, #8
10002142:	f7fe f905 	bl	10000350 <DEV_Digital_Write>
10002146:	20dc      	movs	r0, #220	; 0xdc
10002148:	f7fe f9b6 	bl	100004b8 <SPI4W_Write_Byte>
1000214c:	466b      	mov	r3, sp
1000214e:	1ddc      	adds	r4, r3, #7
10002150:	0022      	movs	r2, r4
10002152:	2301      	movs	r3, #1
10002154:	0031      	movs	r1, r6
10002156:	48f4      	ldr	r0, [pc, #976]	; (10002528 <LCD_Init+0x430>)
10002158:	f00a f8ee 	bl	1000c338 <__spi_write_read_blocking_veneer>
1000215c:	2101      	movs	r1, #1
1000215e:	2009      	movs	r0, #9
10002160:	f7fe f8f6 	bl	10000350 <DEV_Digital_Write>
10002164:	7823      	ldrb	r3, [r4, #0]
10002166:	4cf1      	ldr	r4, [pc, #964]	; (1000252c <LCD_Init+0x434>)
10002168:	2100      	movs	r1, #0
1000216a:	2008      	movs	r0, #8
1000216c:	7023      	strb	r3, [r4, #0]
1000216e:	2b52      	cmp	r3, #82	; 0x52
10002170:	d101      	bne.n	10002176 <LCD_Init+0x7e>
10002172:	f000 fc00 	bl	10002976 <LCD_Init+0x87e>
10002176:	f7fe f8eb 	bl	10000350 <DEV_Digital_Write>
1000217a:	2100      	movs	r1, #0
1000217c:	2009      	movs	r0, #9
1000217e:	f7fe f8e7 	bl	10000350 <DEV_Digital_Write>
10002182:	2021      	movs	r0, #33	; 0x21
10002184:	f7fe f998 	bl	100004b8 <SPI4W_Write_Byte>
10002188:	2101      	movs	r1, #1
1000218a:	2009      	movs	r0, #9
1000218c:	f7fe f8e0 	bl	10000350 <DEV_Digital_Write>
10002190:	2100      	movs	r1, #0
10002192:	2008      	movs	r0, #8
10002194:	f7fe f8dc 	bl	10000350 <DEV_Digital_Write>
10002198:	2100      	movs	r1, #0
1000219a:	2009      	movs	r0, #9
1000219c:	f7fe f8d8 	bl	10000350 <DEV_Digital_Write>
100021a0:	20c2      	movs	r0, #194	; 0xc2
100021a2:	f7fe f989 	bl	100004b8 <SPI4W_Write_Byte>
100021a6:	2101      	movs	r1, #1
100021a8:	2009      	movs	r0, #9
100021aa:	f7fe f8d1 	bl	10000350 <DEV_Digital_Write>
100021ae:	7823      	ldrb	r3, [r4, #0]
100021b0:	2101      	movs	r1, #1
100021b2:	2008      	movs	r0, #8
100021b4:	2b52      	cmp	r3, #82	; 0x52
100021b6:	d100      	bne.n	100021ba <LCD_Init+0xc2>
100021b8:	e3d6      	b.n	10002968 <LCD_Init+0x870>
100021ba:	f7fe f8c9 	bl	10000350 <DEV_Digital_Write>
100021be:	2009      	movs	r0, #9
100021c0:	2100      	movs	r1, #0
100021c2:	f7fe f8c5 	bl	10000350 <DEV_Digital_Write>
100021c6:	2000      	movs	r0, #0
100021c8:	f7fe f976 	bl	100004b8 <SPI4W_Write_Byte>
100021cc:	2033      	movs	r0, #51	; 0x33
100021ce:	f7fe f973 	bl	100004b8 <SPI4W_Write_Byte>
100021d2:	2101      	movs	r1, #1
100021d4:	2009      	movs	r0, #9
100021d6:	f7fe f8bb 	bl	10000350 <DEV_Digital_Write>
100021da:	2100      	movs	r1, #0
100021dc:	2008      	movs	r0, #8
100021de:	f7fe f8b7 	bl	10000350 <DEV_Digital_Write>
100021e2:	2100      	movs	r1, #0
100021e4:	2009      	movs	r0, #9
100021e6:	f7fe f8b3 	bl	10000350 <DEV_Digital_Write>
100021ea:	20c5      	movs	r0, #197	; 0xc5
100021ec:	f7fe f964 	bl	100004b8 <SPI4W_Write_Byte>
100021f0:	2101      	movs	r1, #1
100021f2:	2009      	movs	r0, #9
100021f4:	f7fe f8ac 	bl	10000350 <DEV_Digital_Write>
100021f8:	7823      	ldrb	r3, [r4, #0]
100021fa:	2101      	movs	r1, #1
100021fc:	2008      	movs	r0, #8
100021fe:	2b52      	cmp	r3, #82	; 0x52
10002200:	d101      	bne.n	10002206 <LCD_Init+0x10e>
10002202:	f001 f9e1 	bl	100035c8 <LCD_Init+0x14d0>
10002206:	f7fe f8a3 	bl	10000350 <DEV_Digital_Write>
1000220a:	2009      	movs	r0, #9
1000220c:	2100      	movs	r1, #0
1000220e:	f7fe f89f 	bl	10000350 <DEV_Digital_Write>
10002212:	2000      	movs	r0, #0
10002214:	f7fe f950 	bl	100004b8 <SPI4W_Write_Byte>
10002218:	2000      	movs	r0, #0
1000221a:	f7fe f94d 	bl	100004b8 <SPI4W_Write_Byte>
1000221e:	2101      	movs	r1, #1
10002220:	2009      	movs	r0, #9
10002222:	f7fe f895 	bl	10000350 <DEV_Digital_Write>
10002226:	7823      	ldrb	r3, [r4, #0]
10002228:	2101      	movs	r1, #1
1000222a:	2008      	movs	r0, #8
1000222c:	2b52      	cmp	r3, #82	; 0x52
1000222e:	d101      	bne.n	10002234 <LCD_Init+0x13c>
10002230:	f001 f9c2 	bl	100035b8 <LCD_Init+0x14c0>
10002234:	f7fe f88c 	bl	10000350 <DEV_Digital_Write>
10002238:	2009      	movs	r0, #9
1000223a:	2100      	movs	r1, #0
1000223c:	f7fe f888 	bl	10000350 <DEV_Digital_Write>
10002240:	2000      	movs	r0, #0
10002242:	f7fe f939 	bl	100004b8 <SPI4W_Write_Byte>
10002246:	201e      	movs	r0, #30
10002248:	f7fe f936 	bl	100004b8 <SPI4W_Write_Byte>
1000224c:	2101      	movs	r1, #1
1000224e:	2009      	movs	r0, #9
10002250:	f7fe f87e 	bl	10000350 <DEV_Digital_Write>
10002254:	7823      	ldrb	r3, [r4, #0]
10002256:	2101      	movs	r1, #1
10002258:	2008      	movs	r0, #8
1000225a:	2b52      	cmp	r3, #82	; 0x52
1000225c:	d101      	bne.n	10002262 <LCD_Init+0x16a>
1000225e:	f001 f9a3 	bl	100035a8 <LCD_Init+0x14b0>
10002262:	f7fe f875 	bl	10000350 <DEV_Digital_Write>
10002266:	2009      	movs	r0, #9
10002268:	2100      	movs	r1, #0
1000226a:	f7fe f871 	bl	10000350 <DEV_Digital_Write>
1000226e:	2000      	movs	r0, #0
10002270:	f7fe f922 	bl	100004b8 <SPI4W_Write_Byte>
10002274:	2080      	movs	r0, #128	; 0x80
10002276:	f7fe f91f 	bl	100004b8 <SPI4W_Write_Byte>
1000227a:	2101      	movs	r1, #1
1000227c:	2009      	movs	r0, #9
1000227e:	f7fe f867 	bl	10000350 <DEV_Digital_Write>
10002282:	2100      	movs	r1, #0
10002284:	2008      	movs	r0, #8
10002286:	f7fe f863 	bl	10000350 <DEV_Digital_Write>
1000228a:	2100      	movs	r1, #0
1000228c:	2009      	movs	r0, #9
1000228e:	f7fe f85f 	bl	10000350 <DEV_Digital_Write>
10002292:	20b1      	movs	r0, #177	; 0xb1
10002294:	f7fe f910 	bl	100004b8 <SPI4W_Write_Byte>
10002298:	2101      	movs	r1, #1
1000229a:	2009      	movs	r0, #9
1000229c:	f7fe f858 	bl	10000350 <DEV_Digital_Write>
100022a0:	7823      	ldrb	r3, [r4, #0]
100022a2:	2101      	movs	r1, #1
100022a4:	2008      	movs	r0, #8
100022a6:	2b52      	cmp	r3, #82	; 0x52
100022a8:	d101      	bne.n	100022ae <LCD_Init+0x1b6>
100022aa:	f001 f975 	bl	10003598 <LCD_Init+0x14a0>
100022ae:	f7fe f84f 	bl	10000350 <DEV_Digital_Write>
100022b2:	2009      	movs	r0, #9
100022b4:	2100      	movs	r1, #0
100022b6:	f7fe f84b 	bl	10000350 <DEV_Digital_Write>
100022ba:	2000      	movs	r0, #0
100022bc:	f7fe f8fc 	bl	100004b8 <SPI4W_Write_Byte>
100022c0:	20b0      	movs	r0, #176	; 0xb0
100022c2:	f7fe f8f9 	bl	100004b8 <SPI4W_Write_Byte>
100022c6:	2101      	movs	r1, #1
100022c8:	2009      	movs	r0, #9
100022ca:	f7fe f841 	bl	10000350 <DEV_Digital_Write>
100022ce:	2100      	movs	r1, #0
100022d0:	2008      	movs	r0, #8
100022d2:	f7fe f83d 	bl	10000350 <DEV_Digital_Write>
100022d6:	2100      	movs	r1, #0
100022d8:	2009      	movs	r0, #9
100022da:	f7fe f839 	bl	10000350 <DEV_Digital_Write>
100022de:	2036      	movs	r0, #54	; 0x36
100022e0:	f7fe f8ea 	bl	100004b8 <SPI4W_Write_Byte>
100022e4:	2101      	movs	r1, #1
100022e6:	2009      	movs	r0, #9
100022e8:	f7fe f832 	bl	10000350 <DEV_Digital_Write>
100022ec:	7823      	ldrb	r3, [r4, #0]
100022ee:	2101      	movs	r1, #1
100022f0:	2008      	movs	r0, #8
100022f2:	2b52      	cmp	r3, #82	; 0x52
100022f4:	d101      	bne.n	100022fa <LCD_Init+0x202>
100022f6:	f001 f947 	bl	10003588 <LCD_Init+0x1490>
100022fa:	f7fe f829 	bl	10000350 <DEV_Digital_Write>
100022fe:	2009      	movs	r0, #9
10002300:	2100      	movs	r1, #0
10002302:	f7fe f825 	bl	10000350 <DEV_Digital_Write>
10002306:	2000      	movs	r0, #0
10002308:	f7fe f8d6 	bl	100004b8 <SPI4W_Write_Byte>
1000230c:	2028      	movs	r0, #40	; 0x28
1000230e:	f7fe f8d3 	bl	100004b8 <SPI4W_Write_Byte>
10002312:	2101      	movs	r1, #1
10002314:	2009      	movs	r0, #9
10002316:	f7fe f81b 	bl	10000350 <DEV_Digital_Write>
1000231a:	2100      	movs	r1, #0
1000231c:	2008      	movs	r0, #8
1000231e:	f7fe f817 	bl	10000350 <DEV_Digital_Write>
10002322:	2100      	movs	r1, #0
10002324:	2009      	movs	r0, #9
10002326:	f7fe f813 	bl	10000350 <DEV_Digital_Write>
1000232a:	20e0      	movs	r0, #224	; 0xe0
1000232c:	f7fe f8c4 	bl	100004b8 <SPI4W_Write_Byte>
10002330:	2101      	movs	r1, #1
10002332:	2009      	movs	r0, #9
10002334:	f7fe f80c 	bl	10000350 <DEV_Digital_Write>
10002338:	7823      	ldrb	r3, [r4, #0]
1000233a:	2101      	movs	r1, #1
1000233c:	2008      	movs	r0, #8
1000233e:	2b52      	cmp	r3, #82	; 0x52
10002340:	d101      	bne.n	10002346 <LCD_Init+0x24e>
10002342:	f001 f919 	bl	10003578 <LCD_Init+0x1480>
10002346:	f7fe f803 	bl	10000350 <DEV_Digital_Write>
1000234a:	2009      	movs	r0, #9
1000234c:	2100      	movs	r1, #0
1000234e:	f7fd ffff 	bl	10000350 <DEV_Digital_Write>
10002352:	2000      	movs	r0, #0
10002354:	f7fe f8b0 	bl	100004b8 <SPI4W_Write_Byte>
10002358:	2000      	movs	r0, #0
1000235a:	f7fe f8ad 	bl	100004b8 <SPI4W_Write_Byte>
1000235e:	2101      	movs	r1, #1
10002360:	2009      	movs	r0, #9
10002362:	f7fd fff5 	bl	10000350 <DEV_Digital_Write>
10002366:	7823      	ldrb	r3, [r4, #0]
10002368:	2101      	movs	r1, #1
1000236a:	2008      	movs	r0, #8
1000236c:	2b52      	cmp	r3, #82	; 0x52
1000236e:	d101      	bne.n	10002374 <LCD_Init+0x27c>
10002370:	f001 f8fa 	bl	10003568 <LCD_Init+0x1470>
10002374:	f7fd ffec 	bl	10000350 <DEV_Digital_Write>
10002378:	2009      	movs	r0, #9
1000237a:	2100      	movs	r1, #0
1000237c:	f7fd ffe8 	bl	10000350 <DEV_Digital_Write>
10002380:	2000      	movs	r0, #0
10002382:	f7fe f899 	bl	100004b8 <SPI4W_Write_Byte>
10002386:	2013      	movs	r0, #19
10002388:	f7fe f896 	bl	100004b8 <SPI4W_Write_Byte>
1000238c:	2101      	movs	r1, #1
1000238e:	2009      	movs	r0, #9
10002390:	f7fd ffde 	bl	10000350 <DEV_Digital_Write>
10002394:	7823      	ldrb	r3, [r4, #0]
10002396:	2101      	movs	r1, #1
10002398:	2008      	movs	r0, #8
1000239a:	2b52      	cmp	r3, #82	; 0x52
1000239c:	d101      	bne.n	100023a2 <LCD_Init+0x2aa>
1000239e:	f001 f8db 	bl	10003558 <LCD_Init+0x1460>
100023a2:	f7fd ffd5 	bl	10000350 <DEV_Digital_Write>
100023a6:	2009      	movs	r0, #9
100023a8:	2100      	movs	r1, #0
100023aa:	f7fd ffd1 	bl	10000350 <DEV_Digital_Write>
100023ae:	2000      	movs	r0, #0
100023b0:	f7fe f882 	bl	100004b8 <SPI4W_Write_Byte>
100023b4:	2018      	movs	r0, #24
100023b6:	f7fe f87f 	bl	100004b8 <SPI4W_Write_Byte>
100023ba:	2101      	movs	r1, #1
100023bc:	2009      	movs	r0, #9
100023be:	f7fd ffc7 	bl	10000350 <DEV_Digital_Write>
100023c2:	7823      	ldrb	r3, [r4, #0]
100023c4:	2101      	movs	r1, #1
100023c6:	2008      	movs	r0, #8
100023c8:	2b52      	cmp	r3, #82	; 0x52
100023ca:	d101      	bne.n	100023d0 <LCD_Init+0x2d8>
100023cc:	f001 f8bc 	bl	10003548 <LCD_Init+0x1450>
100023d0:	f7fd ffbe 	bl	10000350 <DEV_Digital_Write>
100023d4:	2009      	movs	r0, #9
100023d6:	2100      	movs	r1, #0
100023d8:	f7fd ffba 	bl	10000350 <DEV_Digital_Write>
100023dc:	2000      	movs	r0, #0
100023de:	f7fe f86b 	bl	100004b8 <SPI4W_Write_Byte>
100023e2:	2004      	movs	r0, #4
100023e4:	f7fe f868 	bl	100004b8 <SPI4W_Write_Byte>
100023e8:	2101      	movs	r1, #1
100023ea:	2009      	movs	r0, #9
100023ec:	f7fd ffb0 	bl	10000350 <DEV_Digital_Write>
100023f0:	7823      	ldrb	r3, [r4, #0]
100023f2:	2101      	movs	r1, #1
100023f4:	2008      	movs	r0, #8
100023f6:	2b52      	cmp	r3, #82	; 0x52
100023f8:	d101      	bne.n	100023fe <LCD_Init+0x306>
100023fa:	f001 f89d 	bl	10003538 <LCD_Init+0x1440>
100023fe:	f7fd ffa7 	bl	10000350 <DEV_Digital_Write>
10002402:	2009      	movs	r0, #9
10002404:	2100      	movs	r1, #0
10002406:	f7fd ffa3 	bl	10000350 <DEV_Digital_Write>
1000240a:	2000      	movs	r0, #0
1000240c:	f7fe f854 	bl	100004b8 <SPI4W_Write_Byte>
10002410:	200f      	movs	r0, #15
10002412:	f7fe f851 	bl	100004b8 <SPI4W_Write_Byte>
10002416:	2101      	movs	r1, #1
10002418:	2009      	movs	r0, #9
1000241a:	f7fd ff99 	bl	10000350 <DEV_Digital_Write>
1000241e:	7823      	ldrb	r3, [r4, #0]
10002420:	2101      	movs	r1, #1
10002422:	2008      	movs	r0, #8
10002424:	2b52      	cmp	r3, #82	; 0x52
10002426:	d101      	bne.n	1000242c <LCD_Init+0x334>
10002428:	f001 f87e 	bl	10003528 <LCD_Init+0x1430>
1000242c:	f7fd ff90 	bl	10000350 <DEV_Digital_Write>
10002430:	2009      	movs	r0, #9
10002432:	2100      	movs	r1, #0
10002434:	f7fd ff8c 	bl	10000350 <DEV_Digital_Write>
10002438:	2000      	movs	r0, #0
1000243a:	f7fe f83d 	bl	100004b8 <SPI4W_Write_Byte>
1000243e:	2006      	movs	r0, #6
10002440:	f7fe f83a 	bl	100004b8 <SPI4W_Write_Byte>
10002444:	2101      	movs	r1, #1
10002446:	2009      	movs	r0, #9
10002448:	f7fd ff82 	bl	10000350 <DEV_Digital_Write>
1000244c:	7823      	ldrb	r3, [r4, #0]
1000244e:	2101      	movs	r1, #1
10002450:	2008      	movs	r0, #8
10002452:	2b52      	cmp	r3, #82	; 0x52
10002454:	d101      	bne.n	1000245a <LCD_Init+0x362>
10002456:	f001 f85f 	bl	10003518 <LCD_Init+0x1420>
1000245a:	f7fd ff79 	bl	10000350 <DEV_Digital_Write>
1000245e:	2009      	movs	r0, #9
10002460:	2100      	movs	r1, #0
10002462:	f7fd ff75 	bl	10000350 <DEV_Digital_Write>
10002466:	2000      	movs	r0, #0
10002468:	f7fe f826 	bl	100004b8 <SPI4W_Write_Byte>
1000246c:	203a      	movs	r0, #58	; 0x3a
1000246e:	f7fe f823 	bl	100004b8 <SPI4W_Write_Byte>
10002472:	2101      	movs	r1, #1
10002474:	2009      	movs	r0, #9
10002476:	f7fd ff6b 	bl	10000350 <DEV_Digital_Write>
1000247a:	7823      	ldrb	r3, [r4, #0]
1000247c:	2101      	movs	r1, #1
1000247e:	2008      	movs	r0, #8
10002480:	2b52      	cmp	r3, #82	; 0x52
10002482:	d101      	bne.n	10002488 <LCD_Init+0x390>
10002484:	f001 f840 	bl	10003508 <LCD_Init+0x1410>
10002488:	f7fd ff62 	bl	10000350 <DEV_Digital_Write>
1000248c:	2009      	movs	r0, #9
1000248e:	2100      	movs	r1, #0
10002490:	f7fd ff5e 	bl	10000350 <DEV_Digital_Write>
10002494:	2000      	movs	r0, #0
10002496:	f7fe f80f 	bl	100004b8 <SPI4W_Write_Byte>
1000249a:	2056      	movs	r0, #86	; 0x56
1000249c:	f7fe f80c 	bl	100004b8 <SPI4W_Write_Byte>
100024a0:	2101      	movs	r1, #1
100024a2:	2009      	movs	r0, #9
100024a4:	f7fd ff54 	bl	10000350 <DEV_Digital_Write>
100024a8:	7823      	ldrb	r3, [r4, #0]
100024aa:	2101      	movs	r1, #1
100024ac:	2008      	movs	r0, #8
100024ae:	2b52      	cmp	r3, #82	; 0x52
100024b0:	d101      	bne.n	100024b6 <LCD_Init+0x3be>
100024b2:	f001 f821 	bl	100034f8 <LCD_Init+0x1400>
100024b6:	f7fd ff4b 	bl	10000350 <DEV_Digital_Write>
100024ba:	2009      	movs	r0, #9
100024bc:	2100      	movs	r1, #0
100024be:	f7fd ff47 	bl	10000350 <DEV_Digital_Write>
100024c2:	2000      	movs	r0, #0
100024c4:	f7fd fff8 	bl	100004b8 <SPI4W_Write_Byte>
100024c8:	204d      	movs	r0, #77	; 0x4d
100024ca:	f7fd fff5 	bl	100004b8 <SPI4W_Write_Byte>
100024ce:	2101      	movs	r1, #1
100024d0:	2009      	movs	r0, #9
100024d2:	f7fd ff3d 	bl	10000350 <DEV_Digital_Write>
100024d6:	7823      	ldrb	r3, [r4, #0]
100024d8:	2101      	movs	r1, #1
100024da:	2008      	movs	r0, #8
100024dc:	2b52      	cmp	r3, #82	; 0x52
100024de:	d101      	bne.n	100024e4 <LCD_Init+0x3ec>
100024e0:	f001 f802 	bl	100034e8 <LCD_Init+0x13f0>
100024e4:	f7fd ff34 	bl	10000350 <DEV_Digital_Write>
100024e8:	2009      	movs	r0, #9
100024ea:	2100      	movs	r1, #0
100024ec:	f7fd ff30 	bl	10000350 <DEV_Digital_Write>
100024f0:	2000      	movs	r0, #0
100024f2:	f7fd ffe1 	bl	100004b8 <SPI4W_Write_Byte>
100024f6:	2003      	movs	r0, #3
100024f8:	f7fd ffde 	bl	100004b8 <SPI4W_Write_Byte>
100024fc:	2101      	movs	r1, #1
100024fe:	2009      	movs	r0, #9
10002500:	f7fd ff26 	bl	10000350 <DEV_Digital_Write>
10002504:	7823      	ldrb	r3, [r4, #0]
10002506:	2101      	movs	r1, #1
10002508:	2008      	movs	r0, #8
1000250a:	2b52      	cmp	r3, #82	; 0x52
1000250c:	d101      	bne.n	10002512 <LCD_Init+0x41a>
1000250e:	f000 ffe3 	bl	100034d8 <LCD_Init+0x13e0>
10002512:	f7fd ff1d 	bl	10000350 <DEV_Digital_Write>
10002516:	2009      	movs	r0, #9
10002518:	2100      	movs	r1, #0
1000251a:	f7fd ff19 	bl	10000350 <DEV_Digital_Write>
1000251e:	2000      	movs	r0, #0
10002520:	f7fd ffca 	bl	100004b8 <SPI4W_Write_Byte>
10002524:	e004      	b.n	10002530 <LCD_Init+0x438>
10002526:	46c0      	nop			; (mov r8, r8)
10002528:	40040000 	.word	0x40040000
1000252c:	20000400 	.word	0x20000400
10002530:	200a      	movs	r0, #10
10002532:	f7fd ffc1 	bl	100004b8 <SPI4W_Write_Byte>
10002536:	2101      	movs	r1, #1
10002538:	2009      	movs	r0, #9
1000253a:	f7fd ff09 	bl	10000350 <DEV_Digital_Write>
1000253e:	7823      	ldrb	r3, [r4, #0]
10002540:	2101      	movs	r1, #1
10002542:	2008      	movs	r0, #8
10002544:	2b52      	cmp	r3, #82	; 0x52
10002546:	d101      	bne.n	1000254c <LCD_Init+0x454>
10002548:	f000 ffbe 	bl	100034c8 <LCD_Init+0x13d0>
1000254c:	f7fd ff00 	bl	10000350 <DEV_Digital_Write>
10002550:	2009      	movs	r0, #9
10002552:	2100      	movs	r1, #0
10002554:	f7fd fefc 	bl	10000350 <DEV_Digital_Write>
10002558:	2000      	movs	r0, #0
1000255a:	f7fd ffad 	bl	100004b8 <SPI4W_Write_Byte>
1000255e:	2006      	movs	r0, #6
10002560:	f7fd ffaa 	bl	100004b8 <SPI4W_Write_Byte>
10002564:	2101      	movs	r1, #1
10002566:	2009      	movs	r0, #9
10002568:	f7fd fef2 	bl	10000350 <DEV_Digital_Write>
1000256c:	7823      	ldrb	r3, [r4, #0]
1000256e:	2101      	movs	r1, #1
10002570:	2008      	movs	r0, #8
10002572:	2b52      	cmp	r3, #82	; 0x52
10002574:	d101      	bne.n	1000257a <LCD_Init+0x482>
10002576:	f000 ff9f 	bl	100034b8 <LCD_Init+0x13c0>
1000257a:	f7fd fee9 	bl	10000350 <DEV_Digital_Write>
1000257e:	2009      	movs	r0, #9
10002580:	2100      	movs	r1, #0
10002582:	f7fd fee5 	bl	10000350 <DEV_Digital_Write>
10002586:	2000      	movs	r0, #0
10002588:	f7fd ff96 	bl	100004b8 <SPI4W_Write_Byte>
1000258c:	2030      	movs	r0, #48	; 0x30
1000258e:	f7fd ff93 	bl	100004b8 <SPI4W_Write_Byte>
10002592:	2101      	movs	r1, #1
10002594:	2009      	movs	r0, #9
10002596:	f7fd fedb 	bl	10000350 <DEV_Digital_Write>
1000259a:	7823      	ldrb	r3, [r4, #0]
1000259c:	2101      	movs	r1, #1
1000259e:	2008      	movs	r0, #8
100025a0:	2b52      	cmp	r3, #82	; 0x52
100025a2:	d101      	bne.n	100025a8 <LCD_Init+0x4b0>
100025a4:	f000 ff80 	bl	100034a8 <LCD_Init+0x13b0>
100025a8:	f7fd fed2 	bl	10000350 <DEV_Digital_Write>
100025ac:	2009      	movs	r0, #9
100025ae:	2100      	movs	r1, #0
100025b0:	f7fd fece 	bl	10000350 <DEV_Digital_Write>
100025b4:	2000      	movs	r0, #0
100025b6:	f7fd ff7f 	bl	100004b8 <SPI4W_Write_Byte>
100025ba:	203e      	movs	r0, #62	; 0x3e
100025bc:	f7fd ff7c 	bl	100004b8 <SPI4W_Write_Byte>
100025c0:	2101      	movs	r1, #1
100025c2:	2009      	movs	r0, #9
100025c4:	f7fd fec4 	bl	10000350 <DEV_Digital_Write>
100025c8:	7823      	ldrb	r3, [r4, #0]
100025ca:	2101      	movs	r1, #1
100025cc:	2008      	movs	r0, #8
100025ce:	2b52      	cmp	r3, #82	; 0x52
100025d0:	d101      	bne.n	100025d6 <LCD_Init+0x4de>
100025d2:	f000 ff61 	bl	10003498 <LCD_Init+0x13a0>
100025d6:	f7fd febb 	bl	10000350 <DEV_Digital_Write>
100025da:	2009      	movs	r0, #9
100025dc:	2100      	movs	r1, #0
100025de:	f7fd feb7 	bl	10000350 <DEV_Digital_Write>
100025e2:	2000      	movs	r0, #0
100025e4:	f7fd ff68 	bl	100004b8 <SPI4W_Write_Byte>
100025e8:	200f      	movs	r0, #15
100025ea:	f7fd ff65 	bl	100004b8 <SPI4W_Write_Byte>
100025ee:	2101      	movs	r1, #1
100025f0:	2009      	movs	r0, #9
100025f2:	f7fd fead 	bl	10000350 <DEV_Digital_Write>
100025f6:	2100      	movs	r1, #0
100025f8:	2008      	movs	r0, #8
100025fa:	f7fd fea9 	bl	10000350 <DEV_Digital_Write>
100025fe:	2100      	movs	r1, #0
10002600:	2009      	movs	r0, #9
10002602:	f7fd fea5 	bl	10000350 <DEV_Digital_Write>
10002606:	20e1      	movs	r0, #225	; 0xe1
10002608:	f7fd ff56 	bl	100004b8 <SPI4W_Write_Byte>
1000260c:	2101      	movs	r1, #1
1000260e:	2009      	movs	r0, #9
10002610:	f7fd fe9e 	bl	10000350 <DEV_Digital_Write>
10002614:	7823      	ldrb	r3, [r4, #0]
10002616:	2101      	movs	r1, #1
10002618:	2008      	movs	r0, #8
1000261a:	2b52      	cmp	r3, #82	; 0x52
1000261c:	d101      	bne.n	10002622 <LCD_Init+0x52a>
1000261e:	f000 ff33 	bl	10003488 <LCD_Init+0x1390>
10002622:	f7fd fe95 	bl	10000350 <DEV_Digital_Write>
10002626:	2009      	movs	r0, #9
10002628:	2100      	movs	r1, #0
1000262a:	f7fd fe91 	bl	10000350 <DEV_Digital_Write>
1000262e:	2000      	movs	r0, #0
10002630:	f7fd ff42 	bl	100004b8 <SPI4W_Write_Byte>
10002634:	2000      	movs	r0, #0
10002636:	f7fd ff3f 	bl	100004b8 <SPI4W_Write_Byte>
1000263a:	2101      	movs	r1, #1
1000263c:	2009      	movs	r0, #9
1000263e:	f7fd fe87 	bl	10000350 <DEV_Digital_Write>
10002642:	7823      	ldrb	r3, [r4, #0]
10002644:	2101      	movs	r1, #1
10002646:	2008      	movs	r0, #8
10002648:	2b52      	cmp	r3, #82	; 0x52
1000264a:	d101      	bne.n	10002650 <LCD_Init+0x558>
1000264c:	f000 ff14 	bl	10003478 <LCD_Init+0x1380>
10002650:	f7fd fe7e 	bl	10000350 <DEV_Digital_Write>
10002654:	2009      	movs	r0, #9
10002656:	2100      	movs	r1, #0
10002658:	f7fd fe7a 	bl	10000350 <DEV_Digital_Write>
1000265c:	2000      	movs	r0, #0
1000265e:	f7fd ff2b 	bl	100004b8 <SPI4W_Write_Byte>
10002662:	2013      	movs	r0, #19
10002664:	f7fd ff28 	bl	100004b8 <SPI4W_Write_Byte>
10002668:	2101      	movs	r1, #1
1000266a:	2009      	movs	r0, #9
1000266c:	f7fd fe70 	bl	10000350 <DEV_Digital_Write>
10002670:	7823      	ldrb	r3, [r4, #0]
10002672:	2101      	movs	r1, #1
10002674:	2008      	movs	r0, #8
10002676:	2b52      	cmp	r3, #82	; 0x52
10002678:	d101      	bne.n	1000267e <LCD_Init+0x586>
1000267a:	f000 fef5 	bl	10003468 <LCD_Init+0x1370>
1000267e:	f7fd fe67 	bl	10000350 <DEV_Digital_Write>
10002682:	2009      	movs	r0, #9
10002684:	2100      	movs	r1, #0
10002686:	f7fd fe63 	bl	10000350 <DEV_Digital_Write>
1000268a:	2000      	movs	r0, #0
1000268c:	f7fd ff14 	bl	100004b8 <SPI4W_Write_Byte>
10002690:	2018      	movs	r0, #24
10002692:	f7fd ff11 	bl	100004b8 <SPI4W_Write_Byte>
10002696:	2101      	movs	r1, #1
10002698:	2009      	movs	r0, #9
1000269a:	f7fd fe59 	bl	10000350 <DEV_Digital_Write>
1000269e:	7823      	ldrb	r3, [r4, #0]
100026a0:	2101      	movs	r1, #1
100026a2:	2008      	movs	r0, #8
100026a4:	2b52      	cmp	r3, #82	; 0x52
100026a6:	d101      	bne.n	100026ac <LCD_Init+0x5b4>
100026a8:	f000 fed6 	bl	10003458 <LCD_Init+0x1360>
100026ac:	f7fd fe50 	bl	10000350 <DEV_Digital_Write>
100026b0:	2009      	movs	r0, #9
100026b2:	2100      	movs	r1, #0
100026b4:	f7fd fe4c 	bl	10000350 <DEV_Digital_Write>
100026b8:	2000      	movs	r0, #0
100026ba:	f7fd fefd 	bl	100004b8 <SPI4W_Write_Byte>
100026be:	2001      	movs	r0, #1
100026c0:	f7fd fefa 	bl	100004b8 <SPI4W_Write_Byte>
100026c4:	2101      	movs	r1, #1
100026c6:	2009      	movs	r0, #9
100026c8:	f7fd fe42 	bl	10000350 <DEV_Digital_Write>
100026cc:	7823      	ldrb	r3, [r4, #0]
100026ce:	2101      	movs	r1, #1
100026d0:	2008      	movs	r0, #8
100026d2:	2b52      	cmp	r3, #82	; 0x52
100026d4:	d101      	bne.n	100026da <LCD_Init+0x5e2>
100026d6:	f000 feb7 	bl	10003448 <LCD_Init+0x1350>
100026da:	f7fd fe39 	bl	10000350 <DEV_Digital_Write>
100026de:	2009      	movs	r0, #9
100026e0:	2100      	movs	r1, #0
100026e2:	f7fd fe35 	bl	10000350 <DEV_Digital_Write>
100026e6:	2000      	movs	r0, #0
100026e8:	f7fd fee6 	bl	100004b8 <SPI4W_Write_Byte>
100026ec:	2011      	movs	r0, #17
100026ee:	f7fd fee3 	bl	100004b8 <SPI4W_Write_Byte>
100026f2:	2101      	movs	r1, #1
100026f4:	2009      	movs	r0, #9
100026f6:	f7fd fe2b 	bl	10000350 <DEV_Digital_Write>
100026fa:	7823      	ldrb	r3, [r4, #0]
100026fc:	2101      	movs	r1, #1
100026fe:	2008      	movs	r0, #8
10002700:	2b52      	cmp	r3, #82	; 0x52
10002702:	d101      	bne.n	10002708 <LCD_Init+0x610>
10002704:	f000 fe98 	bl	10003438 <LCD_Init+0x1340>
10002708:	f7fd fe22 	bl	10000350 <DEV_Digital_Write>
1000270c:	2009      	movs	r0, #9
1000270e:	2100      	movs	r1, #0
10002710:	f7fd fe1e 	bl	10000350 <DEV_Digital_Write>
10002714:	2000      	movs	r0, #0
10002716:	f7fd fecf 	bl	100004b8 <SPI4W_Write_Byte>
1000271a:	2006      	movs	r0, #6
1000271c:	f7fd fecc 	bl	100004b8 <SPI4W_Write_Byte>
10002720:	2101      	movs	r1, #1
10002722:	2009      	movs	r0, #9
10002724:	f7fd fe14 	bl	10000350 <DEV_Digital_Write>
10002728:	7823      	ldrb	r3, [r4, #0]
1000272a:	2101      	movs	r1, #1
1000272c:	2008      	movs	r0, #8
1000272e:	2b52      	cmp	r3, #82	; 0x52
10002730:	d101      	bne.n	10002736 <LCD_Init+0x63e>
10002732:	f000 fe79 	bl	10003428 <LCD_Init+0x1330>
10002736:	f7fd fe0b 	bl	10000350 <DEV_Digital_Write>
1000273a:	2009      	movs	r0, #9
1000273c:	2100      	movs	r1, #0
1000273e:	f7fd fe07 	bl	10000350 <DEV_Digital_Write>
10002742:	2000      	movs	r0, #0
10002744:	f7fd feb8 	bl	100004b8 <SPI4W_Write_Byte>
10002748:	2038      	movs	r0, #56	; 0x38
1000274a:	f7fd feb5 	bl	100004b8 <SPI4W_Write_Byte>
1000274e:	2101      	movs	r1, #1
10002750:	2009      	movs	r0, #9
10002752:	f7fd fdfd 	bl	10000350 <DEV_Digital_Write>
10002756:	7823      	ldrb	r3, [r4, #0]
10002758:	2101      	movs	r1, #1
1000275a:	2008      	movs	r0, #8
1000275c:	2b52      	cmp	r3, #82	; 0x52
1000275e:	d101      	bne.n	10002764 <LCD_Init+0x66c>
10002760:	f000 fe5a 	bl	10003418 <LCD_Init+0x1320>
10002764:	f7fd fdf4 	bl	10000350 <DEV_Digital_Write>
10002768:	2009      	movs	r0, #9
1000276a:	2100      	movs	r1, #0
1000276c:	f7fd fdf0 	bl	10000350 <DEV_Digital_Write>
10002770:	2000      	movs	r0, #0
10002772:	f7fd fea1 	bl	100004b8 <SPI4W_Write_Byte>
10002776:	2034      	movs	r0, #52	; 0x34
10002778:	f7fd fe9e 	bl	100004b8 <SPI4W_Write_Byte>
1000277c:	2101      	movs	r1, #1
1000277e:	2009      	movs	r0, #9
10002780:	f7fd fde6 	bl	10000350 <DEV_Digital_Write>
10002784:	7823      	ldrb	r3, [r4, #0]
10002786:	2101      	movs	r1, #1
10002788:	2008      	movs	r0, #8
1000278a:	2b52      	cmp	r3, #82	; 0x52
1000278c:	d101      	bne.n	10002792 <LCD_Init+0x69a>
1000278e:	f000 fe3b 	bl	10003408 <LCD_Init+0x1310>
10002792:	f7fd fddd 	bl	10000350 <DEV_Digital_Write>
10002796:	2009      	movs	r0, #9
10002798:	2100      	movs	r1, #0
1000279a:	f7fd fdd9 	bl	10000350 <DEV_Digital_Write>
1000279e:	2000      	movs	r0, #0
100027a0:	f7fd fe8a 	bl	100004b8 <SPI4W_Write_Byte>
100027a4:	204d      	movs	r0, #77	; 0x4d
100027a6:	f7fd fe87 	bl	100004b8 <SPI4W_Write_Byte>
100027aa:	2101      	movs	r1, #1
100027ac:	2009      	movs	r0, #9
100027ae:	f7fd fdcf 	bl	10000350 <DEV_Digital_Write>
100027b2:	7823      	ldrb	r3, [r4, #0]
100027b4:	2101      	movs	r1, #1
100027b6:	2008      	movs	r0, #8
100027b8:	2b52      	cmp	r3, #82	; 0x52
100027ba:	d101      	bne.n	100027c0 <LCD_Init+0x6c8>
100027bc:	f000 fe1c 	bl	100033f8 <LCD_Init+0x1300>
100027c0:	f7fd fdc6 	bl	10000350 <DEV_Digital_Write>
100027c4:	2009      	movs	r0, #9
100027c6:	2100      	movs	r1, #0
100027c8:	f7fd fdc2 	bl	10000350 <DEV_Digital_Write>
100027cc:	2000      	movs	r0, #0
100027ce:	f7fd fe73 	bl	100004b8 <SPI4W_Write_Byte>
100027d2:	2006      	movs	r0, #6
100027d4:	f7fd fe70 	bl	100004b8 <SPI4W_Write_Byte>
100027d8:	2101      	movs	r1, #1
100027da:	2009      	movs	r0, #9
100027dc:	f7fd fdb8 	bl	10000350 <DEV_Digital_Write>
100027e0:	7823      	ldrb	r3, [r4, #0]
100027e2:	2101      	movs	r1, #1
100027e4:	2008      	movs	r0, #8
100027e6:	2b52      	cmp	r3, #82	; 0x52
100027e8:	d101      	bne.n	100027ee <LCD_Init+0x6f6>
100027ea:	f000 fdfd 	bl	100033e8 <LCD_Init+0x12f0>
100027ee:	f7fd fdaf 	bl	10000350 <DEV_Digital_Write>
100027f2:	2009      	movs	r0, #9
100027f4:	2100      	movs	r1, #0
100027f6:	f7fd fdab 	bl	10000350 <DEV_Digital_Write>
100027fa:	2000      	movs	r0, #0
100027fc:	f7fd fe5c 	bl	100004b8 <SPI4W_Write_Byte>
10002800:	200d      	movs	r0, #13
10002802:	f7fd fe59 	bl	100004b8 <SPI4W_Write_Byte>
10002806:	2101      	movs	r1, #1
10002808:	2009      	movs	r0, #9
1000280a:	f7fd fda1 	bl	10000350 <DEV_Digital_Write>
1000280e:	7823      	ldrb	r3, [r4, #0]
10002810:	2101      	movs	r1, #1
10002812:	2008      	movs	r0, #8
10002814:	2b52      	cmp	r3, #82	; 0x52
10002816:	d101      	bne.n	1000281c <LCD_Init+0x724>
10002818:	f000 fdde 	bl	100033d8 <LCD_Init+0x12e0>
1000281c:	f7fd fd98 	bl	10000350 <DEV_Digital_Write>
10002820:	2009      	movs	r0, #9
10002822:	2100      	movs	r1, #0
10002824:	f7fd fd94 	bl	10000350 <DEV_Digital_Write>
10002828:	2000      	movs	r0, #0
1000282a:	f7fd fe45 	bl	100004b8 <SPI4W_Write_Byte>
1000282e:	200b      	movs	r0, #11
10002830:	f7fd fe42 	bl	100004b8 <SPI4W_Write_Byte>
10002834:	2101      	movs	r1, #1
10002836:	2009      	movs	r0, #9
10002838:	f7fd fd8a 	bl	10000350 <DEV_Digital_Write>
1000283c:	7823      	ldrb	r3, [r4, #0]
1000283e:	2101      	movs	r1, #1
10002840:	2008      	movs	r0, #8
10002842:	2b52      	cmp	r3, #82	; 0x52
10002844:	d101      	bne.n	1000284a <LCD_Init+0x752>
10002846:	f000 fdbf 	bl	100033c8 <LCD_Init+0x12d0>
1000284a:	f7fd fd81 	bl	10000350 <DEV_Digital_Write>
1000284e:	2009      	movs	r0, #9
10002850:	2100      	movs	r1, #0
10002852:	f7fd fd7d 	bl	10000350 <DEV_Digital_Write>
10002856:	2000      	movs	r0, #0
10002858:	f7fd fe2e 	bl	100004b8 <SPI4W_Write_Byte>
1000285c:	2031      	movs	r0, #49	; 0x31
1000285e:	f7fd fe2b 	bl	100004b8 <SPI4W_Write_Byte>
10002862:	2101      	movs	r1, #1
10002864:	2009      	movs	r0, #9
10002866:	f7fd fd73 	bl	10000350 <DEV_Digital_Write>
1000286a:	7823      	ldrb	r3, [r4, #0]
1000286c:	2101      	movs	r1, #1
1000286e:	2008      	movs	r0, #8
10002870:	2b52      	cmp	r3, #82	; 0x52
10002872:	d101      	bne.n	10002878 <LCD_Init+0x780>
10002874:	f000 fda0 	bl	100033b8 <LCD_Init+0x12c0>
10002878:	f7fd fd6a 	bl	10000350 <DEV_Digital_Write>
1000287c:	2009      	movs	r0, #9
1000287e:	2100      	movs	r1, #0
10002880:	f7fd fd66 	bl	10000350 <DEV_Digital_Write>
10002884:	2000      	movs	r0, #0
10002886:	f7fd fe17 	bl	100004b8 <SPI4W_Write_Byte>
1000288a:	2037      	movs	r0, #55	; 0x37
1000288c:	f7fd fe14 	bl	100004b8 <SPI4W_Write_Byte>
10002890:	2101      	movs	r1, #1
10002892:	2009      	movs	r0, #9
10002894:	f7fd fd5c 	bl	10000350 <DEV_Digital_Write>
10002898:	7823      	ldrb	r3, [r4, #0]
1000289a:	2101      	movs	r1, #1
1000289c:	2008      	movs	r0, #8
1000289e:	2b52      	cmp	r3, #82	; 0x52
100028a0:	d101      	bne.n	100028a6 <LCD_Init+0x7ae>
100028a2:	f000 fd81 	bl	100033a8 <LCD_Init+0x12b0>
100028a6:	f7fd fd53 	bl	10000350 <DEV_Digital_Write>
100028aa:	2009      	movs	r0, #9
100028ac:	2100      	movs	r1, #0
100028ae:	f7fd fd4f 	bl	10000350 <DEV_Digital_Write>
100028b2:	2000      	movs	r0, #0
100028b4:	f7fd fe00 	bl	100004b8 <SPI4W_Write_Byte>
100028b8:	200f      	movs	r0, #15
100028ba:	f7fd fdfd 	bl	100004b8 <SPI4W_Write_Byte>
100028be:	2101      	movs	r1, #1
100028c0:	2009      	movs	r0, #9
100028c2:	f7fd fd45 	bl	10000350 <DEV_Digital_Write>
100028c6:	2100      	movs	r1, #0
100028c8:	2008      	movs	r0, #8
100028ca:	f7fd fd41 	bl	10000350 <DEV_Digital_Write>
100028ce:	2100      	movs	r1, #0
100028d0:	2009      	movs	r0, #9
100028d2:	f7fd fd3d 	bl	10000350 <DEV_Digital_Write>
100028d6:	203a      	movs	r0, #58	; 0x3a
100028d8:	f7fd fdee 	bl	100004b8 <SPI4W_Write_Byte>
100028dc:	2101      	movs	r1, #1
100028de:	2009      	movs	r0, #9
100028e0:	f7fd fd36 	bl	10000350 <DEV_Digital_Write>
100028e4:	7823      	ldrb	r3, [r4, #0]
100028e6:	2101      	movs	r1, #1
100028e8:	2008      	movs	r0, #8
100028ea:	2b52      	cmp	r3, #82	; 0x52
100028ec:	d101      	bne.n	100028f2 <LCD_Init+0x7fa>
100028ee:	f000 fd53 	bl	10003398 <LCD_Init+0x12a0>
100028f2:	f7fd fd2d 	bl	10000350 <DEV_Digital_Write>
100028f6:	2009      	movs	r0, #9
100028f8:	2100      	movs	r1, #0
100028fa:	f7fd fd29 	bl	10000350 <DEV_Digital_Write>
100028fe:	2000      	movs	r0, #0
10002900:	f7fd fdda 	bl	100004b8 <SPI4W_Write_Byte>
10002904:	2055      	movs	r0, #85	; 0x55
10002906:	f7fd fdd7 	bl	100004b8 <SPI4W_Write_Byte>
1000290a:	2101      	movs	r1, #1
1000290c:	2009      	movs	r0, #9
1000290e:	f7fd fd1f 	bl	10000350 <DEV_Digital_Write>
10002912:	2100      	movs	r1, #0
10002914:	2008      	movs	r0, #8
10002916:	f7fd fd1b 	bl	10000350 <DEV_Digital_Write>
1000291a:	2100      	movs	r1, #0
1000291c:	2009      	movs	r0, #9
1000291e:	f7fd fd17 	bl	10000350 <DEV_Digital_Write>
10002922:	2011      	movs	r0, #17
10002924:	f7fd fdc8 	bl	100004b8 <SPI4W_Write_Byte>
10002928:	2009      	movs	r0, #9
1000292a:	2101      	movs	r1, #1
1000292c:	f7fd fd10 	bl	10000350 <DEV_Digital_Write>
10002930:	2078      	movs	r0, #120	; 0x78
10002932:	f7fd fde3 	bl	100004fc <Driver_Delay_ms>
10002936:	2100      	movs	r1, #0
10002938:	2008      	movs	r0, #8
1000293a:	f7fd fd09 	bl	10000350 <DEV_Digital_Write>
1000293e:	2100      	movs	r1, #0
10002940:	2009      	movs	r0, #9
10002942:	f7fd fd05 	bl	10000350 <DEV_Digital_Write>
10002946:	2029      	movs	r0, #41	; 0x29
10002948:	f7fd fdb6 	bl	100004b8 <SPI4W_Write_Byte>
1000294c:	2101      	movs	r1, #1
1000294e:	2009      	movs	r0, #9
10002950:	f7fd fcfe 	bl	10000350 <DEV_Digital_Write>
10002954:	7823      	ldrb	r3, [r4, #0]
10002956:	2b52      	cmp	r3, #82	; 0x52
10002958:	d101      	bne.n	1000295e <LCD_Init+0x866>
1000295a:	f000 fce6 	bl	1000332a <LCD_Init+0x1232>
1000295e:	2032      	movs	r0, #50	; 0x32
10002960:	f7fd fdcc 	bl	100004fc <Driver_Delay_ms>
10002964:	b002      	add	sp, #8
10002966:	bd70      	pop	{r4, r5, r6, pc}
10002968:	f7fd fcf2 	bl	10000350 <DEV_Digital_Write>
1000296c:	2100      	movs	r1, #0
1000296e:	2009      	movs	r0, #9
10002970:	f7fd fcee 	bl	10000350 <DEV_Digital_Write>
10002974:	e42a      	b.n	100021cc <LCD_Init+0xd4>
10002976:	f7fd fceb 	bl	10000350 <DEV_Digital_Write>
1000297a:	2100      	movs	r1, #0
1000297c:	2009      	movs	r0, #9
1000297e:	f7fd fce7 	bl	10000350 <DEV_Digital_Write>
10002982:	2011      	movs	r0, #17
10002984:	f7fd fd98 	bl	100004b8 <SPI4W_Write_Byte>
10002988:	2101      	movs	r1, #1
1000298a:	2009      	movs	r0, #9
1000298c:	f7fd fce0 	bl	10000350 <DEV_Digital_Write>
10002990:	2064      	movs	r0, #100	; 0x64
10002992:	f7fd fdb3 	bl	100004fc <Driver_Delay_ms>
10002996:	2100      	movs	r1, #0
10002998:	2008      	movs	r0, #8
1000299a:	f7fd fcd9 	bl	10000350 <DEV_Digital_Write>
1000299e:	2100      	movs	r1, #0
100029a0:	2009      	movs	r0, #9
100029a2:	f7fd fcd5 	bl	10000350 <DEV_Digital_Write>
100029a6:	2036      	movs	r0, #54	; 0x36
100029a8:	f7fd fd86 	bl	100004b8 <SPI4W_Write_Byte>
100029ac:	2101      	movs	r1, #1
100029ae:	2009      	movs	r0, #9
100029b0:	f7fd fcce 	bl	10000350 <DEV_Digital_Write>
100029b4:	7823      	ldrb	r3, [r4, #0]
100029b6:	2101      	movs	r1, #1
100029b8:	2008      	movs	r0, #8
100029ba:	2b52      	cmp	r3, #82	; 0x52
100029bc:	d101      	bne.n	100029c2 <LCD_Init+0x8ca>
100029be:	f000 ff6e 	bl	1000389e <LCD_Init+0x17a6>
100029c2:	f7fd fcc5 	bl	10000350 <DEV_Digital_Write>
100029c6:	2009      	movs	r0, #9
100029c8:	2100      	movs	r1, #0
100029ca:	f7fd fcc1 	bl	10000350 <DEV_Digital_Write>
100029ce:	2000      	movs	r0, #0
100029d0:	f7fd fd72 	bl	100004b8 <SPI4W_Write_Byte>
100029d4:	2000      	movs	r0, #0
100029d6:	f7fd fd6f 	bl	100004b8 <SPI4W_Write_Byte>
100029da:	2101      	movs	r1, #1
100029dc:	2009      	movs	r0, #9
100029de:	f7fd fcb7 	bl	10000350 <DEV_Digital_Write>
100029e2:	2100      	movs	r1, #0
100029e4:	2008      	movs	r0, #8
100029e6:	f7fd fcb3 	bl	10000350 <DEV_Digital_Write>
100029ea:	2100      	movs	r1, #0
100029ec:	2009      	movs	r0, #9
100029ee:	f7fd fcaf 	bl	10000350 <DEV_Digital_Write>
100029f2:	203a      	movs	r0, #58	; 0x3a
100029f4:	f7fd fd60 	bl	100004b8 <SPI4W_Write_Byte>
100029f8:	2101      	movs	r1, #1
100029fa:	2009      	movs	r0, #9
100029fc:	f7fd fca8 	bl	10000350 <DEV_Digital_Write>
10002a00:	7823      	ldrb	r3, [r4, #0]
10002a02:	2101      	movs	r1, #1
10002a04:	2008      	movs	r0, #8
10002a06:	2b52      	cmp	r3, #82	; 0x52
10002a08:	d101      	bne.n	10002a0e <LCD_Init+0x916>
10002a0a:	f000 ff40 	bl	1000388e <LCD_Init+0x1796>
10002a0e:	f7fd fc9f 	bl	10000350 <DEV_Digital_Write>
10002a12:	2009      	movs	r0, #9
10002a14:	2100      	movs	r1, #0
10002a16:	f7fd fc9b 	bl	10000350 <DEV_Digital_Write>
10002a1a:	2000      	movs	r0, #0
10002a1c:	f7fd fd4c 	bl	100004b8 <SPI4W_Write_Byte>
10002a20:	2055      	movs	r0, #85	; 0x55
10002a22:	f7fd fd49 	bl	100004b8 <SPI4W_Write_Byte>
10002a26:	2101      	movs	r1, #1
10002a28:	2009      	movs	r0, #9
10002a2a:	f7fd fc91 	bl	10000350 <DEV_Digital_Write>
10002a2e:	2100      	movs	r1, #0
10002a30:	2008      	movs	r0, #8
10002a32:	f7fd fc8d 	bl	10000350 <DEV_Digital_Write>
10002a36:	2100      	movs	r1, #0
10002a38:	2009      	movs	r0, #9
10002a3a:	f7fd fc89 	bl	10000350 <DEV_Digital_Write>
10002a3e:	20b2      	movs	r0, #178	; 0xb2
10002a40:	f7fd fd3a 	bl	100004b8 <SPI4W_Write_Byte>
10002a44:	2101      	movs	r1, #1
10002a46:	2009      	movs	r0, #9
10002a48:	f7fd fc82 	bl	10000350 <DEV_Digital_Write>
10002a4c:	7823      	ldrb	r3, [r4, #0]
10002a4e:	2101      	movs	r1, #1
10002a50:	2008      	movs	r0, #8
10002a52:	2b52      	cmp	r3, #82	; 0x52
10002a54:	d101      	bne.n	10002a5a <LCD_Init+0x962>
10002a56:	f000 ff12 	bl	1000387e <LCD_Init+0x1786>
10002a5a:	f7fd fc79 	bl	10000350 <DEV_Digital_Write>
10002a5e:	2009      	movs	r0, #9
10002a60:	2100      	movs	r1, #0
10002a62:	f7fd fc75 	bl	10000350 <DEV_Digital_Write>
10002a66:	2000      	movs	r0, #0
10002a68:	f7fd fd26 	bl	100004b8 <SPI4W_Write_Byte>
10002a6c:	200c      	movs	r0, #12
10002a6e:	f7fd fd23 	bl	100004b8 <SPI4W_Write_Byte>
10002a72:	2101      	movs	r1, #1
10002a74:	2009      	movs	r0, #9
10002a76:	f7fd fc6b 	bl	10000350 <DEV_Digital_Write>
10002a7a:	7823      	ldrb	r3, [r4, #0]
10002a7c:	2101      	movs	r1, #1
10002a7e:	2008      	movs	r0, #8
10002a80:	2b52      	cmp	r3, #82	; 0x52
10002a82:	d101      	bne.n	10002a88 <LCD_Init+0x990>
10002a84:	f000 fef3 	bl	1000386e <LCD_Init+0x1776>
10002a88:	f7fd fc62 	bl	10000350 <DEV_Digital_Write>
10002a8c:	2009      	movs	r0, #9
10002a8e:	2100      	movs	r1, #0
10002a90:	f7fd fc5e 	bl	10000350 <DEV_Digital_Write>
10002a94:	2000      	movs	r0, #0
10002a96:	f7fd fd0f 	bl	100004b8 <SPI4W_Write_Byte>
10002a9a:	200c      	movs	r0, #12
10002a9c:	f7fd fd0c 	bl	100004b8 <SPI4W_Write_Byte>
10002aa0:	2101      	movs	r1, #1
10002aa2:	2009      	movs	r0, #9
10002aa4:	f7fd fc54 	bl	10000350 <DEV_Digital_Write>
10002aa8:	7823      	ldrb	r3, [r4, #0]
10002aaa:	2101      	movs	r1, #1
10002aac:	2008      	movs	r0, #8
10002aae:	2b52      	cmp	r3, #82	; 0x52
10002ab0:	d101      	bne.n	10002ab6 <LCD_Init+0x9be>
10002ab2:	f000 fed4 	bl	1000385e <LCD_Init+0x1766>
10002ab6:	f7fd fc4b 	bl	10000350 <DEV_Digital_Write>
10002aba:	2009      	movs	r0, #9
10002abc:	2100      	movs	r1, #0
10002abe:	f7fd fc47 	bl	10000350 <DEV_Digital_Write>
10002ac2:	2000      	movs	r0, #0
10002ac4:	f7fd fcf8 	bl	100004b8 <SPI4W_Write_Byte>
10002ac8:	2000      	movs	r0, #0
10002aca:	f7fd fcf5 	bl	100004b8 <SPI4W_Write_Byte>
10002ace:	2101      	movs	r1, #1
10002ad0:	2009      	movs	r0, #9
10002ad2:	f7fd fc3d 	bl	10000350 <DEV_Digital_Write>
10002ad6:	7823      	ldrb	r3, [r4, #0]
10002ad8:	2101      	movs	r1, #1
10002ada:	2008      	movs	r0, #8
10002adc:	2b52      	cmp	r3, #82	; 0x52
10002ade:	d101      	bne.n	10002ae4 <LCD_Init+0x9ec>
10002ae0:	f000 feb5 	bl	1000384e <LCD_Init+0x1756>
10002ae4:	f7fd fc34 	bl	10000350 <DEV_Digital_Write>
10002ae8:	2009      	movs	r0, #9
10002aea:	2100      	movs	r1, #0
10002aec:	f7fd fc30 	bl	10000350 <DEV_Digital_Write>
10002af0:	2000      	movs	r0, #0
10002af2:	f7fd fce1 	bl	100004b8 <SPI4W_Write_Byte>
10002af6:	2033      	movs	r0, #51	; 0x33
10002af8:	f7fd fcde 	bl	100004b8 <SPI4W_Write_Byte>
10002afc:	2101      	movs	r1, #1
10002afe:	2009      	movs	r0, #9
10002b00:	f7fd fc26 	bl	10000350 <DEV_Digital_Write>
10002b04:	7823      	ldrb	r3, [r4, #0]
10002b06:	2101      	movs	r1, #1
10002b08:	2008      	movs	r0, #8
10002b0a:	2b52      	cmp	r3, #82	; 0x52
10002b0c:	d101      	bne.n	10002b12 <LCD_Init+0xa1a>
10002b0e:	f000 fe96 	bl	1000383e <LCD_Init+0x1746>
10002b12:	f7fd fc1d 	bl	10000350 <DEV_Digital_Write>
10002b16:	2009      	movs	r0, #9
10002b18:	2100      	movs	r1, #0
10002b1a:	f7fd fc19 	bl	10000350 <DEV_Digital_Write>
10002b1e:	2000      	movs	r0, #0
10002b20:	f7fd fcca 	bl	100004b8 <SPI4W_Write_Byte>
10002b24:	2033      	movs	r0, #51	; 0x33
10002b26:	f7fd fcc7 	bl	100004b8 <SPI4W_Write_Byte>
10002b2a:	2101      	movs	r1, #1
10002b2c:	2009      	movs	r0, #9
10002b2e:	f7fd fc0f 	bl	10000350 <DEV_Digital_Write>
10002b32:	2100      	movs	r1, #0
10002b34:	2008      	movs	r0, #8
10002b36:	f7fd fc0b 	bl	10000350 <DEV_Digital_Write>
10002b3a:	2100      	movs	r1, #0
10002b3c:	2009      	movs	r0, #9
10002b3e:	f7fd fc07 	bl	10000350 <DEV_Digital_Write>
10002b42:	20b7      	movs	r0, #183	; 0xb7
10002b44:	f7fd fcb8 	bl	100004b8 <SPI4W_Write_Byte>
10002b48:	2101      	movs	r1, #1
10002b4a:	2009      	movs	r0, #9
10002b4c:	f7fd fc00 	bl	10000350 <DEV_Digital_Write>
10002b50:	7823      	ldrb	r3, [r4, #0]
10002b52:	2101      	movs	r1, #1
10002b54:	2008      	movs	r0, #8
10002b56:	2b52      	cmp	r3, #82	; 0x52
10002b58:	d101      	bne.n	10002b5e <LCD_Init+0xa66>
10002b5a:	f000 fe68 	bl	1000382e <LCD_Init+0x1736>
10002b5e:	f7fd fbf7 	bl	10000350 <DEV_Digital_Write>
10002b62:	2009      	movs	r0, #9
10002b64:	2100      	movs	r1, #0
10002b66:	f7fd fbf3 	bl	10000350 <DEV_Digital_Write>
10002b6a:	2000      	movs	r0, #0
10002b6c:	f7fd fca4 	bl	100004b8 <SPI4W_Write_Byte>
10002b70:	2035      	movs	r0, #53	; 0x35
10002b72:	f7fd fca1 	bl	100004b8 <SPI4W_Write_Byte>
10002b76:	2101      	movs	r1, #1
10002b78:	2009      	movs	r0, #9
10002b7a:	f7fd fbe9 	bl	10000350 <DEV_Digital_Write>
10002b7e:	2100      	movs	r1, #0
10002b80:	2008      	movs	r0, #8
10002b82:	f7fd fbe5 	bl	10000350 <DEV_Digital_Write>
10002b86:	2100      	movs	r1, #0
10002b88:	2009      	movs	r0, #9
10002b8a:	f7fd fbe1 	bl	10000350 <DEV_Digital_Write>
10002b8e:	20bb      	movs	r0, #187	; 0xbb
10002b90:	f7fd fc92 	bl	100004b8 <SPI4W_Write_Byte>
10002b94:	2101      	movs	r1, #1
10002b96:	2009      	movs	r0, #9
10002b98:	f7fd fbda 	bl	10000350 <DEV_Digital_Write>
10002b9c:	7823      	ldrb	r3, [r4, #0]
10002b9e:	2101      	movs	r1, #1
10002ba0:	2008      	movs	r0, #8
10002ba2:	2b52      	cmp	r3, #82	; 0x52
10002ba4:	d101      	bne.n	10002baa <LCD_Init+0xab2>
10002ba6:	f000 fe3a 	bl	1000381e <LCD_Init+0x1726>
10002baa:	f7fd fbd1 	bl	10000350 <DEV_Digital_Write>
10002bae:	2009      	movs	r0, #9
10002bb0:	2100      	movs	r1, #0
10002bb2:	f7fd fbcd 	bl	10000350 <DEV_Digital_Write>
10002bb6:	2000      	movs	r0, #0
10002bb8:	f7fd fc7e 	bl	100004b8 <SPI4W_Write_Byte>
10002bbc:	2028      	movs	r0, #40	; 0x28
10002bbe:	f7fd fc7b 	bl	100004b8 <SPI4W_Write_Byte>
10002bc2:	2101      	movs	r1, #1
10002bc4:	2009      	movs	r0, #9
10002bc6:	f7fd fbc3 	bl	10000350 <DEV_Digital_Write>
10002bca:	2100      	movs	r1, #0
10002bcc:	2008      	movs	r0, #8
10002bce:	f7fd fbbf 	bl	10000350 <DEV_Digital_Write>
10002bd2:	2100      	movs	r1, #0
10002bd4:	2009      	movs	r0, #9
10002bd6:	f7fd fbbb 	bl	10000350 <DEV_Digital_Write>
10002bda:	20c0      	movs	r0, #192	; 0xc0
10002bdc:	f7fd fc6c 	bl	100004b8 <SPI4W_Write_Byte>
10002be0:	2101      	movs	r1, #1
10002be2:	2009      	movs	r0, #9
10002be4:	f7fd fbb4 	bl	10000350 <DEV_Digital_Write>
10002be8:	7823      	ldrb	r3, [r4, #0]
10002bea:	2101      	movs	r1, #1
10002bec:	2008      	movs	r0, #8
10002bee:	2b52      	cmp	r3, #82	; 0x52
10002bf0:	d101      	bne.n	10002bf6 <LCD_Init+0xafe>
10002bf2:	f000 fe0c 	bl	1000380e <LCD_Init+0x1716>
10002bf6:	f7fd fbab 	bl	10000350 <DEV_Digital_Write>
10002bfa:	2009      	movs	r0, #9
10002bfc:	2100      	movs	r1, #0
10002bfe:	f7fd fba7 	bl	10000350 <DEV_Digital_Write>
10002c02:	2000      	movs	r0, #0
10002c04:	f7fd fc58 	bl	100004b8 <SPI4W_Write_Byte>
10002c08:	203c      	movs	r0, #60	; 0x3c
10002c0a:	f7fd fc55 	bl	100004b8 <SPI4W_Write_Byte>
10002c0e:	2101      	movs	r1, #1
10002c10:	2009      	movs	r0, #9
10002c12:	f7fd fb9d 	bl	10000350 <DEV_Digital_Write>
10002c16:	2100      	movs	r1, #0
10002c18:	2008      	movs	r0, #8
10002c1a:	f7fd fb99 	bl	10000350 <DEV_Digital_Write>
10002c1e:	2100      	movs	r1, #0
10002c20:	2009      	movs	r0, #9
10002c22:	f7fd fb95 	bl	10000350 <DEV_Digital_Write>
10002c26:	20c2      	movs	r0, #194	; 0xc2
10002c28:	f7fd fc46 	bl	100004b8 <SPI4W_Write_Byte>
10002c2c:	2101      	movs	r1, #1
10002c2e:	2009      	movs	r0, #9
10002c30:	f7fd fb8e 	bl	10000350 <DEV_Digital_Write>
10002c34:	7823      	ldrb	r3, [r4, #0]
10002c36:	2101      	movs	r1, #1
10002c38:	2008      	movs	r0, #8
10002c3a:	2b52      	cmp	r3, #82	; 0x52
10002c3c:	d101      	bne.n	10002c42 <LCD_Init+0xb4a>
10002c3e:	f000 fdde 	bl	100037fe <LCD_Init+0x1706>
10002c42:	f7fd fb85 	bl	10000350 <DEV_Digital_Write>
10002c46:	2009      	movs	r0, #9
10002c48:	2100      	movs	r1, #0
10002c4a:	f7fd fb81 	bl	10000350 <DEV_Digital_Write>
10002c4e:	2000      	movs	r0, #0
10002c50:	f7fd fc32 	bl	100004b8 <SPI4W_Write_Byte>
10002c54:	2001      	movs	r0, #1
10002c56:	f7fd fc2f 	bl	100004b8 <SPI4W_Write_Byte>
10002c5a:	2101      	movs	r1, #1
10002c5c:	2009      	movs	r0, #9
10002c5e:	f7fd fb77 	bl	10000350 <DEV_Digital_Write>
10002c62:	2100      	movs	r1, #0
10002c64:	2008      	movs	r0, #8
10002c66:	f7fd fb73 	bl	10000350 <DEV_Digital_Write>
10002c6a:	2100      	movs	r1, #0
10002c6c:	2009      	movs	r0, #9
10002c6e:	f7fd fb6f 	bl	10000350 <DEV_Digital_Write>
10002c72:	20c3      	movs	r0, #195	; 0xc3
10002c74:	f7fd fc20 	bl	100004b8 <SPI4W_Write_Byte>
10002c78:	2101      	movs	r1, #1
10002c7a:	2009      	movs	r0, #9
10002c7c:	f7fd fb68 	bl	10000350 <DEV_Digital_Write>
10002c80:	7823      	ldrb	r3, [r4, #0]
10002c82:	2101      	movs	r1, #1
10002c84:	2008      	movs	r0, #8
10002c86:	2b52      	cmp	r3, #82	; 0x52
10002c88:	d101      	bne.n	10002c8e <LCD_Init+0xb96>
10002c8a:	f000 fdb0 	bl	100037ee <LCD_Init+0x16f6>
10002c8e:	f7fd fb5f 	bl	10000350 <DEV_Digital_Write>
10002c92:	2009      	movs	r0, #9
10002c94:	2100      	movs	r1, #0
10002c96:	f7fd fb5b 	bl	10000350 <DEV_Digital_Write>
10002c9a:	2000      	movs	r0, #0
10002c9c:	f7fd fc0c 	bl	100004b8 <SPI4W_Write_Byte>
10002ca0:	200b      	movs	r0, #11
10002ca2:	f7fd fc09 	bl	100004b8 <SPI4W_Write_Byte>
10002ca6:	2101      	movs	r1, #1
10002ca8:	2009      	movs	r0, #9
10002caa:	f7fd fb51 	bl	10000350 <DEV_Digital_Write>
10002cae:	2100      	movs	r1, #0
10002cb0:	2008      	movs	r0, #8
10002cb2:	f7fd fb4d 	bl	10000350 <DEV_Digital_Write>
10002cb6:	2100      	movs	r1, #0
10002cb8:	2009      	movs	r0, #9
10002cba:	f7fd fb49 	bl	10000350 <DEV_Digital_Write>
10002cbe:	20c4      	movs	r0, #196	; 0xc4
10002cc0:	f7fd fbfa 	bl	100004b8 <SPI4W_Write_Byte>
10002cc4:	2101      	movs	r1, #1
10002cc6:	2009      	movs	r0, #9
10002cc8:	f7fd fb42 	bl	10000350 <DEV_Digital_Write>
10002ccc:	7823      	ldrb	r3, [r4, #0]
10002cce:	2101      	movs	r1, #1
10002cd0:	2008      	movs	r0, #8
10002cd2:	2b52      	cmp	r3, #82	; 0x52
10002cd4:	d101      	bne.n	10002cda <LCD_Init+0xbe2>
10002cd6:	f000 fd82 	bl	100037de <LCD_Init+0x16e6>
10002cda:	f7fd fb39 	bl	10000350 <DEV_Digital_Write>
10002cde:	2009      	movs	r0, #9
10002ce0:	2100      	movs	r1, #0
10002ce2:	f7fd fb35 	bl	10000350 <DEV_Digital_Write>
10002ce6:	2000      	movs	r0, #0
10002ce8:	f7fd fbe6 	bl	100004b8 <SPI4W_Write_Byte>
10002cec:	2020      	movs	r0, #32
10002cee:	f7fd fbe3 	bl	100004b8 <SPI4W_Write_Byte>
10002cf2:	2101      	movs	r1, #1
10002cf4:	2009      	movs	r0, #9
10002cf6:	f7fd fb2b 	bl	10000350 <DEV_Digital_Write>
10002cfa:	2100      	movs	r1, #0
10002cfc:	2008      	movs	r0, #8
10002cfe:	f7fd fb27 	bl	10000350 <DEV_Digital_Write>
10002d02:	2100      	movs	r1, #0
10002d04:	2009      	movs	r0, #9
10002d06:	f7fd fb23 	bl	10000350 <DEV_Digital_Write>
10002d0a:	20c6      	movs	r0, #198	; 0xc6
10002d0c:	f7fd fbd4 	bl	100004b8 <SPI4W_Write_Byte>
10002d10:	2101      	movs	r1, #1
10002d12:	2009      	movs	r0, #9
10002d14:	f7fd fb1c 	bl	10000350 <DEV_Digital_Write>
10002d18:	7823      	ldrb	r3, [r4, #0]
10002d1a:	2101      	movs	r1, #1
10002d1c:	2008      	movs	r0, #8
10002d1e:	2b52      	cmp	r3, #82	; 0x52
10002d20:	d101      	bne.n	10002d26 <LCD_Init+0xc2e>
10002d22:	f000 fd54 	bl	100037ce <LCD_Init+0x16d6>
10002d26:	f7fd fb13 	bl	10000350 <DEV_Digital_Write>
10002d2a:	2009      	movs	r0, #9
10002d2c:	2100      	movs	r1, #0
10002d2e:	f7fd fb0f 	bl	10000350 <DEV_Digital_Write>
10002d32:	2000      	movs	r0, #0
10002d34:	f7fd fbc0 	bl	100004b8 <SPI4W_Write_Byte>
10002d38:	200f      	movs	r0, #15
10002d3a:	f7fd fbbd 	bl	100004b8 <SPI4W_Write_Byte>
10002d3e:	2101      	movs	r1, #1
10002d40:	2009      	movs	r0, #9
10002d42:	f7fd fb05 	bl	10000350 <DEV_Digital_Write>
10002d46:	2100      	movs	r1, #0
10002d48:	2008      	movs	r0, #8
10002d4a:	f7fd fb01 	bl	10000350 <DEV_Digital_Write>
10002d4e:	2100      	movs	r1, #0
10002d50:	2009      	movs	r0, #9
10002d52:	f7fd fafd 	bl	10000350 <DEV_Digital_Write>
10002d56:	20d0      	movs	r0, #208	; 0xd0
10002d58:	f7fd fbae 	bl	100004b8 <SPI4W_Write_Byte>
10002d5c:	2101      	movs	r1, #1
10002d5e:	2009      	movs	r0, #9
10002d60:	f7fd faf6 	bl	10000350 <DEV_Digital_Write>
10002d64:	7823      	ldrb	r3, [r4, #0]
10002d66:	2101      	movs	r1, #1
10002d68:	2008      	movs	r0, #8
10002d6a:	2b52      	cmp	r3, #82	; 0x52
10002d6c:	d101      	bne.n	10002d72 <LCD_Init+0xc7a>
10002d6e:	f000 fd26 	bl	100037be <LCD_Init+0x16c6>
10002d72:	f7fd faed 	bl	10000350 <DEV_Digital_Write>
10002d76:	2009      	movs	r0, #9
10002d78:	2100      	movs	r1, #0
10002d7a:	f7fd fae9 	bl	10000350 <DEV_Digital_Write>
10002d7e:	2000      	movs	r0, #0
10002d80:	f7fd fb9a 	bl	100004b8 <SPI4W_Write_Byte>
10002d84:	20a4      	movs	r0, #164	; 0xa4
10002d86:	f7fd fb97 	bl	100004b8 <SPI4W_Write_Byte>
10002d8a:	2101      	movs	r1, #1
10002d8c:	2009      	movs	r0, #9
10002d8e:	f7fd fadf 	bl	10000350 <DEV_Digital_Write>
10002d92:	7823      	ldrb	r3, [r4, #0]
10002d94:	2101      	movs	r1, #1
10002d96:	2008      	movs	r0, #8
10002d98:	2b52      	cmp	r3, #82	; 0x52
10002d9a:	d101      	bne.n	10002da0 <LCD_Init+0xca8>
10002d9c:	f000 fd07 	bl	100037ae <LCD_Init+0x16b6>
10002da0:	f7fd fad6 	bl	10000350 <DEV_Digital_Write>
10002da4:	2009      	movs	r0, #9
10002da6:	2100      	movs	r1, #0
10002da8:	f7fd fad2 	bl	10000350 <DEV_Digital_Write>
10002dac:	2000      	movs	r0, #0
10002dae:	f7fd fb83 	bl	100004b8 <SPI4W_Write_Byte>
10002db2:	20a1      	movs	r0, #161	; 0xa1
10002db4:	f7fd fb80 	bl	100004b8 <SPI4W_Write_Byte>
10002db8:	2101      	movs	r1, #1
10002dba:	2009      	movs	r0, #9
10002dbc:	f7fd fac8 	bl	10000350 <DEV_Digital_Write>
10002dc0:	2100      	movs	r1, #0
10002dc2:	2008      	movs	r0, #8
10002dc4:	f7fd fac4 	bl	10000350 <DEV_Digital_Write>
10002dc8:	2100      	movs	r1, #0
10002dca:	2009      	movs	r0, #9
10002dcc:	f7fd fac0 	bl	10000350 <DEV_Digital_Write>
10002dd0:	20e0      	movs	r0, #224	; 0xe0
10002dd2:	f7fd fb71 	bl	100004b8 <SPI4W_Write_Byte>
10002dd6:	2101      	movs	r1, #1
10002dd8:	2009      	movs	r0, #9
10002dda:	f7fd fab9 	bl	10000350 <DEV_Digital_Write>
10002dde:	7823      	ldrb	r3, [r4, #0]
10002de0:	2101      	movs	r1, #1
10002de2:	2008      	movs	r0, #8
10002de4:	2b52      	cmp	r3, #82	; 0x52
10002de6:	d101      	bne.n	10002dec <LCD_Init+0xcf4>
10002de8:	f000 fcd9 	bl	1000379e <LCD_Init+0x16a6>
10002dec:	f7fd fab0 	bl	10000350 <DEV_Digital_Write>
10002df0:	2009      	movs	r0, #9
10002df2:	2100      	movs	r1, #0
10002df4:	f7fd faac 	bl	10000350 <DEV_Digital_Write>
10002df8:	2000      	movs	r0, #0
10002dfa:	f7fd fb5d 	bl	100004b8 <SPI4W_Write_Byte>
10002dfe:	20d0      	movs	r0, #208	; 0xd0
10002e00:	f7fd fb5a 	bl	100004b8 <SPI4W_Write_Byte>
10002e04:	2101      	movs	r1, #1
10002e06:	2009      	movs	r0, #9
10002e08:	f7fd faa2 	bl	10000350 <DEV_Digital_Write>
10002e0c:	7823      	ldrb	r3, [r4, #0]
10002e0e:	2101      	movs	r1, #1
10002e10:	2008      	movs	r0, #8
10002e12:	2b52      	cmp	r3, #82	; 0x52
10002e14:	d101      	bne.n	10002e1a <LCD_Init+0xd22>
10002e16:	f000 fcba 	bl	1000378e <LCD_Init+0x1696>
10002e1a:	f7fd fa99 	bl	10000350 <DEV_Digital_Write>
10002e1e:	2009      	movs	r0, #9
10002e20:	2100      	movs	r1, #0
10002e22:	f7fd fa95 	bl	10000350 <DEV_Digital_Write>
10002e26:	2000      	movs	r0, #0
10002e28:	f7fd fb46 	bl	100004b8 <SPI4W_Write_Byte>
10002e2c:	2001      	movs	r0, #1
10002e2e:	f7fd fb43 	bl	100004b8 <SPI4W_Write_Byte>
10002e32:	2101      	movs	r1, #1
10002e34:	2009      	movs	r0, #9
10002e36:	f7fd fa8b 	bl	10000350 <DEV_Digital_Write>
10002e3a:	7823      	ldrb	r3, [r4, #0]
10002e3c:	2101      	movs	r1, #1
10002e3e:	2008      	movs	r0, #8
10002e40:	2b52      	cmp	r3, #82	; 0x52
10002e42:	d101      	bne.n	10002e48 <LCD_Init+0xd50>
10002e44:	f000 fc9b 	bl	1000377e <LCD_Init+0x1686>
10002e48:	f7fd fa82 	bl	10000350 <DEV_Digital_Write>
10002e4c:	2009      	movs	r0, #9
10002e4e:	2100      	movs	r1, #0
10002e50:	f7fd fa7e 	bl	10000350 <DEV_Digital_Write>
10002e54:	2000      	movs	r0, #0
10002e56:	f7fd fb2f 	bl	100004b8 <SPI4W_Write_Byte>
10002e5a:	2008      	movs	r0, #8
10002e5c:	f7fd fb2c 	bl	100004b8 <SPI4W_Write_Byte>
10002e60:	2101      	movs	r1, #1
10002e62:	2009      	movs	r0, #9
10002e64:	f7fd fa74 	bl	10000350 <DEV_Digital_Write>
10002e68:	7823      	ldrb	r3, [r4, #0]
10002e6a:	2101      	movs	r1, #1
10002e6c:	2008      	movs	r0, #8
10002e6e:	2b52      	cmp	r3, #82	; 0x52
10002e70:	d101      	bne.n	10002e76 <LCD_Init+0xd7e>
10002e72:	f000 fc7c 	bl	1000376e <LCD_Init+0x1676>
10002e76:	f7fd fa6b 	bl	10000350 <DEV_Digital_Write>
10002e7a:	2009      	movs	r0, #9
10002e7c:	2100      	movs	r1, #0
10002e7e:	f7fd fa67 	bl	10000350 <DEV_Digital_Write>
10002e82:	2000      	movs	r0, #0
10002e84:	f7fd fb18 	bl	100004b8 <SPI4W_Write_Byte>
10002e88:	200f      	movs	r0, #15
10002e8a:	f7fd fb15 	bl	100004b8 <SPI4W_Write_Byte>
10002e8e:	2101      	movs	r1, #1
10002e90:	2009      	movs	r0, #9
10002e92:	f7fd fa5d 	bl	10000350 <DEV_Digital_Write>
10002e96:	7823      	ldrb	r3, [r4, #0]
10002e98:	2101      	movs	r1, #1
10002e9a:	2008      	movs	r0, #8
10002e9c:	2b52      	cmp	r3, #82	; 0x52
10002e9e:	d101      	bne.n	10002ea4 <LCD_Init+0xdac>
10002ea0:	f000 fc5d 	bl	1000375e <LCD_Init+0x1666>
10002ea4:	f7fd fa54 	bl	10000350 <DEV_Digital_Write>
10002ea8:	2009      	movs	r0, #9
10002eaa:	2100      	movs	r1, #0
10002eac:	f7fd fa50 	bl	10000350 <DEV_Digital_Write>
10002eb0:	2000      	movs	r0, #0
10002eb2:	f7fd fb01 	bl	100004b8 <SPI4W_Write_Byte>
10002eb6:	2011      	movs	r0, #17
10002eb8:	f7fd fafe 	bl	100004b8 <SPI4W_Write_Byte>
10002ebc:	2101      	movs	r1, #1
10002ebe:	2009      	movs	r0, #9
10002ec0:	f7fd fa46 	bl	10000350 <DEV_Digital_Write>
10002ec4:	7823      	ldrb	r3, [r4, #0]
10002ec6:	2101      	movs	r1, #1
10002ec8:	2008      	movs	r0, #8
10002eca:	2b52      	cmp	r3, #82	; 0x52
10002ecc:	d101      	bne.n	10002ed2 <LCD_Init+0xdda>
10002ece:	f000 fc3e 	bl	1000374e <LCD_Init+0x1656>
10002ed2:	f7fd fa3d 	bl	10000350 <DEV_Digital_Write>
10002ed6:	2009      	movs	r0, #9
10002ed8:	2100      	movs	r1, #0
10002eda:	f7fd fa39 	bl	10000350 <DEV_Digital_Write>
10002ede:	2000      	movs	r0, #0
10002ee0:	f7fd faea 	bl	100004b8 <SPI4W_Write_Byte>
10002ee4:	202a      	movs	r0, #42	; 0x2a
10002ee6:	f7fd fae7 	bl	100004b8 <SPI4W_Write_Byte>
10002eea:	2101      	movs	r1, #1
10002eec:	2009      	movs	r0, #9
10002eee:	f7fd fa2f 	bl	10000350 <DEV_Digital_Write>
10002ef2:	7823      	ldrb	r3, [r4, #0]
10002ef4:	2101      	movs	r1, #1
10002ef6:	2008      	movs	r0, #8
10002ef8:	2b52      	cmp	r3, #82	; 0x52
10002efa:	d101      	bne.n	10002f00 <LCD_Init+0xe08>
10002efc:	f000 fc1f 	bl	1000373e <LCD_Init+0x1646>
10002f00:	f7fd fa26 	bl	10000350 <DEV_Digital_Write>
10002f04:	2009      	movs	r0, #9
10002f06:	2100      	movs	r1, #0
10002f08:	f7fd fa22 	bl	10000350 <DEV_Digital_Write>
10002f0c:	2000      	movs	r0, #0
10002f0e:	f7fd fad3 	bl	100004b8 <SPI4W_Write_Byte>
10002f12:	2036      	movs	r0, #54	; 0x36
10002f14:	f7fd fad0 	bl	100004b8 <SPI4W_Write_Byte>
10002f18:	2101      	movs	r1, #1
10002f1a:	2009      	movs	r0, #9
10002f1c:	f7fd fa18 	bl	10000350 <DEV_Digital_Write>
10002f20:	7823      	ldrb	r3, [r4, #0]
10002f22:	2101      	movs	r1, #1
10002f24:	2008      	movs	r0, #8
10002f26:	2b52      	cmp	r3, #82	; 0x52
10002f28:	d101      	bne.n	10002f2e <LCD_Init+0xe36>
10002f2a:	f000 fc00 	bl	1000372e <LCD_Init+0x1636>
10002f2e:	f7fd fa0f 	bl	10000350 <DEV_Digital_Write>
10002f32:	2009      	movs	r0, #9
10002f34:	2100      	movs	r1, #0
10002f36:	f7fd fa0b 	bl	10000350 <DEV_Digital_Write>
10002f3a:	2000      	movs	r0, #0
10002f3c:	f7fd fabc 	bl	100004b8 <SPI4W_Write_Byte>
10002f40:	2055      	movs	r0, #85	; 0x55
10002f42:	f7fd fab9 	bl	100004b8 <SPI4W_Write_Byte>
10002f46:	2101      	movs	r1, #1
10002f48:	2009      	movs	r0, #9
10002f4a:	f7fd fa01 	bl	10000350 <DEV_Digital_Write>
10002f4e:	7823      	ldrb	r3, [r4, #0]
10002f50:	2101      	movs	r1, #1
10002f52:	2008      	movs	r0, #8
10002f54:	2b52      	cmp	r3, #82	; 0x52
10002f56:	d100      	bne.n	10002f5a <LCD_Init+0xe62>
10002f58:	e3e2      	b.n	10003720 <LCD_Init+0x1628>
10002f5a:	f7fd f9f9 	bl	10000350 <DEV_Digital_Write>
10002f5e:	2009      	movs	r0, #9
10002f60:	2100      	movs	r1, #0
10002f62:	f7fd f9f5 	bl	10000350 <DEV_Digital_Write>
10002f66:	2000      	movs	r0, #0
10002f68:	f7fd faa6 	bl	100004b8 <SPI4W_Write_Byte>
10002f6c:	2044      	movs	r0, #68	; 0x44
10002f6e:	f7fd faa3 	bl	100004b8 <SPI4W_Write_Byte>
10002f72:	2101      	movs	r1, #1
10002f74:	2009      	movs	r0, #9
10002f76:	f7fd f9eb 	bl	10000350 <DEV_Digital_Write>
10002f7a:	7823      	ldrb	r3, [r4, #0]
10002f7c:	2101      	movs	r1, #1
10002f7e:	2008      	movs	r0, #8
10002f80:	2b52      	cmp	r3, #82	; 0x52
10002f82:	d100      	bne.n	10002f86 <LCD_Init+0xe8e>
10002f84:	e3c5      	b.n	10003712 <LCD_Init+0x161a>
10002f86:	f7fd f9e3 	bl	10000350 <DEV_Digital_Write>
10002f8a:	2009      	movs	r0, #9
10002f8c:	2100      	movs	r1, #0
10002f8e:	f7fd f9df 	bl	10000350 <DEV_Digital_Write>
10002f92:	2000      	movs	r0, #0
10002f94:	f7fd fa90 	bl	100004b8 <SPI4W_Write_Byte>
10002f98:	203a      	movs	r0, #58	; 0x3a
10002f9a:	f7fd fa8d 	bl	100004b8 <SPI4W_Write_Byte>
10002f9e:	2101      	movs	r1, #1
10002fa0:	2009      	movs	r0, #9
10002fa2:	f7fd f9d5 	bl	10000350 <DEV_Digital_Write>
10002fa6:	7823      	ldrb	r3, [r4, #0]
10002fa8:	2101      	movs	r1, #1
10002faa:	2008      	movs	r0, #8
10002fac:	2b52      	cmp	r3, #82	; 0x52
10002fae:	d100      	bne.n	10002fb2 <LCD_Init+0xeba>
10002fb0:	e3a8      	b.n	10003704 <LCD_Init+0x160c>
10002fb2:	f7fd f9cd 	bl	10000350 <DEV_Digital_Write>
10002fb6:	2009      	movs	r0, #9
10002fb8:	2100      	movs	r1, #0
10002fba:	f7fd f9c9 	bl	10000350 <DEV_Digital_Write>
10002fbe:	2000      	movs	r0, #0
10002fc0:	f7fd fa7a 	bl	100004b8 <SPI4W_Write_Byte>
10002fc4:	200b      	movs	r0, #11
10002fc6:	f7fd fa77 	bl	100004b8 <SPI4W_Write_Byte>
10002fca:	2101      	movs	r1, #1
10002fcc:	2009      	movs	r0, #9
10002fce:	f7fd f9bf 	bl	10000350 <DEV_Digital_Write>
10002fd2:	7823      	ldrb	r3, [r4, #0]
10002fd4:	2101      	movs	r1, #1
10002fd6:	2008      	movs	r0, #8
10002fd8:	2b52      	cmp	r3, #82	; 0x52
10002fda:	d100      	bne.n	10002fde <LCD_Init+0xee6>
10002fdc:	e386      	b.n	100036ec <LCD_Init+0x15f4>
10002fde:	f7fd f9b7 	bl	10000350 <DEV_Digital_Write>
10002fe2:	2009      	movs	r0, #9
10002fe4:	2100      	movs	r1, #0
10002fe6:	f7fd f9b3 	bl	10000350 <DEV_Digital_Write>
10002fea:	2000      	movs	r0, #0
10002fec:	f7fd fa64 	bl	100004b8 <SPI4W_Write_Byte>
10002ff0:	2006      	movs	r0, #6
10002ff2:	f7fd fa61 	bl	100004b8 <SPI4W_Write_Byte>
10002ff6:	2101      	movs	r1, #1
10002ff8:	2009      	movs	r0, #9
10002ffa:	f7fd f9a9 	bl	10000350 <DEV_Digital_Write>
10002ffe:	7823      	ldrb	r3, [r4, #0]
10003000:	2101      	movs	r1, #1
10003002:	2008      	movs	r0, #8
10003004:	2b52      	cmp	r3, #82	; 0x52
10003006:	d100      	bne.n	1000300a <LCD_Init+0xf12>
10003008:	e369      	b.n	100036de <LCD_Init+0x15e6>
1000300a:	f7fd f9a1 	bl	10000350 <DEV_Digital_Write>
1000300e:	2009      	movs	r0, #9
10003010:	2100      	movs	r1, #0
10003012:	f7fd f99d 	bl	10000350 <DEV_Digital_Write>
10003016:	2000      	movs	r0, #0
10003018:	f7fd fa4e 	bl	100004b8 <SPI4W_Write_Byte>
1000301c:	2011      	movs	r0, #17
1000301e:	f7fd fa4b 	bl	100004b8 <SPI4W_Write_Byte>
10003022:	2101      	movs	r1, #1
10003024:	2009      	movs	r0, #9
10003026:	f7fd f993 	bl	10000350 <DEV_Digital_Write>
1000302a:	7823      	ldrb	r3, [r4, #0]
1000302c:	2101      	movs	r1, #1
1000302e:	2008      	movs	r0, #8
10003030:	2b52      	cmp	r3, #82	; 0x52
10003032:	d100      	bne.n	10003036 <LCD_Init+0xf3e>
10003034:	e34c      	b.n	100036d0 <LCD_Init+0x15d8>
10003036:	f7fd f98b 	bl	10000350 <DEV_Digital_Write>
1000303a:	2009      	movs	r0, #9
1000303c:	2100      	movs	r1, #0
1000303e:	f7fd f987 	bl	10000350 <DEV_Digital_Write>
10003042:	2000      	movs	r0, #0
10003044:	f7fd fa38 	bl	100004b8 <SPI4W_Write_Byte>
10003048:	2020      	movs	r0, #32
1000304a:	f7fd fa35 	bl	100004b8 <SPI4W_Write_Byte>
1000304e:	2101      	movs	r1, #1
10003050:	2009      	movs	r0, #9
10003052:	f7fd f97d 	bl	10000350 <DEV_Digital_Write>
10003056:	2100      	movs	r1, #0
10003058:	2008      	movs	r0, #8
1000305a:	f7fd f979 	bl	10000350 <DEV_Digital_Write>
1000305e:	2100      	movs	r1, #0
10003060:	2009      	movs	r0, #9
10003062:	f7fd f975 	bl	10000350 <DEV_Digital_Write>
10003066:	20e1      	movs	r0, #225	; 0xe1
10003068:	f7fd fa26 	bl	100004b8 <SPI4W_Write_Byte>
1000306c:	2101      	movs	r1, #1
1000306e:	2009      	movs	r0, #9
10003070:	f7fd f96e 	bl	10000350 <DEV_Digital_Write>
10003074:	7823      	ldrb	r3, [r4, #0]
10003076:	2101      	movs	r1, #1
10003078:	2008      	movs	r0, #8
1000307a:	2b52      	cmp	r3, #82	; 0x52
1000307c:	d100      	bne.n	10003080 <LCD_Init+0xf88>
1000307e:	e320      	b.n	100036c2 <LCD_Init+0x15ca>
10003080:	f7fd f966 	bl	10000350 <DEV_Digital_Write>
10003084:	2009      	movs	r0, #9
10003086:	2100      	movs	r1, #0
10003088:	f7fd f962 	bl	10000350 <DEV_Digital_Write>
1000308c:	2000      	movs	r0, #0
1000308e:	f7fd fa13 	bl	100004b8 <SPI4W_Write_Byte>
10003092:	20d0      	movs	r0, #208	; 0xd0
10003094:	f7fd fa10 	bl	100004b8 <SPI4W_Write_Byte>
10003098:	2101      	movs	r1, #1
1000309a:	2009      	movs	r0, #9
1000309c:	f7fd f958 	bl	10000350 <DEV_Digital_Write>
100030a0:	7823      	ldrb	r3, [r4, #0]
100030a2:	2101      	movs	r1, #1
100030a4:	2008      	movs	r0, #8
100030a6:	2b52      	cmp	r3, #82	; 0x52
100030a8:	d100      	bne.n	100030ac <LCD_Init+0xfb4>
100030aa:	e303      	b.n	100036b4 <LCD_Init+0x15bc>
100030ac:	f7fd f950 	bl	10000350 <DEV_Digital_Write>
100030b0:	2009      	movs	r0, #9
100030b2:	2100      	movs	r1, #0
100030b4:	f7fd f94c 	bl	10000350 <DEV_Digital_Write>
100030b8:	2000      	movs	r0, #0
100030ba:	f7fd f9fd 	bl	100004b8 <SPI4W_Write_Byte>
100030be:	2002      	movs	r0, #2
100030c0:	f7fd f9fa 	bl	100004b8 <SPI4W_Write_Byte>
100030c4:	2101      	movs	r1, #1
100030c6:	2009      	movs	r0, #9
100030c8:	f7fd f942 	bl	10000350 <DEV_Digital_Write>
100030cc:	7823      	ldrb	r3, [r4, #0]
100030ce:	2101      	movs	r1, #1
100030d0:	2008      	movs	r0, #8
100030d2:	2b52      	cmp	r3, #82	; 0x52
100030d4:	d100      	bne.n	100030d8 <LCD_Init+0xfe0>
100030d6:	e2e6      	b.n	100036a6 <LCD_Init+0x15ae>
100030d8:	f7fd f93a 	bl	10000350 <DEV_Digital_Write>
100030dc:	2009      	movs	r0, #9
100030de:	2100      	movs	r1, #0
100030e0:	f7fd f936 	bl	10000350 <DEV_Digital_Write>
100030e4:	2000      	movs	r0, #0
100030e6:	f7fd f9e7 	bl	100004b8 <SPI4W_Write_Byte>
100030ea:	2007      	movs	r0, #7
100030ec:	f7fd f9e4 	bl	100004b8 <SPI4W_Write_Byte>
100030f0:	2101      	movs	r1, #1
100030f2:	2009      	movs	r0, #9
100030f4:	f7fd f92c 	bl	10000350 <DEV_Digital_Write>
100030f8:	7823      	ldrb	r3, [r4, #0]
100030fa:	2101      	movs	r1, #1
100030fc:	2008      	movs	r0, #8
100030fe:	2b52      	cmp	r3, #82	; 0x52
10003100:	d100      	bne.n	10003104 <LCD_Init+0x100c>
10003102:	e2c9      	b.n	10003698 <LCD_Init+0x15a0>
10003104:	f7fd f924 	bl	10000350 <DEV_Digital_Write>
10003108:	2009      	movs	r0, #9
1000310a:	2100      	movs	r1, #0
1000310c:	f7fd f920 	bl	10000350 <DEV_Digital_Write>
10003110:	2000      	movs	r0, #0
10003112:	f7fd f9d1 	bl	100004b8 <SPI4W_Write_Byte>
10003116:	200a      	movs	r0, #10
10003118:	f7fd f9ce 	bl	100004b8 <SPI4W_Write_Byte>
1000311c:	2101      	movs	r1, #1
1000311e:	2009      	movs	r0, #9
10003120:	f7fd f916 	bl	10000350 <DEV_Digital_Write>
10003124:	7823      	ldrb	r3, [r4, #0]
10003126:	2101      	movs	r1, #1
10003128:	2008      	movs	r0, #8
1000312a:	2b52      	cmp	r3, #82	; 0x52
1000312c:	d100      	bne.n	10003130 <LCD_Init+0x1038>
1000312e:	e2ac      	b.n	1000368a <LCD_Init+0x1592>
10003130:	f7fd f90e 	bl	10000350 <DEV_Digital_Write>
10003134:	2009      	movs	r0, #9
10003136:	2100      	movs	r1, #0
10003138:	f7fd f90a 	bl	10000350 <DEV_Digital_Write>
1000313c:	2000      	movs	r0, #0
1000313e:	f7fd f9bb 	bl	100004b8 <SPI4W_Write_Byte>
10003142:	200b      	movs	r0, #11
10003144:	f7fd f9b8 	bl	100004b8 <SPI4W_Write_Byte>
10003148:	2101      	movs	r1, #1
1000314a:	2009      	movs	r0, #9
1000314c:	f7fd f900 	bl	10000350 <DEV_Digital_Write>
10003150:	7823      	ldrb	r3, [r4, #0]
10003152:	2101      	movs	r1, #1
10003154:	2008      	movs	r0, #8
10003156:	2b52      	cmp	r3, #82	; 0x52
10003158:	d100      	bne.n	1000315c <LCD_Init+0x1064>
1000315a:	e28f      	b.n	1000367c <LCD_Init+0x1584>
1000315c:	f7fd f8f8 	bl	10000350 <DEV_Digital_Write>
10003160:	2009      	movs	r0, #9
10003162:	2100      	movs	r1, #0
10003164:	f7fd f8f4 	bl	10000350 <DEV_Digital_Write>
10003168:	2000      	movs	r0, #0
1000316a:	f7fd f9a5 	bl	100004b8 <SPI4W_Write_Byte>
1000316e:	2018      	movs	r0, #24
10003170:	f7fd f9a2 	bl	100004b8 <SPI4W_Write_Byte>
10003174:	2101      	movs	r1, #1
10003176:	2009      	movs	r0, #9
10003178:	f7fd f8ea 	bl	10000350 <DEV_Digital_Write>
1000317c:	7823      	ldrb	r3, [r4, #0]
1000317e:	2101      	movs	r1, #1
10003180:	2008      	movs	r0, #8
10003182:	2b52      	cmp	r3, #82	; 0x52
10003184:	d100      	bne.n	10003188 <LCD_Init+0x1090>
10003186:	e272      	b.n	1000366e <LCD_Init+0x1576>
10003188:	f7fd f8e2 	bl	10000350 <DEV_Digital_Write>
1000318c:	2009      	movs	r0, #9
1000318e:	2100      	movs	r1, #0
10003190:	f7fd f8de 	bl	10000350 <DEV_Digital_Write>
10003194:	2000      	movs	r0, #0
10003196:	f7fd f98f 	bl	100004b8 <SPI4W_Write_Byte>
1000319a:	2034      	movs	r0, #52	; 0x34
1000319c:	f7fd f98c 	bl	100004b8 <SPI4W_Write_Byte>
100031a0:	2101      	movs	r1, #1
100031a2:	2009      	movs	r0, #9
100031a4:	f7fd f8d4 	bl	10000350 <DEV_Digital_Write>
100031a8:	7823      	ldrb	r3, [r4, #0]
100031aa:	2101      	movs	r1, #1
100031ac:	2008      	movs	r0, #8
100031ae:	2b52      	cmp	r3, #82	; 0x52
100031b0:	d100      	bne.n	100031b4 <LCD_Init+0x10bc>
100031b2:	e255      	b.n	10003660 <LCD_Init+0x1568>
100031b4:	f7fd f8cc 	bl	10000350 <DEV_Digital_Write>
100031b8:	2009      	movs	r0, #9
100031ba:	2100      	movs	r1, #0
100031bc:	f7fd f8c8 	bl	10000350 <DEV_Digital_Write>
100031c0:	2000      	movs	r0, #0
100031c2:	f7fd f979 	bl	100004b8 <SPI4W_Write_Byte>
100031c6:	2043      	movs	r0, #67	; 0x43
100031c8:	f7fd f976 	bl	100004b8 <SPI4W_Write_Byte>
100031cc:	2101      	movs	r1, #1
100031ce:	2009      	movs	r0, #9
100031d0:	f7fd f8be 	bl	10000350 <DEV_Digital_Write>
100031d4:	7823      	ldrb	r3, [r4, #0]
100031d6:	2101      	movs	r1, #1
100031d8:	2008      	movs	r0, #8
100031da:	2b52      	cmp	r3, #82	; 0x52
100031dc:	d100      	bne.n	100031e0 <LCD_Init+0x10e8>
100031de:	e238      	b.n	10003652 <LCD_Init+0x155a>
100031e0:	f7fd f8b6 	bl	10000350 <DEV_Digital_Write>
100031e4:	2009      	movs	r0, #9
100031e6:	2100      	movs	r1, #0
100031e8:	f7fd f8b2 	bl	10000350 <DEV_Digital_Write>
100031ec:	2000      	movs	r0, #0
100031ee:	f7fd f963 	bl	100004b8 <SPI4W_Write_Byte>
100031f2:	204a      	movs	r0, #74	; 0x4a
100031f4:	f7fd f960 	bl	100004b8 <SPI4W_Write_Byte>
100031f8:	2101      	movs	r1, #1
100031fa:	2009      	movs	r0, #9
100031fc:	f7fd f8a8 	bl	10000350 <DEV_Digital_Write>
10003200:	7823      	ldrb	r3, [r4, #0]
10003202:	2101      	movs	r1, #1
10003204:	2008      	movs	r0, #8
10003206:	2b52      	cmp	r3, #82	; 0x52
10003208:	d100      	bne.n	1000320c <LCD_Init+0x1114>
1000320a:	e21b      	b.n	10003644 <LCD_Init+0x154c>
1000320c:	f7fd f8a0 	bl	10000350 <DEV_Digital_Write>
10003210:	2009      	movs	r0, #9
10003212:	2100      	movs	r1, #0
10003214:	f7fd f89c 	bl	10000350 <DEV_Digital_Write>
10003218:	2000      	movs	r0, #0
1000321a:	f7fd f94d 	bl	100004b8 <SPI4W_Write_Byte>
1000321e:	202b      	movs	r0, #43	; 0x2b
10003220:	f7fd f94a 	bl	100004b8 <SPI4W_Write_Byte>
10003224:	2101      	movs	r1, #1
10003226:	2009      	movs	r0, #9
10003228:	f7fd f892 	bl	10000350 <DEV_Digital_Write>
1000322c:	7823      	ldrb	r3, [r4, #0]
1000322e:	2101      	movs	r1, #1
10003230:	2008      	movs	r0, #8
10003232:	2b52      	cmp	r3, #82	; 0x52
10003234:	d100      	bne.n	10003238 <LCD_Init+0x1140>
10003236:	e1fe      	b.n	10003636 <LCD_Init+0x153e>
10003238:	f7fd f88a 	bl	10000350 <DEV_Digital_Write>
1000323c:	2009      	movs	r0, #9
1000323e:	2100      	movs	r1, #0
10003240:	f7fd f886 	bl	10000350 <DEV_Digital_Write>
10003244:	2000      	movs	r0, #0
10003246:	f7fd f937 	bl	100004b8 <SPI4W_Write_Byte>
1000324a:	201b      	movs	r0, #27
1000324c:	f7fd f934 	bl	100004b8 <SPI4W_Write_Byte>
10003250:	2101      	movs	r1, #1
10003252:	2009      	movs	r0, #9
10003254:	f7fd f87c 	bl	10000350 <DEV_Digital_Write>
10003258:	7823      	ldrb	r3, [r4, #0]
1000325a:	2101      	movs	r1, #1
1000325c:	2008      	movs	r0, #8
1000325e:	2b52      	cmp	r3, #82	; 0x52
10003260:	d100      	bne.n	10003264 <LCD_Init+0x116c>
10003262:	e1e1      	b.n	10003628 <LCD_Init+0x1530>
10003264:	f7fd f874 	bl	10000350 <DEV_Digital_Write>
10003268:	2009      	movs	r0, #9
1000326a:	2100      	movs	r1, #0
1000326c:	f7fd f870 	bl	10000350 <DEV_Digital_Write>
10003270:	2000      	movs	r0, #0
10003272:	f7fd f921 	bl	100004b8 <SPI4W_Write_Byte>
10003276:	201c      	movs	r0, #28
10003278:	f7fd f91e 	bl	100004b8 <SPI4W_Write_Byte>
1000327c:	2101      	movs	r1, #1
1000327e:	2009      	movs	r0, #9
10003280:	f7fd f866 	bl	10000350 <DEV_Digital_Write>
10003284:	7823      	ldrb	r3, [r4, #0]
10003286:	2101      	movs	r1, #1
10003288:	2008      	movs	r0, #8
1000328a:	2b52      	cmp	r3, #82	; 0x52
1000328c:	d100      	bne.n	10003290 <LCD_Init+0x1198>
1000328e:	e1c4      	b.n	1000361a <LCD_Init+0x1522>
10003290:	f7fd f85e 	bl	10000350 <DEV_Digital_Write>
10003294:	2009      	movs	r0, #9
10003296:	2100      	movs	r1, #0
10003298:	f7fd f85a 	bl	10000350 <DEV_Digital_Write>
1000329c:	2000      	movs	r0, #0
1000329e:	f7fd f90b 	bl	100004b8 <SPI4W_Write_Byte>
100032a2:	2022      	movs	r0, #34	; 0x22
100032a4:	f7fd f908 	bl	100004b8 <SPI4W_Write_Byte>
100032a8:	2101      	movs	r1, #1
100032aa:	2009      	movs	r0, #9
100032ac:	f7fd f850 	bl	10000350 <DEV_Digital_Write>
100032b0:	7823      	ldrb	r3, [r4, #0]
100032b2:	2101      	movs	r1, #1
100032b4:	2008      	movs	r0, #8
100032b6:	2b52      	cmp	r3, #82	; 0x52
100032b8:	d100      	bne.n	100032bc <LCD_Init+0x11c4>
100032ba:	e1a7      	b.n	1000360c <LCD_Init+0x1514>
100032bc:	f7fd f848 	bl	10000350 <DEV_Digital_Write>
100032c0:	2009      	movs	r0, #9
100032c2:	2100      	movs	r1, #0
100032c4:	f7fd f844 	bl	10000350 <DEV_Digital_Write>
100032c8:	2000      	movs	r0, #0
100032ca:	f7fd f8f5 	bl	100004b8 <SPI4W_Write_Byte>
100032ce:	201f      	movs	r0, #31
100032d0:	f7fd f8f2 	bl	100004b8 <SPI4W_Write_Byte>
100032d4:	2101      	movs	r1, #1
100032d6:	2009      	movs	r0, #9
100032d8:	f7fd f83a 	bl	10000350 <DEV_Digital_Write>
100032dc:	2100      	movs	r1, #0
100032de:	2008      	movs	r0, #8
100032e0:	f7fd f836 	bl	10000350 <DEV_Digital_Write>
100032e4:	2100      	movs	r1, #0
100032e6:	2009      	movs	r0, #9
100032e8:	f7fd f832 	bl	10000350 <DEV_Digital_Write>
100032ec:	2055      	movs	r0, #85	; 0x55
100032ee:	f7fd f8e3 	bl	100004b8 <SPI4W_Write_Byte>
100032f2:	2101      	movs	r1, #1
100032f4:	2009      	movs	r0, #9
100032f6:	f7fd f82b 	bl	10000350 <DEV_Digital_Write>
100032fa:	7823      	ldrb	r3, [r4, #0]
100032fc:	2101      	movs	r1, #1
100032fe:	2008      	movs	r0, #8
10003300:	2b52      	cmp	r3, #82	; 0x52
10003302:	d100      	bne.n	10003306 <LCD_Init+0x120e>
10003304:	e17b      	b.n	100035fe <LCD_Init+0x1506>
10003306:	f7fd f823 	bl	10000350 <DEV_Digital_Write>
1000330a:	2009      	movs	r0, #9
1000330c:	2100      	movs	r1, #0
1000330e:	f7fd f81f 	bl	10000350 <DEV_Digital_Write>
10003312:	2000      	movs	r0, #0
10003314:	f7fd f8d0 	bl	100004b8 <SPI4W_Write_Byte>
10003318:	20b0      	movs	r0, #176	; 0xb0
1000331a:	f7fd f8cd 	bl	100004b8 <SPI4W_Write_Byte>
1000331e:	2101      	movs	r1, #1
10003320:	2009      	movs	r0, #9
10003322:	f7fd f815 	bl	10000350 <DEV_Digital_Write>
10003326:	f7ff fb06 	bl	10002936 <LCD_Init+0x83e>
1000332a:	1e6b      	subs	r3, r5, #1
1000332c:	b2db      	uxtb	r3, r3
1000332e:	2600      	movs	r6, #0
10003330:	2b06      	cmp	r3, #6
10003332:	d800      	bhi.n	10003336 <LCD_Init+0x123e>
10003334:	e154      	b.n	100035e0 <LCD_Init+0x14e8>
10003336:	4bf1      	ldr	r3, [pc, #964]	; (100036fc <LCD_Init+0x1604>)
10003338:	711d      	strb	r5, [r3, #4]
1000333a:	2d03      	cmp	r5, #3
1000333c:	d800      	bhi.n	10003340 <LCD_Init+0x1248>
1000333e:	e14b      	b.n	100035d8 <LCD_Init+0x14e0>
10003340:	22a0      	movs	r2, #160	; 0xa0
10003342:	21f0      	movs	r1, #240	; 0xf0
10003344:	0052      	lsls	r2, r2, #1
10003346:	8059      	strh	r1, [r3, #2]
10003348:	2008      	movs	r0, #8
1000334a:	2100      	movs	r1, #0
1000334c:	801a      	strh	r2, [r3, #0]
1000334e:	f7fc ffff 	bl	10000350 <DEV_Digital_Write>
10003352:	2100      	movs	r1, #0
10003354:	2009      	movs	r0, #9
10003356:	f7fc fffb 	bl	10000350 <DEV_Digital_Write>
1000335a:	2036      	movs	r0, #54	; 0x36
1000335c:	f7fd f8ac 	bl	100004b8 <SPI4W_Write_Byte>
10003360:	2101      	movs	r1, #1
10003362:	2009      	movs	r0, #9
10003364:	f7fc fff4 	bl	10000350 <DEV_Digital_Write>
10003368:	7823      	ldrb	r3, [r4, #0]
1000336a:	2101      	movs	r1, #1
1000336c:	2008      	movs	r0, #8
1000336e:	2b52      	cmp	r3, #82	; 0x52
10003370:	d100      	bne.n	10003374 <LCD_Init+0x127c>
10003372:	e13d      	b.n	100035f0 <LCD_Init+0x14f8>
10003374:	f7fc ffec 	bl	10000350 <DEV_Digital_Write>
10003378:	2009      	movs	r0, #9
1000337a:	2100      	movs	r1, #0
1000337c:	f7fc ffe8 	bl	10000350 <DEV_Digital_Write>
10003380:	2000      	movs	r0, #0
10003382:	f7fd f899 	bl	100004b8 <SPI4W_Write_Byte>
10003386:	0030      	movs	r0, r6
10003388:	f7fd f896 	bl	100004b8 <SPI4W_Write_Byte>
1000338c:	2101      	movs	r1, #1
1000338e:	2009      	movs	r0, #9
10003390:	f7fc ffde 	bl	10000350 <DEV_Digital_Write>
10003394:	f7ff fae3 	bl	1000295e <LCD_Init+0x866>
10003398:	f7fc ffda 	bl	10000350 <DEV_Digital_Write>
1000339c:	2100      	movs	r1, #0
1000339e:	2009      	movs	r0, #9
100033a0:	f7fc ffd6 	bl	10000350 <DEV_Digital_Write>
100033a4:	f7ff faae 	bl	10002904 <LCD_Init+0x80c>
100033a8:	f7fc ffd2 	bl	10000350 <DEV_Digital_Write>
100033ac:	2100      	movs	r1, #0
100033ae:	2009      	movs	r0, #9
100033b0:	f7fc ffce 	bl	10000350 <DEV_Digital_Write>
100033b4:	f7ff fa80 	bl	100028b8 <LCD_Init+0x7c0>
100033b8:	f7fc ffca 	bl	10000350 <DEV_Digital_Write>
100033bc:	2100      	movs	r1, #0
100033be:	2009      	movs	r0, #9
100033c0:	f7fc ffc6 	bl	10000350 <DEV_Digital_Write>
100033c4:	f7ff fa61 	bl	1000288a <LCD_Init+0x792>
100033c8:	f7fc ffc2 	bl	10000350 <DEV_Digital_Write>
100033cc:	2100      	movs	r1, #0
100033ce:	2009      	movs	r0, #9
100033d0:	f7fc ffbe 	bl	10000350 <DEV_Digital_Write>
100033d4:	f7ff fa42 	bl	1000285c <LCD_Init+0x764>
100033d8:	f7fc ffba 	bl	10000350 <DEV_Digital_Write>
100033dc:	2100      	movs	r1, #0
100033de:	2009      	movs	r0, #9
100033e0:	f7fc ffb6 	bl	10000350 <DEV_Digital_Write>
100033e4:	f7ff fa23 	bl	1000282e <LCD_Init+0x736>
100033e8:	f7fc ffb2 	bl	10000350 <DEV_Digital_Write>
100033ec:	2100      	movs	r1, #0
100033ee:	2009      	movs	r0, #9
100033f0:	f7fc ffae 	bl	10000350 <DEV_Digital_Write>
100033f4:	f7ff fa04 	bl	10002800 <LCD_Init+0x708>
100033f8:	f7fc ffaa 	bl	10000350 <DEV_Digital_Write>
100033fc:	2100      	movs	r1, #0
100033fe:	2009      	movs	r0, #9
10003400:	f7fc ffa6 	bl	10000350 <DEV_Digital_Write>
10003404:	f7ff f9e5 	bl	100027d2 <LCD_Init+0x6da>
10003408:	f7fc ffa2 	bl	10000350 <DEV_Digital_Write>
1000340c:	2100      	movs	r1, #0
1000340e:	2009      	movs	r0, #9
10003410:	f7fc ff9e 	bl	10000350 <DEV_Digital_Write>
10003414:	f7ff f9c6 	bl	100027a4 <LCD_Init+0x6ac>
10003418:	f7fc ff9a 	bl	10000350 <DEV_Digital_Write>
1000341c:	2100      	movs	r1, #0
1000341e:	2009      	movs	r0, #9
10003420:	f7fc ff96 	bl	10000350 <DEV_Digital_Write>
10003424:	f7ff f9a7 	bl	10002776 <LCD_Init+0x67e>
10003428:	f7fc ff92 	bl	10000350 <DEV_Digital_Write>
1000342c:	2100      	movs	r1, #0
1000342e:	2009      	movs	r0, #9
10003430:	f7fc ff8e 	bl	10000350 <DEV_Digital_Write>
10003434:	f7ff f988 	bl	10002748 <LCD_Init+0x650>
10003438:	f7fc ff8a 	bl	10000350 <DEV_Digital_Write>
1000343c:	2100      	movs	r1, #0
1000343e:	2009      	movs	r0, #9
10003440:	f7fc ff86 	bl	10000350 <DEV_Digital_Write>
10003444:	f7ff f969 	bl	1000271a <LCD_Init+0x622>
10003448:	f7fc ff82 	bl	10000350 <DEV_Digital_Write>
1000344c:	2100      	movs	r1, #0
1000344e:	2009      	movs	r0, #9
10003450:	f7fc ff7e 	bl	10000350 <DEV_Digital_Write>
10003454:	f7ff f94a 	bl	100026ec <LCD_Init+0x5f4>
10003458:	f7fc ff7a 	bl	10000350 <DEV_Digital_Write>
1000345c:	2100      	movs	r1, #0
1000345e:	2009      	movs	r0, #9
10003460:	f7fc ff76 	bl	10000350 <DEV_Digital_Write>
10003464:	f7ff f92b 	bl	100026be <LCD_Init+0x5c6>
10003468:	f7fc ff72 	bl	10000350 <DEV_Digital_Write>
1000346c:	2100      	movs	r1, #0
1000346e:	2009      	movs	r0, #9
10003470:	f7fc ff6e 	bl	10000350 <DEV_Digital_Write>
10003474:	f7ff f90c 	bl	10002690 <LCD_Init+0x598>
10003478:	f7fc ff6a 	bl	10000350 <DEV_Digital_Write>
1000347c:	2100      	movs	r1, #0
1000347e:	2009      	movs	r0, #9
10003480:	f7fc ff66 	bl	10000350 <DEV_Digital_Write>
10003484:	f7ff f8ed 	bl	10002662 <LCD_Init+0x56a>
10003488:	f7fc ff62 	bl	10000350 <DEV_Digital_Write>
1000348c:	2100      	movs	r1, #0
1000348e:	2009      	movs	r0, #9
10003490:	f7fc ff5e 	bl	10000350 <DEV_Digital_Write>
10003494:	f7ff f8ce 	bl	10002634 <LCD_Init+0x53c>
10003498:	f7fc ff5a 	bl	10000350 <DEV_Digital_Write>
1000349c:	2100      	movs	r1, #0
1000349e:	2009      	movs	r0, #9
100034a0:	f7fc ff56 	bl	10000350 <DEV_Digital_Write>
100034a4:	f7ff f8a0 	bl	100025e8 <LCD_Init+0x4f0>
100034a8:	f7fc ff52 	bl	10000350 <DEV_Digital_Write>
100034ac:	2100      	movs	r1, #0
100034ae:	2009      	movs	r0, #9
100034b0:	f7fc ff4e 	bl	10000350 <DEV_Digital_Write>
100034b4:	f7ff f881 	bl	100025ba <LCD_Init+0x4c2>
100034b8:	f7fc ff4a 	bl	10000350 <DEV_Digital_Write>
100034bc:	2100      	movs	r1, #0
100034be:	2009      	movs	r0, #9
100034c0:	f7fc ff46 	bl	10000350 <DEV_Digital_Write>
100034c4:	f7ff f862 	bl	1000258c <LCD_Init+0x494>
100034c8:	f7fc ff42 	bl	10000350 <DEV_Digital_Write>
100034cc:	2100      	movs	r1, #0
100034ce:	2009      	movs	r0, #9
100034d0:	f7fc ff3e 	bl	10000350 <DEV_Digital_Write>
100034d4:	f7ff f843 	bl	1000255e <LCD_Init+0x466>
100034d8:	f7fc ff3a 	bl	10000350 <DEV_Digital_Write>
100034dc:	2100      	movs	r1, #0
100034de:	2009      	movs	r0, #9
100034e0:	f7fc ff36 	bl	10000350 <DEV_Digital_Write>
100034e4:	f7ff f824 	bl	10002530 <LCD_Init+0x438>
100034e8:	f7fc ff32 	bl	10000350 <DEV_Digital_Write>
100034ec:	2100      	movs	r1, #0
100034ee:	2009      	movs	r0, #9
100034f0:	f7fc ff2e 	bl	10000350 <DEV_Digital_Write>
100034f4:	f7fe ffff 	bl	100024f6 <LCD_Init+0x3fe>
100034f8:	f7fc ff2a 	bl	10000350 <DEV_Digital_Write>
100034fc:	2100      	movs	r1, #0
100034fe:	2009      	movs	r0, #9
10003500:	f7fc ff26 	bl	10000350 <DEV_Digital_Write>
10003504:	f7fe ffe0 	bl	100024c8 <LCD_Init+0x3d0>
10003508:	f7fc ff22 	bl	10000350 <DEV_Digital_Write>
1000350c:	2100      	movs	r1, #0
1000350e:	2009      	movs	r0, #9
10003510:	f7fc ff1e 	bl	10000350 <DEV_Digital_Write>
10003514:	f7fe ffc1 	bl	1000249a <LCD_Init+0x3a2>
10003518:	f7fc ff1a 	bl	10000350 <DEV_Digital_Write>
1000351c:	2100      	movs	r1, #0
1000351e:	2009      	movs	r0, #9
10003520:	f7fc ff16 	bl	10000350 <DEV_Digital_Write>
10003524:	f7fe ffa2 	bl	1000246c <LCD_Init+0x374>
10003528:	f7fc ff12 	bl	10000350 <DEV_Digital_Write>
1000352c:	2100      	movs	r1, #0
1000352e:	2009      	movs	r0, #9
10003530:	f7fc ff0e 	bl	10000350 <DEV_Digital_Write>
10003534:	f7fe ff83 	bl	1000243e <LCD_Init+0x346>
10003538:	f7fc ff0a 	bl	10000350 <DEV_Digital_Write>
1000353c:	2100      	movs	r1, #0
1000353e:	2009      	movs	r0, #9
10003540:	f7fc ff06 	bl	10000350 <DEV_Digital_Write>
10003544:	f7fe ff64 	bl	10002410 <LCD_Init+0x318>
10003548:	f7fc ff02 	bl	10000350 <DEV_Digital_Write>
1000354c:	2100      	movs	r1, #0
1000354e:	2009      	movs	r0, #9
10003550:	f7fc fefe 	bl	10000350 <DEV_Digital_Write>
10003554:	f7fe ff45 	bl	100023e2 <LCD_Init+0x2ea>
10003558:	f7fc fefa 	bl	10000350 <DEV_Digital_Write>
1000355c:	2100      	movs	r1, #0
1000355e:	2009      	movs	r0, #9
10003560:	f7fc fef6 	bl	10000350 <DEV_Digital_Write>
10003564:	f7fe ff26 	bl	100023b4 <LCD_Init+0x2bc>
10003568:	f7fc fef2 	bl	10000350 <DEV_Digital_Write>
1000356c:	2100      	movs	r1, #0
1000356e:	2009      	movs	r0, #9
10003570:	f7fc feee 	bl	10000350 <DEV_Digital_Write>
10003574:	f7fe ff07 	bl	10002386 <LCD_Init+0x28e>
10003578:	f7fc feea 	bl	10000350 <DEV_Digital_Write>
1000357c:	2100      	movs	r1, #0
1000357e:	2009      	movs	r0, #9
10003580:	f7fc fee6 	bl	10000350 <DEV_Digital_Write>
10003584:	f7fe fee8 	bl	10002358 <LCD_Init+0x260>
10003588:	f7fc fee2 	bl	10000350 <DEV_Digital_Write>
1000358c:	2100      	movs	r1, #0
1000358e:	2009      	movs	r0, #9
10003590:	f7fc fede 	bl	10000350 <DEV_Digital_Write>
10003594:	f7fe feba 	bl	1000230c <LCD_Init+0x214>
10003598:	f7fc feda 	bl	10000350 <DEV_Digital_Write>
1000359c:	2100      	movs	r1, #0
1000359e:	2009      	movs	r0, #9
100035a0:	f7fc fed6 	bl	10000350 <DEV_Digital_Write>
100035a4:	f7fe fe8c 	bl	100022c0 <LCD_Init+0x1c8>
100035a8:	f7fc fed2 	bl	10000350 <DEV_Digital_Write>
100035ac:	2100      	movs	r1, #0
100035ae:	2009      	movs	r0, #9
100035b0:	f7fc fece 	bl	10000350 <DEV_Digital_Write>
100035b4:	f7fe fe5e 	bl	10002274 <LCD_Init+0x17c>
100035b8:	f7fc feca 	bl	10000350 <DEV_Digital_Write>
100035bc:	2100      	movs	r1, #0
100035be:	2009      	movs	r0, #9
100035c0:	f7fc fec6 	bl	10000350 <DEV_Digital_Write>
100035c4:	f7fe fe3f 	bl	10002246 <LCD_Init+0x14e>
100035c8:	f7fc fec2 	bl	10000350 <DEV_Digital_Write>
100035cc:	2100      	movs	r1, #0
100035ce:	2009      	movs	r0, #9
100035d0:	f7fc febe 	bl	10000350 <DEV_Digital_Write>
100035d4:	f7fe fe20 	bl	10002218 <LCD_Init+0x120>
100035d8:	21a0      	movs	r1, #160	; 0xa0
100035da:	22f0      	movs	r2, #240	; 0xf0
100035dc:	0049      	lsls	r1, r1, #1
100035de:	e6b2      	b.n	10003346 <LCD_Init+0x124e>
100035e0:	4a47      	ldr	r2, [pc, #284]	; (10003700 <LCD_Init+0x1608>)
100035e2:	005b      	lsls	r3, r3, #1
100035e4:	5cd6      	ldrb	r6, [r2, r3]
100035e6:	4b45      	ldr	r3, [pc, #276]	; (100036fc <LCD_Init+0x1604>)
100035e8:	711d      	strb	r5, [r3, #4]
100035ea:	2d03      	cmp	r5, #3
100035ec:	d9f4      	bls.n	100035d8 <LCD_Init+0x14e0>
100035ee:	e6a7      	b.n	10003340 <LCD_Init+0x1248>
100035f0:	f7fc feae 	bl	10000350 <DEV_Digital_Write>
100035f4:	2100      	movs	r1, #0
100035f6:	2009      	movs	r0, #9
100035f8:	f7fc feaa 	bl	10000350 <DEV_Digital_Write>
100035fc:	e6c3      	b.n	10003386 <LCD_Init+0x128e>
100035fe:	f7fc fea7 	bl	10000350 <DEV_Digital_Write>
10003602:	2100      	movs	r1, #0
10003604:	2009      	movs	r0, #9
10003606:	f7fc fea3 	bl	10000350 <DEV_Digital_Write>
1000360a:	e685      	b.n	10003318 <LCD_Init+0x1220>
1000360c:	f7fc fea0 	bl	10000350 <DEV_Digital_Write>
10003610:	2100      	movs	r1, #0
10003612:	2009      	movs	r0, #9
10003614:	f7fc fe9c 	bl	10000350 <DEV_Digital_Write>
10003618:	e659      	b.n	100032ce <LCD_Init+0x11d6>
1000361a:	f7fc fe99 	bl	10000350 <DEV_Digital_Write>
1000361e:	2100      	movs	r1, #0
10003620:	2009      	movs	r0, #9
10003622:	f7fc fe95 	bl	10000350 <DEV_Digital_Write>
10003626:	e63c      	b.n	100032a2 <LCD_Init+0x11aa>
10003628:	f7fc fe92 	bl	10000350 <DEV_Digital_Write>
1000362c:	2100      	movs	r1, #0
1000362e:	2009      	movs	r0, #9
10003630:	f7fc fe8e 	bl	10000350 <DEV_Digital_Write>
10003634:	e61f      	b.n	10003276 <LCD_Init+0x117e>
10003636:	f7fc fe8b 	bl	10000350 <DEV_Digital_Write>
1000363a:	2100      	movs	r1, #0
1000363c:	2009      	movs	r0, #9
1000363e:	f7fc fe87 	bl	10000350 <DEV_Digital_Write>
10003642:	e602      	b.n	1000324a <LCD_Init+0x1152>
10003644:	f7fc fe84 	bl	10000350 <DEV_Digital_Write>
10003648:	2100      	movs	r1, #0
1000364a:	2009      	movs	r0, #9
1000364c:	f7fc fe80 	bl	10000350 <DEV_Digital_Write>
10003650:	e5e5      	b.n	1000321e <LCD_Init+0x1126>
10003652:	f7fc fe7d 	bl	10000350 <DEV_Digital_Write>
10003656:	2100      	movs	r1, #0
10003658:	2009      	movs	r0, #9
1000365a:	f7fc fe79 	bl	10000350 <DEV_Digital_Write>
1000365e:	e5c8      	b.n	100031f2 <LCD_Init+0x10fa>
10003660:	f7fc fe76 	bl	10000350 <DEV_Digital_Write>
10003664:	2100      	movs	r1, #0
10003666:	2009      	movs	r0, #9
10003668:	f7fc fe72 	bl	10000350 <DEV_Digital_Write>
1000366c:	e5ab      	b.n	100031c6 <LCD_Init+0x10ce>
1000366e:	f7fc fe6f 	bl	10000350 <DEV_Digital_Write>
10003672:	2100      	movs	r1, #0
10003674:	2009      	movs	r0, #9
10003676:	f7fc fe6b 	bl	10000350 <DEV_Digital_Write>
1000367a:	e58e      	b.n	1000319a <LCD_Init+0x10a2>
1000367c:	f7fc fe68 	bl	10000350 <DEV_Digital_Write>
10003680:	2100      	movs	r1, #0
10003682:	2009      	movs	r0, #9
10003684:	f7fc fe64 	bl	10000350 <DEV_Digital_Write>
10003688:	e571      	b.n	1000316e <LCD_Init+0x1076>
1000368a:	f7fc fe61 	bl	10000350 <DEV_Digital_Write>
1000368e:	2100      	movs	r1, #0
10003690:	2009      	movs	r0, #9
10003692:	f7fc fe5d 	bl	10000350 <DEV_Digital_Write>
10003696:	e554      	b.n	10003142 <LCD_Init+0x104a>
10003698:	f7fc fe5a 	bl	10000350 <DEV_Digital_Write>
1000369c:	2100      	movs	r1, #0
1000369e:	2009      	movs	r0, #9
100036a0:	f7fc fe56 	bl	10000350 <DEV_Digital_Write>
100036a4:	e537      	b.n	10003116 <LCD_Init+0x101e>
100036a6:	f7fc fe53 	bl	10000350 <DEV_Digital_Write>
100036aa:	2100      	movs	r1, #0
100036ac:	2009      	movs	r0, #9
100036ae:	f7fc fe4f 	bl	10000350 <DEV_Digital_Write>
100036b2:	e51a      	b.n	100030ea <LCD_Init+0xff2>
100036b4:	f7fc fe4c 	bl	10000350 <DEV_Digital_Write>
100036b8:	2100      	movs	r1, #0
100036ba:	2009      	movs	r0, #9
100036bc:	f7fc fe48 	bl	10000350 <DEV_Digital_Write>
100036c0:	e4fd      	b.n	100030be <LCD_Init+0xfc6>
100036c2:	f7fc fe45 	bl	10000350 <DEV_Digital_Write>
100036c6:	2100      	movs	r1, #0
100036c8:	2009      	movs	r0, #9
100036ca:	f7fc fe41 	bl	10000350 <DEV_Digital_Write>
100036ce:	e4e0      	b.n	10003092 <LCD_Init+0xf9a>
100036d0:	f7fc fe3e 	bl	10000350 <DEV_Digital_Write>
100036d4:	2100      	movs	r1, #0
100036d6:	2009      	movs	r0, #9
100036d8:	f7fc fe3a 	bl	10000350 <DEV_Digital_Write>
100036dc:	e4b4      	b.n	10003048 <LCD_Init+0xf50>
100036de:	f7fc fe37 	bl	10000350 <DEV_Digital_Write>
100036e2:	2100      	movs	r1, #0
100036e4:	2009      	movs	r0, #9
100036e6:	f7fc fe33 	bl	10000350 <DEV_Digital_Write>
100036ea:	e497      	b.n	1000301c <LCD_Init+0xf24>
100036ec:	f7fc fe30 	bl	10000350 <DEV_Digital_Write>
100036f0:	2100      	movs	r1, #0
100036f2:	2009      	movs	r0, #9
100036f4:	f7fc fe2c 	bl	10000350 <DEV_Digital_Write>
100036f8:	e47a      	b.n	10002ff0 <LCD_Init+0xef8>
100036fa:	46c0      	nop			; (mov r8, r8)
100036fc:	200270e4 	.word	0x200270e4
10003700:	1000d0b0 	.word	0x1000d0b0
10003704:	f7fc fe24 	bl	10000350 <DEV_Digital_Write>
10003708:	2100      	movs	r1, #0
1000370a:	2009      	movs	r0, #9
1000370c:	f7fc fe20 	bl	10000350 <DEV_Digital_Write>
10003710:	e458      	b.n	10002fc4 <LCD_Init+0xecc>
10003712:	f7fc fe1d 	bl	10000350 <DEV_Digital_Write>
10003716:	2100      	movs	r1, #0
10003718:	2009      	movs	r0, #9
1000371a:	f7fc fe19 	bl	10000350 <DEV_Digital_Write>
1000371e:	e43b      	b.n	10002f98 <LCD_Init+0xea0>
10003720:	f7fc fe16 	bl	10000350 <DEV_Digital_Write>
10003724:	2100      	movs	r1, #0
10003726:	2009      	movs	r0, #9
10003728:	f7fc fe12 	bl	10000350 <DEV_Digital_Write>
1000372c:	e41e      	b.n	10002f6c <LCD_Init+0xe74>
1000372e:	f7fc fe0f 	bl	10000350 <DEV_Digital_Write>
10003732:	2100      	movs	r1, #0
10003734:	2009      	movs	r0, #9
10003736:	f7fc fe0b 	bl	10000350 <DEV_Digital_Write>
1000373a:	f7ff fc01 	bl	10002f40 <LCD_Init+0xe48>
1000373e:	f7fc fe07 	bl	10000350 <DEV_Digital_Write>
10003742:	2100      	movs	r1, #0
10003744:	2009      	movs	r0, #9
10003746:	f7fc fe03 	bl	10000350 <DEV_Digital_Write>
1000374a:	f7ff fbe2 	bl	10002f12 <LCD_Init+0xe1a>
1000374e:	f7fc fdff 	bl	10000350 <DEV_Digital_Write>
10003752:	2100      	movs	r1, #0
10003754:	2009      	movs	r0, #9
10003756:	f7fc fdfb 	bl	10000350 <DEV_Digital_Write>
1000375a:	f7ff fbc3 	bl	10002ee4 <LCD_Init+0xdec>
1000375e:	f7fc fdf7 	bl	10000350 <DEV_Digital_Write>
10003762:	2100      	movs	r1, #0
10003764:	2009      	movs	r0, #9
10003766:	f7fc fdf3 	bl	10000350 <DEV_Digital_Write>
1000376a:	f7ff fba4 	bl	10002eb6 <LCD_Init+0xdbe>
1000376e:	f7fc fdef 	bl	10000350 <DEV_Digital_Write>
10003772:	2100      	movs	r1, #0
10003774:	2009      	movs	r0, #9
10003776:	f7fc fdeb 	bl	10000350 <DEV_Digital_Write>
1000377a:	f7ff fb85 	bl	10002e88 <LCD_Init+0xd90>
1000377e:	f7fc fde7 	bl	10000350 <DEV_Digital_Write>
10003782:	2100      	movs	r1, #0
10003784:	2009      	movs	r0, #9
10003786:	f7fc fde3 	bl	10000350 <DEV_Digital_Write>
1000378a:	f7ff fb66 	bl	10002e5a <LCD_Init+0xd62>
1000378e:	f7fc fddf 	bl	10000350 <DEV_Digital_Write>
10003792:	2100      	movs	r1, #0
10003794:	2009      	movs	r0, #9
10003796:	f7fc fddb 	bl	10000350 <DEV_Digital_Write>
1000379a:	f7ff fb47 	bl	10002e2c <LCD_Init+0xd34>
1000379e:	f7fc fdd7 	bl	10000350 <DEV_Digital_Write>
100037a2:	2100      	movs	r1, #0
100037a4:	2009      	movs	r0, #9
100037a6:	f7fc fdd3 	bl	10000350 <DEV_Digital_Write>
100037aa:	f7ff fb28 	bl	10002dfe <LCD_Init+0xd06>
100037ae:	f7fc fdcf 	bl	10000350 <DEV_Digital_Write>
100037b2:	2100      	movs	r1, #0
100037b4:	2009      	movs	r0, #9
100037b6:	f7fc fdcb 	bl	10000350 <DEV_Digital_Write>
100037ba:	f7ff fafa 	bl	10002db2 <LCD_Init+0xcba>
100037be:	f7fc fdc7 	bl	10000350 <DEV_Digital_Write>
100037c2:	2100      	movs	r1, #0
100037c4:	2009      	movs	r0, #9
100037c6:	f7fc fdc3 	bl	10000350 <DEV_Digital_Write>
100037ca:	f7ff fadb 	bl	10002d84 <LCD_Init+0xc8c>
100037ce:	f7fc fdbf 	bl	10000350 <DEV_Digital_Write>
100037d2:	2100      	movs	r1, #0
100037d4:	2009      	movs	r0, #9
100037d6:	f7fc fdbb 	bl	10000350 <DEV_Digital_Write>
100037da:	f7ff faad 	bl	10002d38 <LCD_Init+0xc40>
100037de:	f7fc fdb7 	bl	10000350 <DEV_Digital_Write>
100037e2:	2100      	movs	r1, #0
100037e4:	2009      	movs	r0, #9
100037e6:	f7fc fdb3 	bl	10000350 <DEV_Digital_Write>
100037ea:	f7ff fa7f 	bl	10002cec <LCD_Init+0xbf4>
100037ee:	f7fc fdaf 	bl	10000350 <DEV_Digital_Write>
100037f2:	2100      	movs	r1, #0
100037f4:	2009      	movs	r0, #9
100037f6:	f7fc fdab 	bl	10000350 <DEV_Digital_Write>
100037fa:	f7ff fa51 	bl	10002ca0 <LCD_Init+0xba8>
100037fe:	f7fc fda7 	bl	10000350 <DEV_Digital_Write>
10003802:	2100      	movs	r1, #0
10003804:	2009      	movs	r0, #9
10003806:	f7fc fda3 	bl	10000350 <DEV_Digital_Write>
1000380a:	f7ff fa23 	bl	10002c54 <LCD_Init+0xb5c>
1000380e:	f7fc fd9f 	bl	10000350 <DEV_Digital_Write>
10003812:	2100      	movs	r1, #0
10003814:	2009      	movs	r0, #9
10003816:	f7fc fd9b 	bl	10000350 <DEV_Digital_Write>
1000381a:	f7ff f9f5 	bl	10002c08 <LCD_Init+0xb10>
1000381e:	f7fc fd97 	bl	10000350 <DEV_Digital_Write>
10003822:	2100      	movs	r1, #0
10003824:	2009      	movs	r0, #9
10003826:	f7fc fd93 	bl	10000350 <DEV_Digital_Write>
1000382a:	f7ff f9c7 	bl	10002bbc <LCD_Init+0xac4>
1000382e:	f7fc fd8f 	bl	10000350 <DEV_Digital_Write>
10003832:	2100      	movs	r1, #0
10003834:	2009      	movs	r0, #9
10003836:	f7fc fd8b 	bl	10000350 <DEV_Digital_Write>
1000383a:	f7ff f999 	bl	10002b70 <LCD_Init+0xa78>
1000383e:	f7fc fd87 	bl	10000350 <DEV_Digital_Write>
10003842:	2100      	movs	r1, #0
10003844:	2009      	movs	r0, #9
10003846:	f7fc fd83 	bl	10000350 <DEV_Digital_Write>
1000384a:	f7ff f96b 	bl	10002b24 <LCD_Init+0xa2c>
1000384e:	f7fc fd7f 	bl	10000350 <DEV_Digital_Write>
10003852:	2100      	movs	r1, #0
10003854:	2009      	movs	r0, #9
10003856:	f7fc fd7b 	bl	10000350 <DEV_Digital_Write>
1000385a:	f7ff f94c 	bl	10002af6 <LCD_Init+0x9fe>
1000385e:	f7fc fd77 	bl	10000350 <DEV_Digital_Write>
10003862:	2100      	movs	r1, #0
10003864:	2009      	movs	r0, #9
10003866:	f7fc fd73 	bl	10000350 <DEV_Digital_Write>
1000386a:	f7ff f92d 	bl	10002ac8 <LCD_Init+0x9d0>
1000386e:	f7fc fd6f 	bl	10000350 <DEV_Digital_Write>
10003872:	2100      	movs	r1, #0
10003874:	2009      	movs	r0, #9
10003876:	f7fc fd6b 	bl	10000350 <DEV_Digital_Write>
1000387a:	f7ff f90e 	bl	10002a9a <LCD_Init+0x9a2>
1000387e:	f7fc fd67 	bl	10000350 <DEV_Digital_Write>
10003882:	2100      	movs	r1, #0
10003884:	2009      	movs	r0, #9
10003886:	f7fc fd63 	bl	10000350 <DEV_Digital_Write>
1000388a:	f7ff f8ef 	bl	10002a6c <LCD_Init+0x974>
1000388e:	f7fc fd5f 	bl	10000350 <DEV_Digital_Write>
10003892:	2100      	movs	r1, #0
10003894:	2009      	movs	r0, #9
10003896:	f7fc fd5b 	bl	10000350 <DEV_Digital_Write>
1000389a:	f7ff f8c1 	bl	10002a20 <LCD_Init+0x928>
1000389e:	f7fc fd57 	bl	10000350 <DEV_Digital_Write>
100038a2:	2100      	movs	r1, #0
100038a4:	2009      	movs	r0, #9
100038a6:	f7fc fd53 	bl	10000350 <DEV_Digital_Write>
100038aa:	f7ff f893 	bl	100029d4 <LCD_Init+0x8dc>
100038ae:	46c0      	nop			; (mov r8, r8)

100038b0 <LCD_SetWindow>:
100038b0:	b5f8      	push	{r3, r4, r5, r6, r7, lr}
100038b2:	46ce      	mov	lr, r9
100038b4:	4647      	mov	r7, r8
100038b6:	4680      	mov	r8, r0
100038b8:	b580      	push	{r7, lr}
100038ba:	2008      	movs	r0, #8
100038bc:	000f      	movs	r7, r1
100038be:	2100      	movs	r1, #0
100038c0:	001c      	movs	r4, r3
100038c2:	0015      	movs	r5, r2
100038c4:	f7fc fd44 	bl	10000350 <DEV_Digital_Write>
100038c8:	2100      	movs	r1, #0
100038ca:	2009      	movs	r0, #9
100038cc:	f7fc fd40 	bl	10000350 <DEV_Digital_Write>
100038d0:	202a      	movs	r0, #42	; 0x2a
100038d2:	f7fc fdf1 	bl	100004b8 <SPI4W_Write_Byte>
100038d6:	2101      	movs	r1, #1
100038d8:	2009      	movs	r0, #9
100038da:	f7fc fd39 	bl	10000350 <DEV_Digital_Write>
100038de:	4643      	mov	r3, r8
100038e0:	4e8a      	ldr	r6, [pc, #552]	; (10003b0c <LCD_SetWindow+0x25c>)
100038e2:	0a1b      	lsrs	r3, r3, #8
100038e4:	4699      	mov	r9, r3
100038e6:	7833      	ldrb	r3, [r6, #0]
100038e8:	2101      	movs	r1, #1
100038ea:	2008      	movs	r0, #8
100038ec:	2b52      	cmp	r3, #82	; 0x52
100038ee:	d100      	bne.n	100038f2 <LCD_SetWindow+0x42>
100038f0:	e0d4      	b.n	10003a9c <LCD_SetWindow+0x1ec>
100038f2:	f7fc fd2d 	bl	10000350 <DEV_Digital_Write>
100038f6:	2009      	movs	r0, #9
100038f8:	2100      	movs	r1, #0
100038fa:	f7fc fd29 	bl	10000350 <DEV_Digital_Write>
100038fe:	2000      	movs	r0, #0
10003900:	f7fc fdda 	bl	100004b8 <SPI4W_Write_Byte>
10003904:	464b      	mov	r3, r9
10003906:	b2d8      	uxtb	r0, r3
10003908:	f7fc fdd6 	bl	100004b8 <SPI4W_Write_Byte>
1000390c:	2101      	movs	r1, #1
1000390e:	2009      	movs	r0, #9
10003910:	f7fc fd1e 	bl	10000350 <DEV_Digital_Write>
10003914:	7833      	ldrb	r3, [r6, #0]
10003916:	2101      	movs	r1, #1
10003918:	2008      	movs	r0, #8
1000391a:	2b52      	cmp	r3, #82	; 0x52
1000391c:	d100      	bne.n	10003920 <LCD_SetWindow+0x70>
1000391e:	e0ee      	b.n	10003afe <LCD_SetWindow+0x24e>
10003920:	f7fc fd16 	bl	10000350 <DEV_Digital_Write>
10003924:	2009      	movs	r0, #9
10003926:	2100      	movs	r1, #0
10003928:	f7fc fd12 	bl	10000350 <DEV_Digital_Write>
1000392c:	2000      	movs	r0, #0
1000392e:	f7fc fdc3 	bl	100004b8 <SPI4W_Write_Byte>
10003932:	4643      	mov	r3, r8
10003934:	b2d8      	uxtb	r0, r3
10003936:	f7fc fdbf 	bl	100004b8 <SPI4W_Write_Byte>
1000393a:	3d01      	subs	r5, #1
1000393c:	2101      	movs	r1, #1
1000393e:	2009      	movs	r0, #9
10003940:	f7fc fd06 	bl	10000350 <DEV_Digital_Write>
10003944:	122b      	asrs	r3, r5, #8
10003946:	4698      	mov	r8, r3
10003948:	7833      	ldrb	r3, [r6, #0]
1000394a:	2101      	movs	r1, #1
1000394c:	2008      	movs	r0, #8
1000394e:	2b52      	cmp	r3, #82	; 0x52
10003950:	d100      	bne.n	10003954 <LCD_SetWindow+0xa4>
10003952:	e0cd      	b.n	10003af0 <LCD_SetWindow+0x240>
10003954:	f7fc fcfc 	bl	10000350 <DEV_Digital_Write>
10003958:	2009      	movs	r0, #9
1000395a:	2100      	movs	r1, #0
1000395c:	f7fc fcf8 	bl	10000350 <DEV_Digital_Write>
10003960:	4643      	mov	r3, r8
10003962:	0e18      	lsrs	r0, r3, #24
10003964:	f7fc fda8 	bl	100004b8 <SPI4W_Write_Byte>
10003968:	4643      	mov	r3, r8
1000396a:	b2d8      	uxtb	r0, r3
1000396c:	f7fc fda4 	bl	100004b8 <SPI4W_Write_Byte>
10003970:	2101      	movs	r1, #1
10003972:	2009      	movs	r0, #9
10003974:	f7fc fcec 	bl	10000350 <DEV_Digital_Write>
10003978:	7833      	ldrb	r3, [r6, #0]
1000397a:	2101      	movs	r1, #1
1000397c:	2008      	movs	r0, #8
1000397e:	b2ad      	uxth	r5, r5
10003980:	2b52      	cmp	r3, #82	; 0x52
10003982:	d100      	bne.n	10003986 <LCD_SetWindow+0xd6>
10003984:	e0ad      	b.n	10003ae2 <LCD_SetWindow+0x232>
10003986:	f7fc fce3 	bl	10000350 <DEV_Digital_Write>
1000398a:	2009      	movs	r0, #9
1000398c:	2100      	movs	r1, #0
1000398e:	f7fc fcdf 	bl	10000350 <DEV_Digital_Write>
10003992:	2000      	movs	r0, #0
10003994:	f7fc fd90 	bl	100004b8 <SPI4W_Write_Byte>
10003998:	b2e8      	uxtb	r0, r5
1000399a:	f7fc fd8d 	bl	100004b8 <SPI4W_Write_Byte>
1000399e:	2101      	movs	r1, #1
100039a0:	2009      	movs	r0, #9
100039a2:	f7fc fcd5 	bl	10000350 <DEV_Digital_Write>
100039a6:	2100      	movs	r1, #0
100039a8:	2008      	movs	r0, #8
100039aa:	f7fc fcd1 	bl	10000350 <DEV_Digital_Write>
100039ae:	2100      	movs	r1, #0
100039b0:	2009      	movs	r0, #9
100039b2:	f7fc fccd 	bl	10000350 <DEV_Digital_Write>
100039b6:	202b      	movs	r0, #43	; 0x2b
100039b8:	f7fc fd7e 	bl	100004b8 <SPI4W_Write_Byte>
100039bc:	2101      	movs	r1, #1
100039be:	2009      	movs	r0, #9
100039c0:	f7fc fcc6 	bl	10000350 <DEV_Digital_Write>
100039c4:	7833      	ldrb	r3, [r6, #0]
100039c6:	2101      	movs	r1, #1
100039c8:	2008      	movs	r0, #8
100039ca:	0a3d      	lsrs	r5, r7, #8
100039cc:	2b52      	cmp	r3, #82	; 0x52
100039ce:	d100      	bne.n	100039d2 <LCD_SetWindow+0x122>
100039d0:	e080      	b.n	10003ad4 <LCD_SetWindow+0x224>
100039d2:	f7fc fcbd 	bl	10000350 <DEV_Digital_Write>
100039d6:	2009      	movs	r0, #9
100039d8:	2100      	movs	r1, #0
100039da:	f7fc fcb9 	bl	10000350 <DEV_Digital_Write>
100039de:	2000      	movs	r0, #0
100039e0:	f7fc fd6a 	bl	100004b8 <SPI4W_Write_Byte>
100039e4:	b2e8      	uxtb	r0, r5
100039e6:	f7fc fd67 	bl	100004b8 <SPI4W_Write_Byte>
100039ea:	2101      	movs	r1, #1
100039ec:	2009      	movs	r0, #9
100039ee:	f7fc fcaf 	bl	10000350 <DEV_Digital_Write>
100039f2:	7833      	ldrb	r3, [r6, #0]
100039f4:	2101      	movs	r1, #1
100039f6:	2008      	movs	r0, #8
100039f8:	2b52      	cmp	r3, #82	; 0x52
100039fa:	d064      	beq.n	10003ac6 <LCD_SetWindow+0x216>
100039fc:	f7fc fca8 	bl	10000350 <DEV_Digital_Write>
10003a00:	2009      	movs	r0, #9
10003a02:	2100      	movs	r1, #0
10003a04:	f7fc fca4 	bl	10000350 <DEV_Digital_Write>
10003a08:	2000      	movs	r0, #0
10003a0a:	f7fc fd55 	bl	100004b8 <SPI4W_Write_Byte>
10003a0e:	b2f8      	uxtb	r0, r7
10003a10:	f7fc fd52 	bl	100004b8 <SPI4W_Write_Byte>
10003a14:	2101      	movs	r1, #1
10003a16:	2009      	movs	r0, #9
10003a18:	f7fc fc9a 	bl	10000350 <DEV_Digital_Write>
10003a1c:	7833      	ldrb	r3, [r6, #0]
10003a1e:	3c01      	subs	r4, #1
10003a20:	2101      	movs	r1, #1
10003a22:	2008      	movs	r0, #8
10003a24:	1225      	asrs	r5, r4, #8
10003a26:	2b52      	cmp	r3, #82	; 0x52
10003a28:	d046      	beq.n	10003ab8 <LCD_SetWindow+0x208>
10003a2a:	f7fc fc91 	bl	10000350 <DEV_Digital_Write>
10003a2e:	2009      	movs	r0, #9
10003a30:	2100      	movs	r1, #0
10003a32:	f7fc fc8d 	bl	10000350 <DEV_Digital_Write>
10003a36:	0e28      	lsrs	r0, r5, #24
10003a38:	f7fc fd3e 	bl	100004b8 <SPI4W_Write_Byte>
10003a3c:	b2e8      	uxtb	r0, r5
10003a3e:	f7fc fd3b 	bl	100004b8 <SPI4W_Write_Byte>
10003a42:	2101      	movs	r1, #1
10003a44:	2009      	movs	r0, #9
10003a46:	f7fc fc83 	bl	10000350 <DEV_Digital_Write>
10003a4a:	7833      	ldrb	r3, [r6, #0]
10003a4c:	2101      	movs	r1, #1
10003a4e:	2008      	movs	r0, #8
10003a50:	b2a4      	uxth	r4, r4
10003a52:	2b52      	cmp	r3, #82	; 0x52
10003a54:	d029      	beq.n	10003aaa <LCD_SetWindow+0x1fa>
10003a56:	f7fc fc7b 	bl	10000350 <DEV_Digital_Write>
10003a5a:	2009      	movs	r0, #9
10003a5c:	2100      	movs	r1, #0
10003a5e:	f7fc fc77 	bl	10000350 <DEV_Digital_Write>
10003a62:	2000      	movs	r0, #0
10003a64:	f7fc fd28 	bl	100004b8 <SPI4W_Write_Byte>
10003a68:	b2e0      	uxtb	r0, r4
10003a6a:	f7fc fd25 	bl	100004b8 <SPI4W_Write_Byte>
10003a6e:	2101      	movs	r1, #1
10003a70:	2009      	movs	r0, #9
10003a72:	f7fc fc6d 	bl	10000350 <DEV_Digital_Write>
10003a76:	2100      	movs	r1, #0
10003a78:	2008      	movs	r0, #8
10003a7a:	f7fc fc69 	bl	10000350 <DEV_Digital_Write>
10003a7e:	2100      	movs	r1, #0
10003a80:	2009      	movs	r0, #9
10003a82:	f7fc fc65 	bl	10000350 <DEV_Digital_Write>
10003a86:	202c      	movs	r0, #44	; 0x2c
10003a88:	f7fc fd16 	bl	100004b8 <SPI4W_Write_Byte>
10003a8c:	2101      	movs	r1, #1
10003a8e:	2009      	movs	r0, #9
10003a90:	f7fc fc5e 	bl	10000350 <DEV_Digital_Write>
10003a94:	bcc0      	pop	{r6, r7}
10003a96:	46b9      	mov	r9, r7
10003a98:	46b0      	mov	r8, r6
10003a9a:	bdf8      	pop	{r3, r4, r5, r6, r7, pc}
10003a9c:	f7fc fc58 	bl	10000350 <DEV_Digital_Write>
10003aa0:	2100      	movs	r1, #0
10003aa2:	2009      	movs	r0, #9
10003aa4:	f7fc fc54 	bl	10000350 <DEV_Digital_Write>
10003aa8:	e72c      	b.n	10003904 <LCD_SetWindow+0x54>
10003aaa:	f7fc fc51 	bl	10000350 <DEV_Digital_Write>
10003aae:	2100      	movs	r1, #0
10003ab0:	2009      	movs	r0, #9
10003ab2:	f7fc fc4d 	bl	10000350 <DEV_Digital_Write>
10003ab6:	e7d7      	b.n	10003a68 <LCD_SetWindow+0x1b8>
10003ab8:	f7fc fc4a 	bl	10000350 <DEV_Digital_Write>
10003abc:	2100      	movs	r1, #0
10003abe:	2009      	movs	r0, #9
10003ac0:	f7fc fc46 	bl	10000350 <DEV_Digital_Write>
10003ac4:	e7ba      	b.n	10003a3c <LCD_SetWindow+0x18c>
10003ac6:	f7fc fc43 	bl	10000350 <DEV_Digital_Write>
10003aca:	2100      	movs	r1, #0
10003acc:	2009      	movs	r0, #9
10003ace:	f7fc fc3f 	bl	10000350 <DEV_Digital_Write>
10003ad2:	e79c      	b.n	10003a0e <LCD_SetWindow+0x15e>
10003ad4:	f7fc fc3c 	bl	10000350 <DEV_Digital_Write>
10003ad8:	2100      	movs	r1, #0
10003ada:	2009      	movs	r0, #9
10003adc:	f7fc fc38 	bl	10000350 <DEV_Digital_Write>
10003ae0:	e780      	b.n	100039e4 <LCD_SetWindow+0x134>
10003ae2:	f7fc fc35 	bl	10000350 <DEV_Digital_Write>
10003ae6:	2100      	movs	r1, #0
10003ae8:	2009      	movs	r0, #9
10003aea:	f7fc fc31 	bl	10000350 <DEV_Digital_Write>
10003aee:	e753      	b.n	10003998 <LCD_SetWindow+0xe8>
10003af0:	f7fc fc2e 	bl	10000350 <DEV_Digital_Write>
10003af4:	2100      	movs	r1, #0
10003af6:	2009      	movs	r0, #9
10003af8:	f7fc fc2a 	bl	10000350 <DEV_Digital_Write>
10003afc:	e734      	b.n	10003968 <LCD_SetWindow+0xb8>
10003afe:	f7fc fc27 	bl	10000350 <DEV_Digital_Write>
10003b02:	2100      	movs	r1, #0
10003b04:	2009      	movs	r0, #9
10003b06:	f7fc fc23 	bl	10000350 <DEV_Digital_Write>
10003b0a:	e712      	b.n	10003932 <LCD_SetWindow+0x82>
10003b0c:	20000400 	.word	0x20000400

10003b10 <LCD_SetCursor>:
10003b10:	b5f8      	push	{r3, r4, r5, r6, r7, lr}
10003b12:	0005      	movs	r5, r0
10003b14:	000c      	movs	r4, r1
10003b16:	2008      	movs	r0, #8
10003b18:	2100      	movs	r1, #0
10003b1a:	f7fc fc19 	bl	10000350 <DEV_Digital_Write>
10003b1e:	2100      	movs	r1, #0
10003b20:	2009      	movs	r0, #9
10003b22:	f7fc fc15 	bl	10000350 <DEV_Digital_Write>
10003b26:	202a      	movs	r0, #42	; 0x2a
10003b28:	f7fc fcc6 	bl	100004b8 <SPI4W_Write_Byte>
10003b2c:	2101      	movs	r1, #1
10003b2e:	2009      	movs	r0, #9
10003b30:	f7fc fc0e 	bl	10000350 <DEV_Digital_Write>
10003b34:	4e86      	ldr	r6, [pc, #536]	; (10003d50 <LCD_SetCursor+0x240>)
10003b36:	2101      	movs	r1, #1
10003b38:	7833      	ldrb	r3, [r6, #0]
10003b3a:	2008      	movs	r0, #8
10003b3c:	0a2f      	lsrs	r7, r5, #8
10003b3e:	2b52      	cmp	r3, #82	; 0x52
10003b40:	d100      	bne.n	10003b44 <LCD_SetCursor+0x34>
10003b42:	e0cc      	b.n	10003cde <LCD_SetCursor+0x1ce>
10003b44:	f7fc fc04 	bl	10000350 <DEV_Digital_Write>
10003b48:	2009      	movs	r0, #9
10003b4a:	2100      	movs	r1, #0
10003b4c:	f7fc fc00 	bl	10000350 <DEV_Digital_Write>
10003b50:	2000      	movs	r0, #0
10003b52:	f7fc fcb1 	bl	100004b8 <SPI4W_Write_Byte>
10003b56:	b2f8      	uxtb	r0, r7
10003b58:	f7fc fcae 	bl	100004b8 <SPI4W_Write_Byte>
10003b5c:	2101      	movs	r1, #1
10003b5e:	2009      	movs	r0, #9
10003b60:	f7fc fbf6 	bl	10000350 <DEV_Digital_Write>
10003b64:	7833      	ldrb	r3, [r6, #0]
10003b66:	2101      	movs	r1, #1
10003b68:	2008      	movs	r0, #8
10003b6a:	2b52      	cmp	r3, #82	; 0x52
10003b6c:	d100      	bne.n	10003b70 <LCD_SetCursor+0x60>
10003b6e:	e0e7      	b.n	10003d40 <LCD_SetCursor+0x230>
10003b70:	f7fc fbee 	bl	10000350 <DEV_Digital_Write>
10003b74:	2009      	movs	r0, #9
10003b76:	2100      	movs	r1, #0
10003b78:	f7fc fbea 	bl	10000350 <DEV_Digital_Write>
10003b7c:	2000      	movs	r0, #0
10003b7e:	f7fc fc9b 	bl	100004b8 <SPI4W_Write_Byte>
10003b82:	b2e8      	uxtb	r0, r5
10003b84:	f7fc fc98 	bl	100004b8 <SPI4W_Write_Byte>
10003b88:	2101      	movs	r1, #1
10003b8a:	2009      	movs	r0, #9
10003b8c:	f7fc fbe0 	bl	10000350 <DEV_Digital_Write>
10003b90:	7833      	ldrb	r3, [r6, #0]
10003b92:	3d01      	subs	r5, #1
10003b94:	2101      	movs	r1, #1
10003b96:	2008      	movs	r0, #8
10003b98:	122f      	asrs	r7, r5, #8
10003b9a:	2b52      	cmp	r3, #82	; 0x52
10003b9c:	d100      	bne.n	10003ba0 <LCD_SetCursor+0x90>
10003b9e:	e0c8      	b.n	10003d32 <LCD_SetCursor+0x222>
10003ba0:	f7fc fbd6 	bl	10000350 <DEV_Digital_Write>
10003ba4:	2009      	movs	r0, #9
10003ba6:	2100      	movs	r1, #0
10003ba8:	f7fc fbd2 	bl	10000350 <DEV_Digital_Write>
10003bac:	0e38      	lsrs	r0, r7, #24
10003bae:	f7fc fc83 	bl	100004b8 <SPI4W_Write_Byte>
10003bb2:	b2f8      	uxtb	r0, r7
10003bb4:	f7fc fc80 	bl	100004b8 <SPI4W_Write_Byte>
10003bb8:	2101      	movs	r1, #1
10003bba:	2009      	movs	r0, #9
10003bbc:	f7fc fbc8 	bl	10000350 <DEV_Digital_Write>
10003bc0:	7833      	ldrb	r3, [r6, #0]
10003bc2:	2101      	movs	r1, #1
10003bc4:	2008      	movs	r0, #8
10003bc6:	b2ad      	uxth	r5, r5
10003bc8:	2b52      	cmp	r3, #82	; 0x52
10003bca:	d100      	bne.n	10003bce <LCD_SetCursor+0xbe>
10003bcc:	e0aa      	b.n	10003d24 <LCD_SetCursor+0x214>
10003bce:	f7fc fbbf 	bl	10000350 <DEV_Digital_Write>
10003bd2:	2009      	movs	r0, #9
10003bd4:	2100      	movs	r1, #0
10003bd6:	f7fc fbbb 	bl	10000350 <DEV_Digital_Write>
10003bda:	2000      	movs	r0, #0
10003bdc:	f7fc fc6c 	bl	100004b8 <SPI4W_Write_Byte>
10003be0:	b2e8      	uxtb	r0, r5
10003be2:	f7fc fc69 	bl	100004b8 <SPI4W_Write_Byte>
10003be6:	2101      	movs	r1, #1
10003be8:	2009      	movs	r0, #9
10003bea:	f7fc fbb1 	bl	10000350 <DEV_Digital_Write>
10003bee:	2100      	movs	r1, #0
10003bf0:	2008      	movs	r0, #8
10003bf2:	f7fc fbad 	bl	10000350 <DEV_Digital_Write>
10003bf6:	2100      	movs	r1, #0
10003bf8:	2009      	movs	r0, #9
10003bfa:	f7fc fba9 	bl	10000350 <DEV_Digital_Write>
10003bfe:	202b      	movs	r0, #43	; 0x2b
10003c00:	f7fc fc5a 	bl	100004b8 <SPI4W_Write_Byte>
10003c04:	2101      	movs	r1, #1
10003c06:	2009      	movs	r0, #9
10003c08:	f7fc fba2 	bl	10000350 <DEV_Digital_Write>
10003c0c:	7833      	ldrb	r3, [r6, #0]
10003c0e:	2101      	movs	r1, #1
10003c10:	2008      	movs	r0, #8
10003c12:	0a25      	lsrs	r5, r4, #8
10003c14:	2b52      	cmp	r3, #82	; 0x52
10003c16:	d100      	bne.n	10003c1a <LCD_SetCursor+0x10a>
10003c18:	e07d      	b.n	10003d16 <LCD_SetCursor+0x206>
10003c1a:	f7fc fb99 	bl	10000350 <DEV_Digital_Write>
10003c1e:	2009      	movs	r0, #9
10003c20:	2100      	movs	r1, #0
10003c22:	f7fc fb95 	bl	10000350 <DEV_Digital_Write>
10003c26:	2000      	movs	r0, #0
10003c28:	f7fc fc46 	bl	100004b8 <SPI4W_Write_Byte>
10003c2c:	b2e8      	uxtb	r0, r5
10003c2e:	f7fc fc43 	bl	100004b8 <SPI4W_Write_Byte>
10003c32:	2101      	movs	r1, #1
10003c34:	2009      	movs	r0, #9
10003c36:	f7fc fb8b 	bl	10000350 <DEV_Digital_Write>
10003c3a:	7833      	ldrb	r3, [r6, #0]
10003c3c:	2101      	movs	r1, #1
10003c3e:	2008      	movs	r0, #8
10003c40:	2b52      	cmp	r3, #82	; 0x52
10003c42:	d061      	beq.n	10003d08 <LCD_SetCursor+0x1f8>
10003c44:	f7fc fb84 	bl	10000350 <DEV_Digital_Write>
10003c48:	2009      	movs	r0, #9
10003c4a:	2100      	movs	r1, #0
10003c4c:	f7fc fb80 	bl	10000350 <DEV_Digital_Write>
10003c50:	2000      	movs	r0, #0
10003c52:	f7fc fc31 	bl	100004b8 <SPI4W_Write_Byte>
10003c56:	b2e0      	uxtb	r0, r4
10003c58:	f7fc fc2e 	bl	100004b8 <SPI4W_Write_Byte>
10003c5c:	2101      	movs	r1, #1
10003c5e:	2009      	movs	r0, #9
10003c60:	f7fc fb76 	bl	10000350 <DEV_Digital_Write>
10003c64:	7833      	ldrb	r3, [r6, #0]
10003c66:	3c01      	subs	r4, #1
10003c68:	2101      	movs	r1, #1
10003c6a:	2008      	movs	r0, #8
10003c6c:	1225      	asrs	r5, r4, #8
10003c6e:	2b52      	cmp	r3, #82	; 0x52
10003c70:	d043      	beq.n	10003cfa <LCD_SetCursor+0x1ea>
10003c72:	f7fc fb6d 	bl	10000350 <DEV_Digital_Write>
10003c76:	2009      	movs	r0, #9
10003c78:	2100      	movs	r1, #0
10003c7a:	f7fc fb69 	bl	10000350 <DEV_Digital_Write>
10003c7e:	0e28      	lsrs	r0, r5, #24
10003c80:	f7fc fc1a 	bl	100004b8 <SPI4W_Write_Byte>
10003c84:	b2e8      	uxtb	r0, r5
10003c86:	f7fc fc17 	bl	100004b8 <SPI4W_Write_Byte>
10003c8a:	2101      	movs	r1, #1
10003c8c:	2009      	movs	r0, #9
10003c8e:	f7fc fb5f 	bl	10000350 <DEV_Digital_Write>
10003c92:	7833      	ldrb	r3, [r6, #0]
10003c94:	2101      	movs	r1, #1
10003c96:	2008      	movs	r0, #8
10003c98:	b2a4      	uxth	r4, r4
10003c9a:	2b52      	cmp	r3, #82	; 0x52
10003c9c:	d026      	beq.n	10003cec <LCD_SetCursor+0x1dc>
10003c9e:	f7fc fb57 	bl	10000350 <DEV_Digital_Write>
10003ca2:	2009      	movs	r0, #9
10003ca4:	2100      	movs	r1, #0
10003ca6:	f7fc fb53 	bl	10000350 <DEV_Digital_Write>
10003caa:	2000      	movs	r0, #0
10003cac:	f7fc fc04 	bl	100004b8 <SPI4W_Write_Byte>
10003cb0:	b2e0      	uxtb	r0, r4
10003cb2:	f7fc fc01 	bl	100004b8 <SPI4W_Write_Byte>
10003cb6:	2101      	movs	r1, #1
10003cb8:	2009      	movs	r0, #9
10003cba:	f7fc fb49 	bl	10000350 <DEV_Digital_Write>
10003cbe:	2100      	movs	r1, #0
10003cc0:	2008      	movs	r0, #8
10003cc2:	f7fc fb45 	bl	10000350 <DEV_Digital_Write>
10003cc6:	2100      	movs	r1, #0
10003cc8:	2009      	movs	r0, #9
10003cca:	f7fc fb41 	bl	10000350 <DEV_Digital_Write>
10003cce:	202c      	movs	r0, #44	; 0x2c
10003cd0:	f7fc fbf2 	bl	100004b8 <SPI4W_Write_Byte>
10003cd4:	2101      	movs	r1, #1
10003cd6:	2009      	movs	r0, #9
10003cd8:	f7fc fb3a 	bl	10000350 <DEV_Digital_Write>
10003cdc:	bdf8      	pop	{r3, r4, r5, r6, r7, pc}
10003cde:	f7fc fb37 	bl	10000350 <DEV_Digital_Write>
10003ce2:	2100      	movs	r1, #0
10003ce4:	2009      	movs	r0, #9
10003ce6:	f7fc fb33 	bl	10000350 <DEV_Digital_Write>
10003cea:	e734      	b.n	10003b56 <LCD_SetCursor+0x46>
10003cec:	f7fc fb30 	bl	10000350 <DEV_Digital_Write>
10003cf0:	2100      	movs	r1, #0
10003cf2:	2009      	movs	r0, #9
10003cf4:	f7fc fb2c 	bl	10000350 <DEV_Digital_Write>
10003cf8:	e7da      	b.n	10003cb0 <LCD_SetCursor+0x1a0>
10003cfa:	f7fc fb29 	bl	10000350 <DEV_Digital_Write>
10003cfe:	2100      	movs	r1, #0
10003d00:	2009      	movs	r0, #9
10003d02:	f7fc fb25 	bl	10000350 <DEV_Digital_Write>
10003d06:	e7bd      	b.n	10003c84 <LCD_SetCursor+0x174>
10003d08:	f7fc fb22 	bl	10000350 <DEV_Digital_Write>
10003d0c:	2100      	movs	r1, #0
10003d0e:	2009      	movs	r0, #9
10003d10:	f7fc fb1e 	bl	10000350 <DEV_Digital_Write>
10003d14:	e79f      	b.n	10003c56 <LCD_SetCursor+0x146>
10003d16:	f7fc fb1b 	bl	10000350 <DEV_Digital_Write>
10003d1a:	2100      	movs	r1, #0
10003d1c:	2009      	movs	r0, #9
10003d1e:	f7fc fb17 	bl	10000350 <DEV_Digital_Write>
10003d22:	e783      	b.n	10003c2c <LCD_SetCursor+0x11c>
10003d24:	f7fc fb14 	bl	10000350 <DEV_Digital_Write>
10003d28:	2100      	movs	r1, #0
10003d2a:	2009      	movs	r0, #9
10003d2c:	f7fc fb10 	bl	10000350 <DEV_Digital_Write>
10003d30:	e756      	b.n	10003be0 <LCD_SetCursor+0xd0>
10003d32:	f7fc fb0d 	bl	10000350 <DEV_Digital_Write>
10003d36:	2100      	movs	r1, #0
10003d38:	2009      	movs	r0, #9
10003d3a:	f7fc fb09 	bl	10000350 <DEV_Digital_Write>
10003d3e:	e738      	b.n	10003bb2 <LCD_SetCursor+0xa2>
10003d40:	f7fc fb06 	bl	10000350 <DEV_Digital_Write>
10003d44:	2100      	movs	r1, #0
10003d46:	2009      	movs	r0, #9
10003d48:	f7fc fb02 	bl	10000350 <DEV_Digital_Write>
10003d4c:	e719      	b.n	10003b82 <LCD_SetCursor+0x72>
10003d4e:	46c0      	nop			; (mov r8, r8)
10003d50:	20000400 	.word	0x20000400

10003d54 <LCD_SetPointlColor>:
10003d54:	4b10      	ldr	r3, [pc, #64]	; (10003d98 <LCD_SetPointlColor+0x44>)
10003d56:	b510      	push	{r4, lr}
10003d58:	0014      	movs	r4, r2
10003d5a:	881a      	ldrh	r2, [r3, #0]
10003d5c:	4282      	cmp	r2, r0
10003d5e:	d302      	bcc.n	10003d66 <LCD_SetPointlColor+0x12>
10003d60:	885b      	ldrh	r3, [r3, #2]
10003d62:	428b      	cmp	r3, r1
10003d64:	d200      	bcs.n	10003d68 <LCD_SetPointlColor+0x14>
10003d66:	bd10      	pop	{r4, pc}
10003d68:	000b      	movs	r3, r1
10003d6a:	0002      	movs	r2, r0
10003d6c:	f7ff fda0 	bl	100038b0 <LCD_SetWindow>
10003d70:	2101      	movs	r1, #1
10003d72:	2008      	movs	r0, #8
10003d74:	f7fc faec 	bl	10000350 <DEV_Digital_Write>
10003d78:	2100      	movs	r1, #0
10003d7a:	2009      	movs	r0, #9
10003d7c:	f7fc fae8 	bl	10000350 <DEV_Digital_Write>
10003d80:	0a20      	lsrs	r0, r4, #8
10003d82:	f7fc fb99 	bl	100004b8 <SPI4W_Write_Byte>
10003d86:	b2e0      	uxtb	r0, r4
10003d88:	f7fc fb96 	bl	100004b8 <SPI4W_Write_Byte>
10003d8c:	2101      	movs	r1, #1
10003d8e:	2009      	movs	r0, #9
10003d90:	f7fc fade 	bl	10000350 <DEV_Digital_Write>
10003d94:	e7e7      	b.n	10003d66 <LCD_SetPointlColor+0x12>
10003d96:	46c0      	nop			; (mov r8, r8)
10003d98:	200270e4 	.word	0x200270e4

10003d9c <LCD_Clear>:
10003d9c:	b5f8      	push	{r3, r4, r5, r6, r7, lr}
10003d9e:	4b14      	ldr	r3, [pc, #80]	; (10003df0 <LCD_Clear+0x54>)
10003da0:	0004      	movs	r4, r0
10003da2:	881d      	ldrh	r5, [r3, #0]
10003da4:	2d00      	cmp	r5, #0
10003da6:	d002      	beq.n	10003dae <LCD_Clear+0x12>
10003da8:	885e      	ldrh	r6, [r3, #2]
10003daa:	2e00      	cmp	r6, #0
10003dac:	d100      	bne.n	10003db0 <LCD_Clear+0x14>
10003dae:	bdf8      	pop	{r3, r4, r5, r6, r7, pc}
10003db0:	0033      	movs	r3, r6
10003db2:	002a      	movs	r2, r5
10003db4:	2100      	movs	r1, #0
10003db6:	2000      	movs	r0, #0
10003db8:	f7ff fd7a 	bl	100038b0 <LCD_SetWindow>
10003dbc:	2101      	movs	r1, #1
10003dbe:	2008      	movs	r0, #8
10003dc0:	f7fc fac6 	bl	10000350 <DEV_Digital_Write>
10003dc4:	2100      	movs	r1, #0
10003dc6:	2009      	movs	r0, #9
10003dc8:	436e      	muls	r6, r5
10003dca:	f7fc fac1 	bl	10000350 <DEV_Digital_Write>
10003dce:	2500      	movs	r5, #0
10003dd0:	0a27      	lsrs	r7, r4, #8
10003dd2:	b2e4      	uxtb	r4, r4
10003dd4:	0038      	movs	r0, r7
10003dd6:	f7fc fb6f 	bl	100004b8 <SPI4W_Write_Byte>
10003dda:	3501      	adds	r5, #1
10003ddc:	0020      	movs	r0, r4
10003dde:	f7fc fb6b 	bl	100004b8 <SPI4W_Write_Byte>
10003de2:	42ae      	cmp	r6, r5
10003de4:	d1f6      	bne.n	10003dd4 <LCD_Clear+0x38>
10003de6:	2101      	movs	r1, #1
10003de8:	2009      	movs	r0, #9
10003dea:	f7fc fab1 	bl	10000350 <DEV_Digital_Write>
10003dee:	e7de      	b.n	10003dae <LCD_Clear+0x12>
10003df0:	200270e4 	.word	0x200270e4

10003df4 <GUI_DisChar.part.0>:
10003df4:	b5f0      	push	{r4, r5, r6, r7, lr}
10003df6:	464e      	mov	r6, r9
10003df8:	4645      	mov	r5, r8
10003dfa:	46de      	mov	lr, fp
10003dfc:	4657      	mov	r7, sl
10003dfe:	001c      	movs	r4, r3
10003e00:	b5e0      	push	{r5, r6, r7, lr}
10003e02:	2607      	movs	r6, #7
10003e04:	b087      	sub	sp, #28
10003e06:	9301      	str	r3, [sp, #4]
10003e08:	ab10      	add	r3, sp, #64	; 0x40
10003e0a:	9103      	str	r1, [sp, #12]
10003e0c:	8819      	ldrh	r1, [r3, #0]
10003e0e:	ab11      	add	r3, sp, #68	; 0x44
10003e10:	4688      	mov	r8, r1
10003e12:	8819      	ldrh	r1, [r3, #0]
10003e14:	9004      	str	r0, [sp, #16]
10003e16:	9102      	str	r1, [sp, #8]
10003e18:	88a1      	ldrh	r1, [r4, #4]
10003e1a:	3a20      	subs	r2, #32
10003e1c:	400e      	ands	r6, r1
10003e1e:	1e73      	subs	r3, r6, #1
10003e20:	419e      	sbcs	r6, r3
10003e22:	08cb      	lsrs	r3, r1, #3
10003e24:	18f3      	adds	r3, r6, r3
10003e26:	0016      	movs	r6, r2
10003e28:	88e0      	ldrh	r0, [r4, #6]
10003e2a:	4346      	muls	r6, r0
10003e2c:	435e      	muls	r6, r3
10003e2e:	6823      	ldr	r3, [r4, #0]
10003e30:	469c      	mov	ip, r3
10003e32:	9305      	str	r3, [sp, #20]
10003e34:	4466      	add	r6, ip
10003e36:	2800      	cmp	r0, #0
10003e38:	d061      	beq.n	10003efe <GUI_DisChar.part.0+0x10a>
10003e3a:	9b03      	ldr	r3, [sp, #12]
10003e3c:	3b01      	subs	r3, #1
10003e3e:	b29b      	uxth	r3, r3
10003e40:	469a      	mov	sl, r3
10003e42:	4b32      	ldr	r3, [pc, #200]	; (10003f0c <GUI_DisChar.part.0+0x118>)
10003e44:	4699      	mov	r9, r3
10003e46:	2900      	cmp	r1, #0
10003e48:	d059      	beq.n	10003efe <GUI_DisChar.part.0+0x10a>
10003e4a:	9b04      	ldr	r3, [sp, #16]
10003e4c:	2500      	movs	r5, #0
10003e4e:	1e58      	subs	r0, r3, #1
10003e50:	4653      	mov	r3, sl
10003e52:	3301      	adds	r3, #1
10003e54:	b29b      	uxth	r3, r3
10003e56:	469b      	mov	fp, r3
10003e58:	b280      	uxth	r0, r0
10003e5a:	e01c      	b.n	10003e96 <GUI_DisChar.part.0+0xa2>
10003e5c:	2380      	movs	r3, #128	; 0x80
10003e5e:	4123      	asrs	r3, r4
10003e60:	1c47      	adds	r7, r0, #1
10003e62:	4213      	tst	r3, r2
10003e64:	d029      	beq.n	10003eba <GUI_DisChar.part.0+0xc6>
10003e66:	464b      	mov	r3, r9
10003e68:	881a      	ldrh	r2, [r3, #0]
10003e6a:	b2bb      	uxth	r3, r7
10003e6c:	429a      	cmp	r2, r3
10003e6e:	d309      	bcc.n	10003e84 <GUI_DisChar.part.0+0x90>
10003e70:	464b      	mov	r3, r9
10003e72:	885b      	ldrh	r3, [r3, #2]
10003e74:	455b      	cmp	r3, fp
10003e76:	d305      	bcc.n	10003e84 <GUI_DisChar.part.0+0x90>
10003e78:	4651      	mov	r1, sl
10003e7a:	9a02      	ldr	r2, [sp, #8]
10003e7c:	f7ff ff6a 	bl	10003d54 <LCD_SetPointlColor>
10003e80:	9b01      	ldr	r3, [sp, #4]
10003e82:	8899      	ldrh	r1, [r3, #4]
10003e84:	3c07      	subs	r4, #7
10003e86:	4263      	negs	r3, r4
10003e88:	415c      	adcs	r4, r3
10003e8a:	3501      	adds	r5, #1
10003e8c:	b2ad      	uxth	r5, r5
10003e8e:	1936      	adds	r6, r6, r4
10003e90:	b2b8      	uxth	r0, r7
10003e92:	428d      	cmp	r5, r1
10003e94:	d221      	bcs.n	10003eda <GUI_DisChar.part.0+0xe6>
10003e96:	2407      	movs	r4, #7
10003e98:	4b1d      	ldr	r3, [pc, #116]	; (10003f10 <GUI_DisChar.part.0+0x11c>)
10003e9a:	7832      	ldrb	r2, [r6, #0]
10003e9c:	402c      	ands	r4, r5
10003e9e:	4598      	cmp	r8, r3
10003ea0:	d1dc      	bne.n	10003e5c <GUI_DisChar.part.0+0x68>
10003ea2:	2380      	movs	r3, #128	; 0x80
10003ea4:	4123      	asrs	r3, r4
10003ea6:	1c47      	adds	r7, r0, #1
10003ea8:	4213      	tst	r3, r2
10003eaa:	d0eb      	beq.n	10003e84 <GUI_DisChar.part.0+0x90>
10003eac:	4b17      	ldr	r3, [pc, #92]	; (10003f0c <GUI_DisChar.part.0+0x118>)
10003eae:	881a      	ldrh	r2, [r3, #0]
10003eb0:	4694      	mov	ip, r2
10003eb2:	b2ba      	uxth	r2, r7
10003eb4:	4594      	cmp	ip, r2
10003eb6:	d2dc      	bcs.n	10003e72 <GUI_DisChar.part.0+0x7e>
10003eb8:	e7e4      	b.n	10003e84 <GUI_DisChar.part.0+0x90>
10003eba:	464b      	mov	r3, r9
10003ebc:	881a      	ldrh	r2, [r3, #0]
10003ebe:	b2bb      	uxth	r3, r7
10003ec0:	429a      	cmp	r2, r3
10003ec2:	d3df      	bcc.n	10003e84 <GUI_DisChar.part.0+0x90>
10003ec4:	464b      	mov	r3, r9
10003ec6:	885b      	ldrh	r3, [r3, #2]
10003ec8:	455b      	cmp	r3, fp
10003eca:	d3db      	bcc.n	10003e84 <GUI_DisChar.part.0+0x90>
10003ecc:	4651      	mov	r1, sl
10003ece:	4642      	mov	r2, r8
10003ed0:	f7ff ff40 	bl	10003d54 <LCD_SetPointlColor>
10003ed4:	9b01      	ldr	r3, [sp, #4]
10003ed6:	8899      	ldrh	r1, [r3, #4]
10003ed8:	e7d4      	b.n	10003e84 <GUI_DisChar.part.0+0x90>
10003eda:	074b      	lsls	r3, r1, #29
10003edc:	d000      	beq.n	10003ee0 <GUI_DisChar.part.0+0xec>
10003ede:	3601      	adds	r6, #1
10003ee0:	9b01      	ldr	r3, [sp, #4]
10003ee2:	9803      	ldr	r0, [sp, #12]
10003ee4:	88da      	ldrh	r2, [r3, #6]
10003ee6:	4653      	mov	r3, sl
10003ee8:	1a1b      	subs	r3, r3, r0
10003eea:	3302      	adds	r3, #2
10003eec:	b29b      	uxth	r3, r3
10003eee:	429a      	cmp	r2, r3
10003ef0:	d905      	bls.n	10003efe <GUI_DisChar.part.0+0x10a>
10003ef2:	4653      	mov	r3, sl
10003ef4:	3301      	adds	r3, #1
10003ef6:	b29b      	uxth	r3, r3
10003ef8:	469a      	mov	sl, r3
10003efa:	2900      	cmp	r1, #0
10003efc:	d1a5      	bne.n	10003e4a <GUI_DisChar.part.0+0x56>
10003efe:	b007      	add	sp, #28
10003f00:	bcf0      	pop	{r4, r5, r6, r7}
10003f02:	46bb      	mov	fp, r7
10003f04:	46b2      	mov	sl, r6
10003f06:	46a9      	mov	r9, r5
10003f08:	46a0      	mov	r8, r4
10003f0a:	bdf0      	pop	{r4, r5, r6, r7, pc}
10003f0c:	200270e4 	.word	0x200270e4
10003f10:	0000ffff 	.word	0x0000ffff

10003f14 <GUI_DisString_EN>:
10003f14:	b5f0      	push	{r4, r5, r6, r7, lr}
10003f16:	4657      	mov	r7, sl
10003f18:	464e      	mov	r6, r9
10003f1a:	46de      	mov	lr, fp
10003f1c:	4645      	mov	r5, r8
10003f1e:	b5e0      	push	{r5, r6, r7, lr}
10003f20:	b085      	sub	sp, #20
10003f22:	001f      	movs	r7, r3
10003f24:	ab0e      	add	r3, sp, #56	; 0x38
10003f26:	881b      	ldrh	r3, [r3, #0]
10003f28:	468a      	mov	sl, r1
10003f2a:	9303      	str	r3, [sp, #12]
10003f2c:	ab0f      	add	r3, sp, #60	; 0x3c
10003f2e:	881b      	ldrh	r3, [r3, #0]
10003f30:	4681      	mov	r9, r0
10003f32:	469b      	mov	fp, r3
10003f34:	4b1f      	ldr	r3, [pc, #124]	; (10003fb4 <GUI_DisString_EN+0xa0>)
10003f36:	0016      	movs	r6, r2
10003f38:	8819      	ldrh	r1, [r3, #0]
10003f3a:	4698      	mov	r8, r3
10003f3c:	4281      	cmp	r1, r0
10003f3e:	d331      	bcc.n	10003fa4 <GUI_DisString_EN+0x90>
10003f40:	8858      	ldrh	r0, [r3, #2]
10003f42:	4550      	cmp	r0, sl
10003f44:	d32e      	bcc.n	10003fa4 <GUI_DisString_EN+0x90>
10003f46:	7812      	ldrb	r2, [r2, #0]
10003f48:	2a00      	cmp	r2, #0
10003f4a:	d02b      	beq.n	10003fa4 <GUI_DisString_EN+0x90>
10003f4c:	88bb      	ldrh	r3, [r7, #4]
10003f4e:	4655      	mov	r5, sl
10003f50:	469c      	mov	ip, r3
10003f52:	464c      	mov	r4, r9
10003f54:	e01d      	b.n	10003f92 <GUI_DisString_EN+0x7e>
10003f56:	88fb      	ldrh	r3, [r7, #6]
10003f58:	18eb      	adds	r3, r5, r3
10003f5a:	4283      	cmp	r3, r0
10003f5c:	dd01      	ble.n	10003f62 <GUI_DisString_EN+0x4e>
10003f5e:	4655      	mov	r5, sl
10003f60:	464c      	mov	r4, r9
10003f62:	428c      	cmp	r4, r1
10003f64:	d80c      	bhi.n	10003f80 <GUI_DisString_EN+0x6c>
10003f66:	4285      	cmp	r5, r0
10003f68:	d80a      	bhi.n	10003f80 <GUI_DisString_EN+0x6c>
10003f6a:	465b      	mov	r3, fp
10003f6c:	9301      	str	r3, [sp, #4]
10003f6e:	9b03      	ldr	r3, [sp, #12]
10003f70:	0029      	movs	r1, r5
10003f72:	9300      	str	r3, [sp, #0]
10003f74:	0020      	movs	r0, r4
10003f76:	003b      	movs	r3, r7
10003f78:	f7ff ff3c 	bl	10003df4 <GUI_DisChar.part.0>
10003f7c:	88bb      	ldrh	r3, [r7, #4]
10003f7e:	469c      	mov	ip, r3
10003f80:	7872      	ldrb	r2, [r6, #1]
10003f82:	4464      	add	r4, ip
10003f84:	3601      	adds	r6, #1
10003f86:	b2a4      	uxth	r4, r4
10003f88:	2a00      	cmp	r2, #0
10003f8a:	d00b      	beq.n	10003fa4 <GUI_DisString_EN+0x90>
10003f8c:	4643      	mov	r3, r8
10003f8e:	8819      	ldrh	r1, [r3, #0]
10003f90:	8858      	ldrh	r0, [r3, #2]
10003f92:	4663      	mov	r3, ip
10003f94:	18e3      	adds	r3, r4, r3
10003f96:	428b      	cmp	r3, r1
10003f98:	dddd      	ble.n	10003f56 <GUI_DisString_EN+0x42>
10003f9a:	88fb      	ldrh	r3, [r7, #6]
10003f9c:	464c      	mov	r4, r9
10003f9e:	18ed      	adds	r5, r5, r3
10003fa0:	b2ad      	uxth	r5, r5
10003fa2:	e7d9      	b.n	10003f58 <GUI_DisString_EN+0x44>
10003fa4:	b005      	add	sp, #20
10003fa6:	bcf0      	pop	{r4, r5, r6, r7}
10003fa8:	46bb      	mov	fp, r7
10003faa:	46b2      	mov	sl, r6
10003fac:	46a9      	mov	r9, r5
10003fae:	46a0      	mov	r8, r4
10003fb0:	bdf0      	pop	{r4, r5, r6, r7, pc}
10003fb2:	46c0      	nop			; (mov r8, r8)
10003fb4:	200270e4 	.word	0x200270e4

10003fb8 <TP_Read_ADC_Average>:
10003fb8:	b5f0      	push	{r4, r5, r6, r7, lr}
10003fba:	46c6      	mov	lr, r8
10003fbc:	b500      	push	{lr}
10003fbe:	0007      	movs	r7, r0
10003fc0:	b084      	sub	sp, #16
10003fc2:	493c      	ldr	r1, [pc, #240]	; (100040b4 <TP_Read_ADC_Average+0xfc>)
10003fc4:	483c      	ldr	r0, [pc, #240]	; (100040b8 <TP_Read_ADC_Average+0x100>)
10003fc6:	f007 ffc1 	bl	1000bf4c <spi_set_baudrate>
10003fca:	230e      	movs	r3, #14
10003fcc:	ad01      	add	r5, sp, #4
10003fce:	446b      	add	r3, sp
10003fd0:	002e      	movs	r6, r5
10003fd2:	4698      	mov	r8, r3
10003fd4:	2100      	movs	r1, #0
10003fd6:	2010      	movs	r0, #16
10003fd8:	f7fc f9ba 	bl	10000350 <DEV_Digital_Write>
10003fdc:	0038      	movs	r0, r7
10003fde:	f7fc fa6b 	bl	100004b8 <SPI4W_Write_Byte>
10003fe2:	20c8      	movs	r0, #200	; 0xc8
10003fe4:	f7fc fa8e 	bl	10000504 <Driver_Delay_us>
10003fe8:	2000      	movs	r0, #0
10003fea:	f7fc fa77 	bl	100004dc <SPI4W_Read_Byte>
10003fee:	b284      	uxth	r4, r0
10003ff0:	2000      	movs	r0, #0
10003ff2:	f7fc fa73 	bl	100004dc <SPI4W_Read_Byte>
10003ff6:	0224      	lsls	r4, r4, #8
10003ff8:	b2a4      	uxth	r4, r4
10003ffa:	4304      	orrs	r4, r0
10003ffc:	b2a4      	uxth	r4, r4
10003ffe:	2101      	movs	r1, #1
10004000:	2010      	movs	r0, #16
10004002:	08e4      	lsrs	r4, r4, #3
10004004:	f7fc f9a4 	bl	10000350 <DEV_Digital_Write>
10004008:	8034      	strh	r4, [r6, #0]
1000400a:	20c8      	movs	r0, #200	; 0xc8
1000400c:	3602      	adds	r6, #2
1000400e:	f7fc fa79 	bl	10000504 <Driver_Delay_us>
10004012:	4546      	cmp	r6, r8
10004014:	d1de      	bne.n	10003fd4 <TP_Read_ADC_Average+0x1c>
10004016:	4929      	ldr	r1, [pc, #164]	; (100040bc <TP_Read_ADC_Average+0x104>)
10004018:	4827      	ldr	r0, [pc, #156]	; (100040b8 <TP_Read_ADC_Average+0x100>)
1000401a:	f007 ff97 	bl	1000bf4c <spi_set_baudrate>
1000401e:	882b      	ldrh	r3, [r5, #0]
10004020:	886a      	ldrh	r2, [r5, #2]
10004022:	4293      	cmp	r3, r2
10004024:	d901      	bls.n	1000402a <TP_Read_ADC_Average+0x72>
10004026:	802a      	strh	r2, [r5, #0]
10004028:	806b      	strh	r3, [r5, #2]
1000402a:	882b      	ldrh	r3, [r5, #0]
1000402c:	88aa      	ldrh	r2, [r5, #4]
1000402e:	4293      	cmp	r3, r2
10004030:	d901      	bls.n	10004036 <TP_Read_ADC_Average+0x7e>
10004032:	802a      	strh	r2, [r5, #0]
10004034:	80ab      	strh	r3, [r5, #4]
10004036:	882b      	ldrh	r3, [r5, #0]
10004038:	88ea      	ldrh	r2, [r5, #6]
1000403a:	4293      	cmp	r3, r2
1000403c:	d901      	bls.n	10004042 <TP_Read_ADC_Average+0x8a>
1000403e:	802a      	strh	r2, [r5, #0]
10004040:	80eb      	strh	r3, [r5, #6]
10004042:	882b      	ldrh	r3, [r5, #0]
10004044:	892a      	ldrh	r2, [r5, #8]
10004046:	4293      	cmp	r3, r2
10004048:	d831      	bhi.n	100040ae <TP_Read_ADC_Average+0xf6>
1000404a:	886b      	ldrh	r3, [r5, #2]
1000404c:	88aa      	ldrh	r2, [r5, #4]
1000404e:	4293      	cmp	r3, r2
10004050:	d901      	bls.n	10004056 <TP_Read_ADC_Average+0x9e>
10004052:	806a      	strh	r2, [r5, #2]
10004054:	80ab      	strh	r3, [r5, #4]
10004056:	886b      	ldrh	r3, [r5, #2]
10004058:	88ea      	ldrh	r2, [r5, #6]
1000405a:	4293      	cmp	r3, r2
1000405c:	d901      	bls.n	10004062 <TP_Read_ADC_Average+0xaa>
1000405e:	806a      	strh	r2, [r5, #2]
10004060:	80eb      	strh	r3, [r5, #6]
10004062:	886b      	ldrh	r3, [r5, #2]
10004064:	892a      	ldrh	r2, [r5, #8]
10004066:	4293      	cmp	r3, r2
10004068:	d81e      	bhi.n	100040a8 <TP_Read_ADC_Average+0xf0>
1000406a:	88ab      	ldrh	r3, [r5, #4]
1000406c:	88ea      	ldrh	r2, [r5, #6]
1000406e:	4293      	cmp	r3, r2
10004070:	d901      	bls.n	10004076 <TP_Read_ADC_Average+0xbe>
10004072:	80aa      	strh	r2, [r5, #4]
10004074:	80eb      	strh	r3, [r5, #6]
10004076:	88ab      	ldrh	r3, [r5, #4]
10004078:	892a      	ldrh	r2, [r5, #8]
1000407a:	4293      	cmp	r3, r2
1000407c:	d901      	bls.n	10004082 <TP_Read_ADC_Average+0xca>
1000407e:	80aa      	strh	r2, [r5, #4]
10004080:	812b      	strh	r3, [r5, #8]
10004082:	892b      	ldrh	r3, [r5, #8]
10004084:	88ea      	ldrh	r2, [r5, #6]
10004086:	429a      	cmp	r2, r3
10004088:	d900      	bls.n	1000408c <TP_Read_ADC_Average+0xd4>
1000408a:	80eb      	strh	r3, [r5, #6]
1000408c:	88ab      	ldrh	r3, [r5, #4]
1000408e:	8868      	ldrh	r0, [r5, #2]
10004090:	2103      	movs	r1, #3
10004092:	18c0      	adds	r0, r0, r3
10004094:	88eb      	ldrh	r3, [r5, #6]
10004096:	18c0      	adds	r0, r0, r3
10004098:	b280      	uxth	r0, r0
1000409a:	f004 f915 	bl	100082c8 <__wrap___aeabi_uidiv>
1000409e:	b280      	uxth	r0, r0
100040a0:	b004      	add	sp, #16
100040a2:	bc80      	pop	{r7}
100040a4:	46b8      	mov	r8, r7
100040a6:	bdf0      	pop	{r4, r5, r6, r7, pc}
100040a8:	806a      	strh	r2, [r5, #2]
100040aa:	812b      	strh	r3, [r5, #8]
100040ac:	e7dd      	b.n	1000406a <TP_Read_ADC_Average+0xb2>
100040ae:	812b      	strh	r3, [r5, #8]
100040b0:	e7cb      	b.n	1000404a <TP_Read_ADC_Average+0x92>
100040b2:	46c0      	nop			; (mov r8, r8)
100040b4:	002dc6c0 	.word	0x002dc6c0
100040b8:	40040000 	.word	0x40040000
100040bc:	02faf080 	.word	0x02faf080

100040c0 <TP_Read_TwiceADC.constprop.0>:
100040c0:	b5f8      	push	{r3, r4, r5, r6, r7, lr}
100040c2:	20d0      	movs	r0, #208	; 0xd0
100040c4:	f7ff ff78 	bl	10003fb8 <TP_Read_ADC_Average>
100040c8:	0004      	movs	r4, r0
100040ca:	2090      	movs	r0, #144	; 0x90
100040cc:	f7ff ff74 	bl	10003fb8 <TP_Read_ADC_Average>
100040d0:	0006      	movs	r6, r0
100040d2:	200a      	movs	r0, #10
100040d4:	f7fc fa16 	bl	10000504 <Driver_Delay_us>
100040d8:	20d0      	movs	r0, #208	; 0xd0
100040da:	f7ff ff6d 	bl	10003fb8 <TP_Read_ADC_Average>
100040de:	0005      	movs	r5, r0
100040e0:	2090      	movs	r0, #144	; 0x90
100040e2:	f7ff ff69 	bl	10003fb8 <TP_Read_ADC_Average>
100040e6:	0007      	movs	r7, r0
100040e8:	200a      	movs	r0, #10
100040ea:	f7fc fa0b 	bl	10000504 <Driver_Delay_us>
100040ee:	42ac      	cmp	r4, r5
100040f0:	d20c      	bcs.n	1000410c <TP_Read_TwiceADC.constprop.0+0x4c>
100040f2:	0023      	movs	r3, r4
100040f4:	3331      	adds	r3, #49	; 0x31
100040f6:	2000      	movs	r0, #0
100040f8:	42ab      	cmp	r3, r5
100040fa:	db06      	blt.n	1000410a <TP_Read_TwiceADC.constprop.0+0x4a>
100040fc:	42be      	cmp	r6, r7
100040fe:	d20d      	bcs.n	1000411c <TP_Read_TwiceADC.constprop.0+0x5c>
10004100:	0033      	movs	r3, r6
10004102:	3331      	adds	r3, #49	; 0x31
10004104:	2000      	movs	r0, #0
10004106:	42bb      	cmp	r3, r7
10004108:	da10      	bge.n	1000412c <TP_Read_TwiceADC.constprop.0+0x6c>
1000410a:	bdf8      	pop	{r3, r4, r5, r6, r7, pc}
1000410c:	002b      	movs	r3, r5
1000410e:	3331      	adds	r3, #49	; 0x31
10004110:	42a3      	cmp	r3, r4
10004112:	daf3      	bge.n	100040fc <TP_Read_TwiceADC.constprop.0+0x3c>
10004114:	2000      	movs	r0, #0
10004116:	42ac      	cmp	r4, r5
10004118:	d1f7      	bne.n	1000410a <TP_Read_TwiceADC.constprop.0+0x4a>
1000411a:	e7ea      	b.n	100040f2 <TP_Read_TwiceADC.constprop.0+0x32>
1000411c:	003b      	movs	r3, r7
1000411e:	3331      	adds	r3, #49	; 0x31
10004120:	42b3      	cmp	r3, r6
10004122:	da03      	bge.n	1000412c <TP_Read_TwiceADC.constprop.0+0x6c>
10004124:	2000      	movs	r0, #0
10004126:	42be      	cmp	r6, r7
10004128:	d1ef      	bne.n	1000410a <TP_Read_TwiceADC.constprop.0+0x4a>
1000412a:	e7e9      	b.n	10004100 <TP_Read_TwiceADC.constprop.0+0x40>
1000412c:	4b04      	ldr	r3, [pc, #16]	; (10004140 <TP_Read_TwiceADC.constprop.0+0x80>)
1000412e:	1964      	adds	r4, r4, r5
10004130:	19f6      	adds	r6, r6, r7
10004132:	1070      	asrs	r0, r6, #1
10004134:	1064      	asrs	r4, r4, #1
10004136:	80d8      	strh	r0, [r3, #6]
10004138:	809c      	strh	r4, [r3, #4]
1000413a:	2001      	movs	r0, #1
1000413c:	e7e5      	b.n	1000410a <TP_Read_TwiceADC.constprop.0+0x4a>
1000413e:	46c0      	nop			; (mov r8, r8)
10004140:	200270f0 	.word	0x200270f0

10004144 <TP_GetAdFac>:
10004144:	b500      	push	{lr}
10004146:	4b2a      	ldr	r3, [pc, #168]	; (100041f0 <TP_GetAdFac+0xac>)
10004148:	b083      	sub	sp, #12
1000414a:	781b      	ldrb	r3, [r3, #0]
1000414c:	2b52      	cmp	r3, #82	; 0x52
1000414e:	d01b      	beq.n	10004188 <TP_GetAdFac+0x44>
10004150:	4b28      	ldr	r3, [pc, #160]	; (100041f4 <TP_GetAdFac+0xb0>)
10004152:	7e1a      	ldrb	r2, [r3, #24]
10004154:	2a06      	cmp	r2, #6
10004156:	d00c      	beq.n	10004172 <TP_GetAdFac+0x2e>
10004158:	2a00      	cmp	r2, #0
1000415a:	d121      	bne.n	100041a0 <TP_GetAdFac+0x5c>
1000415c:	4a26      	ldr	r2, [pc, #152]	; (100041f8 <TP_GetAdFac+0xb4>)
1000415e:	611a      	str	r2, [r3, #16]
10004160:	4a26      	ldr	r2, [pc, #152]	; (100041fc <TP_GetAdFac+0xb8>)
10004162:	615a      	str	r2, [r3, #20]
10004164:	2215      	movs	r2, #21
10004166:	4252      	negs	r2, r2
10004168:	815a      	strh	r2, [r3, #10]
1000416a:	3a12      	subs	r2, #18
1000416c:	819a      	strh	r2, [r3, #12]
1000416e:	b003      	add	sp, #12
10004170:	bd00      	pop	{pc}
10004172:	4a23      	ldr	r2, [pc, #140]	; (10004200 <TP_GetAdFac+0xbc>)
10004174:	611a      	str	r2, [r3, #16]
10004176:	4a23      	ldr	r2, [pc, #140]	; (10004204 <TP_GetAdFac+0xc0>)
10004178:	615a      	str	r2, [r3, #20]
1000417a:	2281      	movs	r2, #129	; 0x81
1000417c:	0092      	lsls	r2, r2, #2
1000417e:	815a      	strh	r2, [r3, #10]
10004180:	2216      	movs	r2, #22
10004182:	4252      	negs	r2, r2
10004184:	819a      	strh	r2, [r3, #12]
10004186:	e7f2      	b.n	1000416e <TP_GetAdFac+0x2a>
10004188:	4b1a      	ldr	r3, [pc, #104]	; (100041f4 <TP_GetAdFac+0xb0>)
1000418a:	4a1f      	ldr	r2, [pc, #124]	; (10004208 <TP_GetAdFac+0xc4>)
1000418c:	611a      	str	r2, [r3, #16]
1000418e:	4a1f      	ldr	r2, [pc, #124]	; (1000420c <TP_GetAdFac+0xc8>)
10004190:	615a      	str	r2, [r3, #20]
10004192:	2264      	movs	r2, #100	; 0x64
10004194:	32ff      	adds	r2, #255	; 0xff
10004196:	815a      	strh	r2, [r3, #10]
10004198:	3a78      	subs	r2, #120	; 0x78
1000419a:	3aff      	subs	r2, #255	; 0xff
1000419c:	819a      	strh	r2, [r3, #12]
1000419e:	e7e6      	b.n	1000416e <TP_GetAdFac+0x2a>
100041a0:	2a03      	cmp	r2, #3
100041a2:	d00b      	beq.n	100041bc <TP_GetAdFac+0x78>
100041a4:	2a05      	cmp	r2, #5
100041a6:	d113      	bne.n	100041d0 <TP_GetAdFac+0x8c>
100041a8:	4a19      	ldr	r2, [pc, #100]	; (10004210 <TP_GetAdFac+0xcc>)
100041aa:	611a      	str	r2, [r3, #16]
100041ac:	4a19      	ldr	r2, [pc, #100]	; (10004214 <TP_GetAdFac+0xd0>)
100041ae:	615a      	str	r2, [r3, #20]
100041b0:	4a19      	ldr	r2, [pc, #100]	; (10004218 <TP_GetAdFac+0xd4>)
100041b2:	815a      	strh	r2, [r3, #10]
100041b4:	2214      	movs	r2, #20
100041b6:	4252      	negs	r2, r2
100041b8:	819a      	strh	r2, [r3, #12]
100041ba:	e7d8      	b.n	1000416e <TP_GetAdFac+0x2a>
100041bc:	4a17      	ldr	r2, [pc, #92]	; (1000421c <TP_GetAdFac+0xd8>)
100041be:	611a      	str	r2, [r3, #16]
100041c0:	4a17      	ldr	r2, [pc, #92]	; (10004220 <TP_GetAdFac+0xdc>)
100041c2:	615a      	str	r2, [r3, #20]
100041c4:	2216      	movs	r2, #22
100041c6:	4252      	negs	r2, r2
100041c8:	815a      	strh	r2, [r3, #10]
100041ca:	3a10      	subs	r2, #16
100041cc:	819a      	strh	r2, [r3, #12]
100041ce:	e7ce      	b.n	1000416e <TP_GetAdFac+0x2a>
100041d0:	2000      	movs	r0, #0
100041d2:	f7ff fde3 	bl	10003d9c <LCD_Clear>
100041d6:	23f8      	movs	r3, #248	; 0xf8
100041d8:	021b      	lsls	r3, r3, #8
100041da:	9301      	str	r3, [sp, #4]
100041dc:	4b11      	ldr	r3, [pc, #68]	; (10004224 <TP_GetAdFac+0xe0>)
100041de:	213c      	movs	r1, #60	; 0x3c
100041e0:	9300      	str	r3, [sp, #0]
100041e2:	2000      	movs	r0, #0
100041e4:	4b10      	ldr	r3, [pc, #64]	; (10004228 <TP_GetAdFac+0xe4>)
100041e6:	4a11      	ldr	r2, [pc, #68]	; (1000422c <TP_GetAdFac+0xe8>)
100041e8:	f7ff fe94 	bl	10003f14 <GUI_DisString_EN>
100041ec:	e7bf      	b.n	1000416e <TP_GetAdFac+0x2a>
100041ee:	46c0      	nop			; (mov r8, r8)
100041f0:	20000400 	.word	0x20000400
100041f4:	200270f0 	.word	0x200270f0
100041f8:	3db7b310 	.word	0x3db7b310
100041fc:	3e0a06ea 	.word	0x3e0a06ea
10004200:	be079f23 	.word	0xbe079f23
10004204:	3db85059 	.word	0x3db85059
10004208:	bdb9ab6d 	.word	0xbdb9ab6d
1000420c:	3d8f11b6 	.word	0x3d8f11b6
10004210:	be081883 	.word	0xbe081883
10004214:	3db42678 	.word	0x3db42678
10004218:	00000205 	.word	0x00000205
1000421c:	3db8255b 	.word	0x3db8255b
10004220:	3e085fd0 	.word	0x3e085fd0
10004224:	0000ffff 	.word	0x0000ffff
10004228:	200003f8 	.word	0x200003f8
1000422c:	1000d0c0 	.word	0x1000d0c0

10004230 <TP_gesmain>:
10004230:	b510      	push	{r4, lr}
10004232:	4c1e      	ldr	r4, [pc, #120]	; (100042ac <TP_gesmain+0x7c>)
10004234:	8823      	ldrh	r3, [r4, #0]
10004236:	1e5a      	subs	r2, r3, #1
10004238:	2a06      	cmp	r2, #6
1000423a:	d815      	bhi.n	10004268 <TP_gesmain+0x38>
1000423c:	2201      	movs	r2, #1
1000423e:	4b1c      	ldr	r3, [pc, #112]	; (100042b0 <TP_gesmain+0x80>)
10004240:	701a      	strb	r2, [r3, #0]
10004242:	2300      	movs	r3, #0
10004244:	8023      	strh	r3, [r4, #0]
10004246:	2007      	movs	r0, #7
10004248:	f7fd ff04 	bl	10002054 <LCD_SetGramScanWay>
1000424c:	4a19      	ldr	r2, [pc, #100]	; (100042b4 <TP_gesmain+0x84>)
1000424e:	2100      	movs	r1, #0
10004250:	2000      	movs	r0, #0
10004252:	f7fc f9c9 	bl	100005e8 <Storage_OpenReadFile>
10004256:	2004      	movs	r0, #4
10004258:	f7fd fefc 	bl	10002054 <LCD_SetGramScanWay>
1000425c:	2300      	movs	r3, #0
1000425e:	2201      	movs	r2, #1
10004260:	8023      	strh	r3, [r4, #0]
10004262:	4b15      	ldr	r3, [pc, #84]	; (100042b8 <TP_gesmain+0x88>)
10004264:	701a      	strb	r2, [r3, #0]
10004266:	bd10      	pop	{r4, pc}
10004268:	001a      	movs	r2, r3
1000426a:	3a08      	subs	r2, #8
1000426c:	2a04      	cmp	r2, #4
1000426e:	d815      	bhi.n	1000429c <TP_gesmain+0x6c>
10004270:	2200      	movs	r2, #0
10004272:	4b0f      	ldr	r3, [pc, #60]	; (100042b0 <TP_gesmain+0x80>)
10004274:	701a      	strb	r2, [r3, #0]
10004276:	2307      	movs	r3, #7
10004278:	8023      	strh	r3, [r4, #0]
1000427a:	2007      	movs	r0, #7
1000427c:	f7fd feea 	bl	10002054 <LCD_SetGramScanWay>
10004280:	4a0e      	ldr	r2, [pc, #56]	; (100042bc <TP_gesmain+0x8c>)
10004282:	2100      	movs	r1, #0
10004284:	2000      	movs	r0, #0
10004286:	f7fc f9af 	bl	100005e8 <Storage_OpenReadFile>
1000428a:	2004      	movs	r0, #4
1000428c:	f7fd fee2 	bl	10002054 <LCD_SetGramScanWay>
10004290:	2307      	movs	r3, #7
10004292:	2201      	movs	r2, #1
10004294:	8023      	strh	r3, [r4, #0]
10004296:	4b08      	ldr	r3, [pc, #32]	; (100042b8 <TP_gesmain+0x88>)
10004298:	701a      	strb	r2, [r3, #0]
1000429a:	e7e4      	b.n	10004266 <TP_gesmain+0x36>
1000429c:	2b00      	cmp	r3, #0
1000429e:	d0e7      	beq.n	10004270 <TP_gesmain+0x40>
100042a0:	4b03      	ldr	r3, [pc, #12]	; (100042b0 <TP_gesmain+0x80>)
100042a2:	781b      	ldrb	r3, [r3, #0]
100042a4:	2b00      	cmp	r3, #0
100042a6:	d0e8      	beq.n	1000427a <TP_gesmain+0x4a>
100042a8:	e7cd      	b.n	10004246 <TP_gesmain+0x16>
100042aa:	46c0      	nop			; (mov r8, r8)
100042ac:	20000404 	.word	0x20000404
100042b0:	20000402 	.word	0x20000402
100042b4:	1000d104 	.word	0x1000d104
100042b8:	20000401 	.word	0x20000401
100042bc:	1000d110 	.word	0x1000d110

100042c0 <TP_DrawBoard>:
100042c0:	b5f8      	push	{r3, r4, r5, r6, r7, lr}
100042c2:	46ce      	mov	lr, r9
100042c4:	4647      	mov	r7, r8
100042c6:	2011      	movs	r0, #17
100042c8:	b580      	push	{r7, lr}
100042ca:	f7fc f84b 	bl	10000364 <DEV_Digital_Read>
100042ce:	2800      	cmp	r0, #0
100042d0:	d000      	beq.n	100042d4 <TP_DrawBoard+0x14>
100042d2:	e072      	b.n	100043ba <TP_DrawBoard+0xfa>
100042d4:	f7ff fef4 	bl	100040c0 <TP_Read_TwiceADC.constprop.0>
100042d8:	2800      	cmp	r0, #0
100042da:	d129      	bne.n	10004330 <TP_DrawBoard+0x70>
100042dc:	4fb7      	ldr	r7, [pc, #732]	; (100045bc <TP_DrawBoard+0x2fc>)
100042de:	4eb8      	ldr	r6, [pc, #736]	; (100045c0 <TP_DrawBoard+0x300>)
100042e0:	883b      	ldrh	r3, [r7, #0]
100042e2:	8835      	ldrh	r5, [r6, #0]
100042e4:	4698      	mov	r8, r3
100042e6:	4cb7      	ldr	r4, [pc, #732]	; (100045c4 <TP_DrawBoard+0x304>)
100042e8:	7a23      	ldrb	r3, [r4, #8]
100042ea:	2b7f      	cmp	r3, #127	; 0x7f
100042ec:	d803      	bhi.n	100042f6 <TP_DrawBoard+0x36>
100042ee:	23c0      	movs	r3, #192	; 0xc0
100042f0:	7223      	strb	r3, [r4, #8]
100042f2:	6863      	ldr	r3, [r4, #4]
100042f4:	6023      	str	r3, [r4, #0]
100042f6:	4545      	cmp	r5, r8
100042f8:	d216      	bcs.n	10004328 <TP_DrawBoard+0x68>
100042fa:	8873      	ldrh	r3, [r6, #2]
100042fc:	887a      	ldrh	r2, [r7, #2]
100042fe:	429a      	cmp	r2, r3
10004300:	d912      	bls.n	10004328 <TP_DrawBoard+0x68>
10004302:	1e6a      	subs	r2, r5, #1
10004304:	2a30      	cmp	r2, #48	; 0x30
10004306:	d900      	bls.n	1000430a <TP_DrawBoard+0x4a>
10004308:	e093      	b.n	10004432 <TP_DrawBoard+0x172>
1000430a:	2b00      	cmp	r3, #0
1000430c:	d100      	bne.n	10004310 <TP_DrawBoard+0x50>
1000430e:	e099      	b.n	10004444 <TP_DrawBoard+0x184>
10004310:	2b31      	cmp	r3, #49	; 0x31
10004312:	d900      	bls.n	10004316 <TP_DrawBoard+0x56>
10004314:	e08d      	b.n	10004432 <TP_DrawBoard+0x172>
10004316:	4aac      	ldr	r2, [pc, #688]	; (100045c8 <TP_DrawBoard+0x308>)
10004318:	8812      	ldrh	r2, [r2, #0]
1000431a:	2a07      	cmp	r2, #7
1000431c:	d900      	bls.n	10004320 <TP_DrawBoard+0x60>
1000431e:	e088      	b.n	10004432 <TP_DrawBoard+0x172>
10004320:	f7ff ff86 	bl	10004230 <TP_gesmain>
10004324:	4ba9      	ldr	r3, [pc, #676]	; (100045cc <TP_DrawBoard+0x30c>)
10004326:	6033      	str	r3, [r6, #0]
10004328:	bcc0      	pop	{r6, r7}
1000432a:	46b9      	mov	r9, r7
1000432c:	46b0      	mov	r8, r6
1000432e:	bdf8      	pop	{r3, r4, r5, r6, r7, pc}
10004330:	4ba7      	ldr	r3, [pc, #668]	; (100045d0 <TP_DrawBoard+0x310>)
10004332:	4ca4      	ldr	r4, [pc, #656]	; (100045c4 <TP_DrawBoard+0x304>)
10004334:	781b      	ldrb	r3, [r3, #0]
10004336:	2b52      	cmp	r3, #82	; 0x52
10004338:	d051      	beq.n	100043de <TP_DrawBoard+0x11e>
1000433a:	7e23      	ldrb	r3, [r4, #24]
1000433c:	2b03      	cmp	r3, #3
1000433e:	d100      	bne.n	10004342 <TP_DrawBoard+0x82>
10004340:	e0b4      	b.n	100044ac <TP_DrawBoard+0x1ec>
10004342:	2b00      	cmp	r3, #0
10004344:	d148      	bne.n	100043d8 <TP_DrawBoard+0x118>
10004346:	4f9d      	ldr	r7, [pc, #628]	; (100045bc <TP_DrawBoard+0x2fc>)
10004348:	883b      	ldrh	r3, [r7, #0]
1000434a:	0018      	movs	r0, r3
1000434c:	4698      	mov	r8, r3
1000434e:	f004 fe1f 	bl	10008f90 <__wrap___aeabi_i2f>
10004352:	1c05      	adds	r5, r0, #0
10004354:	88a0      	ldrh	r0, [r4, #4]
10004356:	f004 fe1b 	bl	10008f90 <__wrap___aeabi_i2f>
1000435a:	6921      	ldr	r1, [r4, #16]
1000435c:	f004 fe11 	bl	10008f82 <__wrap___aeabi_fmul>
10004360:	1c01      	adds	r1, r0, #0
10004362:	1c28      	adds	r0, r5, #0
10004364:	f004 fdf3 	bl	10008f4e <__wrap___aeabi_fsub>
10004368:	1c05      	adds	r5, r0, #0
1000436a:	230a      	movs	r3, #10
1000436c:	5ee0      	ldrsh	r0, [r4, r3]
1000436e:	f004 fe0f 	bl	10008f90 <__wrap___aeabi_i2f>
10004372:	1c01      	adds	r1, r0, #0
10004374:	1c28      	adds	r0, r5, #0
10004376:	f004 fdea 	bl	10008f4e <__wrap___aeabi_fsub>
1000437a:	f004 fe2b 	bl	10008fd4 <__wrap___aeabi_f2uiz>
1000437e:	4e90      	ldr	r6, [pc, #576]	; (100045c0 <TP_DrawBoard+0x300>)
10004380:	b285      	uxth	r5, r0
10004382:	8035      	strh	r5, [r6, #0]
10004384:	8878      	ldrh	r0, [r7, #2]
10004386:	f004 fe03 	bl	10008f90 <__wrap___aeabi_i2f>
1000438a:	4681      	mov	r9, r0
1000438c:	88e0      	ldrh	r0, [r4, #6]
1000438e:	f004 fdff 	bl	10008f90 <__wrap___aeabi_i2f>
10004392:	6961      	ldr	r1, [r4, #20]
10004394:	f004 fdf5 	bl	10008f82 <__wrap___aeabi_fmul>
10004398:	1c01      	adds	r1, r0, #0
1000439a:	4648      	mov	r0, r9
1000439c:	f004 fdd7 	bl	10008f4e <__wrap___aeabi_fsub>
100043a0:	4681      	mov	r9, r0
100043a2:	230c      	movs	r3, #12
100043a4:	5ee0      	ldrsh	r0, [r4, r3]
100043a6:	f004 fdf3 	bl	10008f90 <__wrap___aeabi_i2f>
100043aa:	1c01      	adds	r1, r0, #0
100043ac:	4648      	mov	r0, r9
100043ae:	f004 fdce 	bl	10008f4e <__wrap___aeabi_fsub>
100043b2:	f004 fe0f 	bl	10008fd4 <__wrap___aeabi_f2uiz>
100043b6:	8070      	strh	r0, [r6, #2]
100043b8:	e796      	b.n	100042e8 <TP_DrawBoard+0x28>
100043ba:	2108      	movs	r1, #8
100043bc:	4b81      	ldr	r3, [pc, #516]	; (100045c4 <TP_DrawBoard+0x304>)
100043be:	5659      	ldrsb	r1, [r3, r1]
100043c0:	7a18      	ldrb	r0, [r3, #8]
100043c2:	2900      	cmp	r1, #0
100043c4:	db04      	blt.n	100043d0 <TP_DrawBoard+0x110>
100043c6:	2200      	movs	r2, #0
100043c8:	601a      	str	r2, [r3, #0]
100043ca:	3a01      	subs	r2, #1
100043cc:	605a      	str	r2, [r3, #4]
100043ce:	e7ab      	b.n	10004328 <TP_DrawBoard+0x68>
100043d0:	227f      	movs	r2, #127	; 0x7f
100043d2:	4002      	ands	r2, r0
100043d4:	721a      	strb	r2, [r3, #8]
100043d6:	e7a7      	b.n	10004328 <TP_DrawBoard+0x68>
100043d8:	2b05      	cmp	r3, #5
100043da:	d000      	beq.n	100043de <TP_DrawBoard+0x11e>
100043dc:	e08e      	b.n	100044fc <TP_DrawBoard+0x23c>
100043de:	88e0      	ldrh	r0, [r4, #6]
100043e0:	f004 fdd6 	bl	10008f90 <__wrap___aeabi_i2f>
100043e4:	6921      	ldr	r1, [r4, #16]
100043e6:	f004 fdcc 	bl	10008f82 <__wrap___aeabi_fmul>
100043ea:	1c05      	adds	r5, r0, #0
100043ec:	230a      	movs	r3, #10
100043ee:	5ee0      	ldrsh	r0, [r4, r3]
100043f0:	f004 fdce 	bl	10008f90 <__wrap___aeabi_i2f>
100043f4:	1c01      	adds	r1, r0, #0
100043f6:	1c28      	adds	r0, r5, #0
100043f8:	f004 fdac 	bl	10008f54 <__wrap___aeabi_fadd>
100043fc:	f004 fdea 	bl	10008fd4 <__wrap___aeabi_f2uiz>
10004400:	4e6f      	ldr	r6, [pc, #444]	; (100045c0 <TP_DrawBoard+0x300>)
10004402:	b285      	uxth	r5, r0
10004404:	8035      	strh	r5, [r6, #0]
10004406:	88a0      	ldrh	r0, [r4, #4]
10004408:	f004 fdc2 	bl	10008f90 <__wrap___aeabi_i2f>
1000440c:	6961      	ldr	r1, [r4, #20]
1000440e:	f004 fdb8 	bl	10008f82 <__wrap___aeabi_fmul>
10004412:	1c07      	adds	r7, r0, #0
10004414:	230c      	movs	r3, #12
10004416:	5ee0      	ldrsh	r0, [r4, r3]
10004418:	f004 fdba 	bl	10008f90 <__wrap___aeabi_i2f>
1000441c:	1c01      	adds	r1, r0, #0
1000441e:	1c38      	adds	r0, r7, #0
10004420:	f004 fd98 	bl	10008f54 <__wrap___aeabi_fadd>
10004424:	f004 fdd6 	bl	10008fd4 <__wrap___aeabi_f2uiz>
10004428:	4f64      	ldr	r7, [pc, #400]	; (100045bc <TP_DrawBoard+0x2fc>)
1000442a:	8070      	strh	r0, [r6, #2]
1000442c:	883b      	ldrh	r3, [r7, #0]
1000442e:	4698      	mov	r8, r3
10004430:	e75a      	b.n	100042e8 <TP_DrawBoard+0x28>
10004432:	002a      	movs	r2, r5
10004434:	3a0b      	subs	r2, #11
10004436:	2a55      	cmp	r2, #85	; 0x55
10004438:	d94e      	bls.n	100044d8 <TP_DrawBoard+0x218>
1000443a:	002a      	movs	r2, r5
1000443c:	3a73      	subs	r2, #115	; 0x73
1000443e:	2a57      	cmp	r2, #87	; 0x57
10004440:	d800      	bhi.n	10004444 <TP_DrawBoard+0x184>
10004442:	e080      	b.n	10004546 <TP_DrawBoard+0x286>
10004444:	002a      	movs	r2, r5
10004446:	3a72      	subs	r2, #114	; 0x72
10004448:	2a58      	cmp	r2, #88	; 0x58
1000444a:	d818      	bhi.n	1000447e <TP_DrawBoard+0x1be>
1000444c:	001a      	movs	r2, r3
1000444e:	3a96      	subs	r2, #150	; 0x96
10004450:	2a4f      	cmp	r2, #79	; 0x4f
10004452:	d814      	bhi.n	1000447e <TP_DrawBoard+0x1be>
10004454:	4a5c      	ldr	r2, [pc, #368]	; (100045c8 <TP_DrawBoard+0x308>)
10004456:	8811      	ldrh	r1, [r2, #0]
10004458:	2900      	cmp	r1, #0
1000445a:	d110      	bne.n	1000447e <TP_DrawBoard+0x1be>
1000445c:	2304      	movs	r3, #4
1000445e:	8013      	strh	r3, [r2, #0]
10004460:	2201      	movs	r2, #1
10004462:	4b5c      	ldr	r3, [pc, #368]	; (100045d4 <TP_DrawBoard+0x314>)
10004464:	2007      	movs	r0, #7
10004466:	701a      	strb	r2, [r3, #0]
10004468:	f7fd fdf4 	bl	10002054 <LCD_SetGramScanWay>
1000446c:	4a5a      	ldr	r2, [pc, #360]	; (100045d8 <TP_DrawBoard+0x318>)
1000446e:	2100      	movs	r1, #0
10004470:	2000      	movs	r0, #0
10004472:	f7fc f8b9 	bl	100005e8 <Storage_OpenReadFile>
10004476:	2004      	movs	r0, #4
10004478:	f7fd fdec 	bl	10002054 <LCD_SetGramScanWay>
1000447c:	e752      	b.n	10004324 <TP_DrawBoard+0x64>
1000447e:	3ddb      	subs	r5, #219	; 0xdb
10004480:	2d57      	cmp	r5, #87	; 0x57
10004482:	d900      	bls.n	10004486 <TP_DrawBoard+0x1c6>
10004484:	e74e      	b.n	10004324 <TP_DrawBoard+0x64>
10004486:	001a      	movs	r2, r3
10004488:	3a34      	subs	r2, #52	; 0x34
1000448a:	2a4f      	cmp	r2, #79	; 0x4f
1000448c:	d86f      	bhi.n	1000456e <TP_DrawBoard+0x2ae>
1000448e:	4b4e      	ldr	r3, [pc, #312]	; (100045c8 <TP_DrawBoard+0x308>)
10004490:	881a      	ldrh	r2, [r3, #0]
10004492:	2a00      	cmp	r2, #0
10004494:	d000      	beq.n	10004498 <TP_DrawBoard+0x1d8>
10004496:	e745      	b.n	10004324 <TP_DrawBoard+0x64>
10004498:	3205      	adds	r2, #5
1000449a:	801a      	strh	r2, [r3, #0]
1000449c:	4b4d      	ldr	r3, [pc, #308]	; (100045d4 <TP_DrawBoard+0x314>)
1000449e:	3a04      	subs	r2, #4
100044a0:	2007      	movs	r0, #7
100044a2:	701a      	strb	r2, [r3, #0]
100044a4:	f7fd fdd6 	bl	10002054 <LCD_SetGramScanWay>
100044a8:	4a4c      	ldr	r2, [pc, #304]	; (100045dc <TP_DrawBoard+0x31c>)
100044aa:	e7e0      	b.n	1000446e <TP_DrawBoard+0x1ae>
100044ac:	88a0      	ldrh	r0, [r4, #4]
100044ae:	f004 fd6f 	bl	10008f90 <__wrap___aeabi_i2f>
100044b2:	6921      	ldr	r1, [r4, #16]
100044b4:	f004 fd65 	bl	10008f82 <__wrap___aeabi_fmul>
100044b8:	1c05      	adds	r5, r0, #0
100044ba:	230a      	movs	r3, #10
100044bc:	5ee0      	ldrsh	r0, [r4, r3]
100044be:	f004 fd67 	bl	10008f90 <__wrap___aeabi_i2f>
100044c2:	1c01      	adds	r1, r0, #0
100044c4:	1c28      	adds	r0, r5, #0
100044c6:	f004 fd45 	bl	10008f54 <__wrap___aeabi_fadd>
100044ca:	f004 fd83 	bl	10008fd4 <__wrap___aeabi_f2uiz>
100044ce:	4e3c      	ldr	r6, [pc, #240]	; (100045c0 <TP_DrawBoard+0x300>)
100044d0:	b285      	uxth	r5, r0
100044d2:	8035      	strh	r5, [r6, #0]
100044d4:	88e0      	ldrh	r0, [r4, #6]
100044d6:	e797      	b.n	10004408 <TP_DrawBoard+0x148>
100044d8:	001a      	movs	r2, r3
100044da:	3a35      	subs	r2, #53	; 0x35
100044dc:	2a4e      	cmp	r2, #78	; 0x4e
100044de:	d859      	bhi.n	10004594 <TP_DrawBoard+0x2d4>
100044e0:	4a39      	ldr	r2, [pc, #228]	; (100045c8 <TP_DrawBoard+0x308>)
100044e2:	8811      	ldrh	r1, [r2, #0]
100044e4:	2900      	cmp	r1, #0
100044e6:	d1a8      	bne.n	1000443a <TP_DrawBoard+0x17a>
100044e8:	2301      	movs	r3, #1
100044ea:	8013      	strh	r3, [r2, #0]
100044ec:	2201      	movs	r2, #1
100044ee:	4b39      	ldr	r3, [pc, #228]	; (100045d4 <TP_DrawBoard+0x314>)
100044f0:	2007      	movs	r0, #7
100044f2:	701a      	strb	r2, [r3, #0]
100044f4:	f7fd fdae 	bl	10002054 <LCD_SetGramScanWay>
100044f8:	4a39      	ldr	r2, [pc, #228]	; (100045e0 <TP_DrawBoard+0x320>)
100044fa:	e7b8      	b.n	1000446e <TP_DrawBoard+0x1ae>
100044fc:	4f2f      	ldr	r7, [pc, #188]	; (100045bc <TP_DrawBoard+0x2fc>)
100044fe:	883b      	ldrh	r3, [r7, #0]
10004500:	0018      	movs	r0, r3
10004502:	4698      	mov	r8, r3
10004504:	f004 fd44 	bl	10008f90 <__wrap___aeabi_i2f>
10004508:	1c05      	adds	r5, r0, #0
1000450a:	88e0      	ldrh	r0, [r4, #6]
1000450c:	f004 fd40 	bl	10008f90 <__wrap___aeabi_i2f>
10004510:	6921      	ldr	r1, [r4, #16]
10004512:	f004 fd36 	bl	10008f82 <__wrap___aeabi_fmul>
10004516:	1c01      	adds	r1, r0, #0
10004518:	1c28      	adds	r0, r5, #0
1000451a:	f004 fd18 	bl	10008f4e <__wrap___aeabi_fsub>
1000451e:	1c05      	adds	r5, r0, #0
10004520:	230a      	movs	r3, #10
10004522:	5ee0      	ldrsh	r0, [r4, r3]
10004524:	f004 fd34 	bl	10008f90 <__wrap___aeabi_i2f>
10004528:	1c01      	adds	r1, r0, #0
1000452a:	1c28      	adds	r0, r5, #0
1000452c:	f004 fd0f 	bl	10008f4e <__wrap___aeabi_fsub>
10004530:	f004 fd50 	bl	10008fd4 <__wrap___aeabi_f2uiz>
10004534:	4e22      	ldr	r6, [pc, #136]	; (100045c0 <TP_DrawBoard+0x300>)
10004536:	b285      	uxth	r5, r0
10004538:	8035      	strh	r5, [r6, #0]
1000453a:	8878      	ldrh	r0, [r7, #2]
1000453c:	f004 fd28 	bl	10008f90 <__wrap___aeabi_i2f>
10004540:	4681      	mov	r9, r0
10004542:	88a0      	ldrh	r0, [r4, #4]
10004544:	e723      	b.n	1000438e <TP_DrawBoard+0xce>
10004546:	001a      	movs	r2, r3
10004548:	3a34      	subs	r2, #52	; 0x34
1000454a:	2a4f      	cmp	r2, #79	; 0x4f
1000454c:	d900      	bls.n	10004550 <TP_DrawBoard+0x290>
1000454e:	e779      	b.n	10004444 <TP_DrawBoard+0x184>
10004550:	4a1d      	ldr	r2, [pc, #116]	; (100045c8 <TP_DrawBoard+0x308>)
10004552:	8811      	ldrh	r1, [r2, #0]
10004554:	2900      	cmp	r1, #0
10004556:	d000      	beq.n	1000455a <TP_DrawBoard+0x29a>
10004558:	e774      	b.n	10004444 <TP_DrawBoard+0x184>
1000455a:	2303      	movs	r3, #3
1000455c:	8013      	strh	r3, [r2, #0]
1000455e:	2201      	movs	r2, #1
10004560:	4b1c      	ldr	r3, [pc, #112]	; (100045d4 <TP_DrawBoard+0x314>)
10004562:	2007      	movs	r0, #7
10004564:	701a      	strb	r2, [r3, #0]
10004566:	f7fd fd75 	bl	10002054 <LCD_SetGramScanWay>
1000456a:	4a1e      	ldr	r2, [pc, #120]	; (100045e4 <TP_DrawBoard+0x324>)
1000456c:	e77f      	b.n	1000446e <TP_DrawBoard+0x1ae>
1000456e:	3b97      	subs	r3, #151	; 0x97
10004570:	2b4e      	cmp	r3, #78	; 0x4e
10004572:	d900      	bls.n	10004576 <TP_DrawBoard+0x2b6>
10004574:	e6d6      	b.n	10004324 <TP_DrawBoard+0x64>
10004576:	4b14      	ldr	r3, [pc, #80]	; (100045c8 <TP_DrawBoard+0x308>)
10004578:	881a      	ldrh	r2, [r3, #0]
1000457a:	2a00      	cmp	r2, #0
1000457c:	d000      	beq.n	10004580 <TP_DrawBoard+0x2c0>
1000457e:	e6d1      	b.n	10004324 <TP_DrawBoard+0x64>
10004580:	3206      	adds	r2, #6
10004582:	801a      	strh	r2, [r3, #0]
10004584:	4b13      	ldr	r3, [pc, #76]	; (100045d4 <TP_DrawBoard+0x314>)
10004586:	3a05      	subs	r2, #5
10004588:	2007      	movs	r0, #7
1000458a:	701a      	strb	r2, [r3, #0]
1000458c:	f7fd fd62 	bl	10002054 <LCD_SetGramScanWay>
10004590:	4a15      	ldr	r2, [pc, #84]	; (100045e8 <TP_DrawBoard+0x328>)
10004592:	e76c      	b.n	1000446e <TP_DrawBoard+0x1ae>
10004594:	001a      	movs	r2, r3
10004596:	3a96      	subs	r2, #150	; 0x96
10004598:	2a4f      	cmp	r2, #79	; 0x4f
1000459a:	d900      	bls.n	1000459e <TP_DrawBoard+0x2de>
1000459c:	e74d      	b.n	1000443a <TP_DrawBoard+0x17a>
1000459e:	4a0a      	ldr	r2, [pc, #40]	; (100045c8 <TP_DrawBoard+0x308>)
100045a0:	8811      	ldrh	r1, [r2, #0]
100045a2:	2900      	cmp	r1, #0
100045a4:	d000      	beq.n	100045a8 <TP_DrawBoard+0x2e8>
100045a6:	e748      	b.n	1000443a <TP_DrawBoard+0x17a>
100045a8:	2302      	movs	r3, #2
100045aa:	8013      	strh	r3, [r2, #0]
100045ac:	2201      	movs	r2, #1
100045ae:	4b09      	ldr	r3, [pc, #36]	; (100045d4 <TP_DrawBoard+0x314>)
100045b0:	2007      	movs	r0, #7
100045b2:	701a      	strb	r2, [r3, #0]
100045b4:	f7fd fd4e 	bl	10002054 <LCD_SetGramScanWay>
100045b8:	4a0c      	ldr	r2, [pc, #48]	; (100045ec <TP_DrawBoard+0x32c>)
100045ba:	e758      	b.n	1000446e <TP_DrawBoard+0x1ae>
100045bc:	200270e4 	.word	0x200270e4
100045c0:	2002710c 	.word	0x2002710c
100045c4:	200270f0 	.word	0x200270f0
100045c8:	20000404 	.word	0x20000404
100045cc:	000100a0 	.word	0x000100a0
100045d0:	20000400 	.word	0x20000400
100045d4:	20000403 	.word	0x20000403
100045d8:	1000d148 	.word	0x1000d148
100045dc:	1000d154 	.word	0x1000d154
100045e0:	1000d11c 	.word	0x1000d11c
100045e4:	1000d13c 	.word	0x1000d13c
100045e8:	1000d160 	.word	0x1000d160
100045ec:	1000d12c 	.word	0x1000d12c

100045f0 <TP_Init>:
100045f0:	b570      	push	{r4, r5, r6, lr}
100045f2:	0005      	movs	r5, r0
100045f4:	2101      	movs	r1, #1
100045f6:	2010      	movs	r0, #16
100045f8:	f7fb feaa 	bl	10000350 <DEV_Digital_Write>
100045fc:	4c05      	ldr	r4, [pc, #20]	; (10004614 <TP_Init+0x24>)
100045fe:	20d0      	movs	r0, #208	; 0xd0
10004600:	7625      	strb	r5, [r4, #24]
10004602:	f7ff fcd9 	bl	10003fb8 <TP_Read_ADC_Average>
10004606:	80a0      	strh	r0, [r4, #4]
10004608:	2090      	movs	r0, #144	; 0x90
1000460a:	f7ff fcd5 	bl	10003fb8 <TP_Read_ADC_Average>
1000460e:	80e0      	strh	r0, [r4, #6]
10004610:	bd70      	pop	{r4, r5, r6, pc}
10004612:	46c0      	nop			; (mov r8, r8)
10004614:	200270f0 	.word	0x200270f0

10004618 <SD_SendCmd.constprop.0>:
10004618:	b570      	push	{r4, r5, r6, lr}
1000461a:	0005      	movs	r5, r0
1000461c:	000e      	movs	r6, r1
1000461e:	2016      	movs	r0, #22
10004620:	2101      	movs	r1, #1
10004622:	f7fb fe95 	bl	10000350 <DEV_Digital_Write>
10004626:	20ff      	movs	r0, #255	; 0xff
10004628:	f7fb ff46 	bl	100004b8 <SPI4W_Write_Byte>
1000462c:	2100      	movs	r1, #0
1000462e:	2016      	movs	r0, #22
10004630:	f7fb fe8e 	bl	10000350 <DEV_Digital_Write>
10004634:	4c1b      	ldr	r4, [pc, #108]	; (100046a4 <SD_SendCmd.constprop.0+0x8c>)
10004636:	e002      	b.n	1000463e <SD_SendCmd.constprop.0+0x26>
10004638:	3c01      	subs	r4, #1
1000463a:	2c00      	cmp	r4, #0
1000463c:	d025      	beq.n	1000468a <SD_SendCmd.constprop.0+0x72>
1000463e:	20ff      	movs	r0, #255	; 0xff
10004640:	f7fb ff3a 	bl	100004b8 <SPI4W_Write_Byte>
10004644:	28ff      	cmp	r0, #255	; 0xff
10004646:	d1f7      	bne.n	10004638 <SD_SendCmd.constprop.0+0x20>
10004648:	2040      	movs	r0, #64	; 0x40
1000464a:	4328      	orrs	r0, r5
1000464c:	f7fb ff34 	bl	100004b8 <SPI4W_Write_Byte>
10004650:	2000      	movs	r0, #0
10004652:	f7fb ff31 	bl	100004b8 <SPI4W_Write_Byte>
10004656:	2000      	movs	r0, #0
10004658:	f7fb ff2e 	bl	100004b8 <SPI4W_Write_Byte>
1000465c:	2000      	movs	r0, #0
1000465e:	f7fb ff2b 	bl	100004b8 <SPI4W_Write_Byte>
10004662:	2000      	movs	r0, #0
10004664:	f7fb ff28 	bl	100004b8 <SPI4W_Write_Byte>
10004668:	0030      	movs	r0, r6
1000466a:	f7fb ff25 	bl	100004b8 <SPI4W_Write_Byte>
1000466e:	2d0c      	cmp	r5, #12
10004670:	d014      	beq.n	1000469c <SD_SendCmd.constprop.0+0x84>
10004672:	2420      	movs	r4, #32
10004674:	e003      	b.n	1000467e <SD_SendCmd.constprop.0+0x66>
10004676:	3c01      	subs	r4, #1
10004678:	b2e4      	uxtb	r4, r4
1000467a:	2c00      	cmp	r4, #0
1000467c:	d004      	beq.n	10004688 <SD_SendCmd.constprop.0+0x70>
1000467e:	20ff      	movs	r0, #255	; 0xff
10004680:	f7fb ff1a 	bl	100004b8 <SPI4W_Write_Byte>
10004684:	0603      	lsls	r3, r0, #24
10004686:	d4f6      	bmi.n	10004676 <SD_SendCmd.constprop.0+0x5e>
10004688:	bd70      	pop	{r4, r5, r6, pc}
1000468a:	2101      	movs	r1, #1
1000468c:	2016      	movs	r0, #22
1000468e:	f7fb fe5f 	bl	10000350 <DEV_Digital_Write>
10004692:	20ff      	movs	r0, #255	; 0xff
10004694:	f7fb ff10 	bl	100004b8 <SPI4W_Write_Byte>
10004698:	20ff      	movs	r0, #255	; 0xff
1000469a:	e7f5      	b.n	10004688 <SD_SendCmd.constprop.0+0x70>
1000469c:	20ff      	movs	r0, #255	; 0xff
1000469e:	f7fb ff0b 	bl	100004b8 <SPI4W_Write_Byte>
100046a2:	e7e6      	b.n	10004672 <SD_SendCmd.constprop.0+0x5a>
100046a4:	00ffffff 	.word	0x00ffffff

100046a8 <SD_SPI_ReadWriteByte>:
100046a8:	b510      	push	{r4, lr}
100046aa:	f7fb ff05 	bl	100004b8 <SPI4W_Write_Byte>
100046ae:	bd10      	pop	{r4, pc}

100046b0 <SD_SPI_SpeedLow>:
100046b0:	4770      	bx	lr
100046b2:	46c0      	nop			; (mov r8, r8)

100046b4 <SD_SPI_SpeedHigh>:
100046b4:	4770      	bx	lr
100046b6:	46c0      	nop			; (mov r8, r8)

100046b8 <SD_WaitReady>:
100046b8:	b510      	push	{r4, lr}
100046ba:	4c07      	ldr	r4, [pc, #28]	; (100046d8 <SD_WaitReady+0x20>)
100046bc:	e002      	b.n	100046c4 <SD_WaitReady+0xc>
100046be:	3c01      	subs	r4, #1
100046c0:	2c00      	cmp	r4, #0
100046c2:	d006      	beq.n	100046d2 <SD_WaitReady+0x1a>
100046c4:	20ff      	movs	r0, #255	; 0xff
100046c6:	f7fb fef7 	bl	100004b8 <SPI4W_Write_Byte>
100046ca:	28ff      	cmp	r0, #255	; 0xff
100046cc:	d1f7      	bne.n	100046be <SD_WaitReady+0x6>
100046ce:	2000      	movs	r0, #0
100046d0:	bd10      	pop	{r4, pc}
100046d2:	2001      	movs	r0, #1
100046d4:	e7fc      	b.n	100046d0 <SD_WaitReady+0x18>
100046d6:	46c0      	nop			; (mov r8, r8)
100046d8:	00ffffff 	.word	0x00ffffff

100046dc <SD_SendCmd>:
100046dc:	b5f8      	push	{r3, r4, r5, r6, r7, lr}
100046de:	0006      	movs	r6, r0
100046e0:	000d      	movs	r5, r1
100046e2:	2016      	movs	r0, #22
100046e4:	2101      	movs	r1, #1
100046e6:	0017      	movs	r7, r2
100046e8:	f7fb fe32 	bl	10000350 <DEV_Digital_Write>
100046ec:	20ff      	movs	r0, #255	; 0xff
100046ee:	f7fb fee3 	bl	100004b8 <SPI4W_Write_Byte>
100046f2:	2100      	movs	r1, #0
100046f4:	2016      	movs	r0, #22
100046f6:	f7fb fe2b 	bl	10000350 <DEV_Digital_Write>
100046fa:	4c1d      	ldr	r4, [pc, #116]	; (10004770 <SD_SendCmd+0x94>)
100046fc:	e002      	b.n	10004704 <SD_SendCmd+0x28>
100046fe:	3c01      	subs	r4, #1
10004700:	2c00      	cmp	r4, #0
10004702:	d027      	beq.n	10004754 <SD_SendCmd+0x78>
10004704:	20ff      	movs	r0, #255	; 0xff
10004706:	f7fb fed7 	bl	100004b8 <SPI4W_Write_Byte>
1000470a:	28ff      	cmp	r0, #255	; 0xff
1000470c:	d1f7      	bne.n	100046fe <SD_SendCmd+0x22>
1000470e:	2040      	movs	r0, #64	; 0x40
10004710:	4330      	orrs	r0, r6
10004712:	f7fb fed1 	bl	100004b8 <SPI4W_Write_Byte>
10004716:	0e28      	lsrs	r0, r5, #24
10004718:	f7fb fece 	bl	100004b8 <SPI4W_Write_Byte>
1000471c:	0c28      	lsrs	r0, r5, #16
1000471e:	b2c0      	uxtb	r0, r0
10004720:	f7fb feca 	bl	100004b8 <SPI4W_Write_Byte>
10004724:	0a28      	lsrs	r0, r5, #8
10004726:	b2c0      	uxtb	r0, r0
10004728:	f7fb fec6 	bl	100004b8 <SPI4W_Write_Byte>
1000472c:	b2e8      	uxtb	r0, r5
1000472e:	f7fb fec3 	bl	100004b8 <SPI4W_Write_Byte>
10004732:	0038      	movs	r0, r7
10004734:	f7fb fec0 	bl	100004b8 <SPI4W_Write_Byte>
10004738:	2e0c      	cmp	r6, #12
1000473a:	d014      	beq.n	10004766 <SD_SendCmd+0x8a>
1000473c:	2420      	movs	r4, #32
1000473e:	e003      	b.n	10004748 <SD_SendCmd+0x6c>
10004740:	3c01      	subs	r4, #1
10004742:	b2e4      	uxtb	r4, r4
10004744:	2c00      	cmp	r4, #0
10004746:	d004      	beq.n	10004752 <SD_SendCmd+0x76>
10004748:	20ff      	movs	r0, #255	; 0xff
1000474a:	f7fb feb5 	bl	100004b8 <SPI4W_Write_Byte>
1000474e:	0603      	lsls	r3, r0, #24
10004750:	d4f6      	bmi.n	10004740 <SD_SendCmd+0x64>
10004752:	bdf8      	pop	{r3, r4, r5, r6, r7, pc}
10004754:	2101      	movs	r1, #1
10004756:	2016      	movs	r0, #22
10004758:	f7fb fdfa 	bl	10000350 <DEV_Digital_Write>
1000475c:	20ff      	movs	r0, #255	; 0xff
1000475e:	f7fb feab 	bl	100004b8 <SPI4W_Write_Byte>
10004762:	20ff      	movs	r0, #255	; 0xff
10004764:	e7f5      	b.n	10004752 <SD_SendCmd+0x76>
10004766:	20ff      	movs	r0, #255	; 0xff
10004768:	f7fb fea6 	bl	100004b8 <SPI4W_Write_Byte>
1000476c:	e7e6      	b.n	1000473c <SD_SendCmd+0x60>
1000476e:	46c0      	nop			; (mov r8, r8)
10004770:	00ffffff 	.word	0x00ffffff

10004774 <SD_GetCSD>:
10004774:	b570      	push	{r4, r5, r6, lr}
10004776:	2101      	movs	r1, #1
10004778:	0005      	movs	r5, r0
1000477a:	2009      	movs	r0, #9
1000477c:	f7ff ff4c 	bl	10004618 <SD_SendCmd.constprop.0>
10004780:	1e06      	subs	r6, r0, #0
10004782:	d009      	beq.n	10004798 <SD_GetCSD+0x24>
10004784:	2101      	movs	r1, #1
10004786:	2016      	movs	r0, #22
10004788:	f7fb fde2 	bl	10000350 <DEV_Digital_Write>
1000478c:	20ff      	movs	r0, #255	; 0xff
1000478e:	f7fb fe93 	bl	100004b8 <SPI4W_Write_Byte>
10004792:	2601      	movs	r6, #1
10004794:	0030      	movs	r0, r6
10004796:	bd70      	pop	{r4, r5, r6, pc}
10004798:	4c11      	ldr	r4, [pc, #68]	; (100047e0 <SD_GetCSD+0x6c>)
1000479a:	e003      	b.n	100047a4 <SD_GetCSD+0x30>
1000479c:	2c00      	cmp	r4, #0
1000479e:	d0f1      	beq.n	10004784 <SD_GetCSD+0x10>
100047a0:	3c01      	subs	r4, #1
100047a2:	b2a4      	uxth	r4, r4
100047a4:	20ff      	movs	r0, #255	; 0xff
100047a6:	f7fb fe87 	bl	100004b8 <SPI4W_Write_Byte>
100047aa:	28fe      	cmp	r0, #254	; 0xfe
100047ac:	d1f6      	bne.n	1000479c <SD_GetCSD+0x28>
100047ae:	2c00      	cmp	r4, #0
100047b0:	d0e8      	beq.n	10004784 <SD_GetCSD+0x10>
100047b2:	002c      	movs	r4, r5
100047b4:	3410      	adds	r4, #16
100047b6:	20ff      	movs	r0, #255	; 0xff
100047b8:	f7fb fe7e 	bl	100004b8 <SPI4W_Write_Byte>
100047bc:	7028      	strb	r0, [r5, #0]
100047be:	3501      	adds	r5, #1
100047c0:	42ac      	cmp	r4, r5
100047c2:	d1f8      	bne.n	100047b6 <SD_GetCSD+0x42>
100047c4:	20ff      	movs	r0, #255	; 0xff
100047c6:	f7fb fe77 	bl	100004b8 <SPI4W_Write_Byte>
100047ca:	20ff      	movs	r0, #255	; 0xff
100047cc:	f7fb fe74 	bl	100004b8 <SPI4W_Write_Byte>
100047d0:	2101      	movs	r1, #1
100047d2:	2016      	movs	r0, #22
100047d4:	f7fb fdbc 	bl	10000350 <DEV_Digital_Write>
100047d8:	20ff      	movs	r0, #255	; 0xff
100047da:	f7fb fe6d 	bl	100004b8 <SPI4W_Write_Byte>
100047de:	e7d9      	b.n	10004794 <SD_GetCSD+0x20>
100047e0:	0000ffff 	.word	0x0000ffff

100047e4 <SD_GetSectorCount>:
100047e4:	b500      	push	{lr}
100047e6:	b085      	sub	sp, #20
100047e8:	4668      	mov	r0, sp
100047ea:	f7ff ffc3 	bl	10004774 <SD_GetCSD>
100047ee:	2800      	cmp	r0, #0
100047f0:	d12e      	bne.n	10004850 <SD_GetSectorCount+0x6c>
100047f2:	466b      	mov	r3, sp
100047f4:	223f      	movs	r2, #63	; 0x3f
100047f6:	781b      	ldrb	r3, [r3, #0]
100047f8:	4393      	bics	r3, r2
100047fa:	2b40      	cmp	r3, #64	; 0x40
100047fc:	d01f      	beq.n	1000483e <SD_GetSectorCount+0x5a>
100047fe:	466b      	mov	r3, sp
10004800:	7a18      	ldrb	r0, [r3, #8]
10004802:	79db      	ldrb	r3, [r3, #7]
10004804:	0980      	lsrs	r0, r0, #6
10004806:	009b      	lsls	r3, r3, #2
10004808:	18c0      	adds	r0, r0, r3
1000480a:	466b      	mov	r3, sp
1000480c:	22c0      	movs	r2, #192	; 0xc0
1000480e:	799b      	ldrb	r3, [r3, #6]
10004810:	0112      	lsls	r2, r2, #4
10004812:	029b      	lsls	r3, r3, #10
10004814:	4013      	ands	r3, r2
10004816:	3001      	adds	r0, #1
10004818:	18c0      	adds	r0, r0, r3
1000481a:	466b      	mov	r3, sp
1000481c:	795a      	ldrb	r2, [r3, #5]
1000481e:	230f      	movs	r3, #15
10004820:	4013      	ands	r3, r2
10004822:	466a      	mov	r2, sp
10004824:	7a92      	ldrb	r2, [r2, #10]
10004826:	09d2      	lsrs	r2, r2, #7
10004828:	189b      	adds	r3, r3, r2
1000482a:	466a      	mov	r2, sp
1000482c:	7a51      	ldrb	r1, [r2, #9]
1000482e:	2206      	movs	r2, #6
10004830:	0049      	lsls	r1, r1, #1
10004832:	400a      	ands	r2, r1
10004834:	189b      	adds	r3, r3, r2
10004836:	3b07      	subs	r3, #7
10004838:	4098      	lsls	r0, r3
1000483a:	b005      	add	sp, #20
1000483c:	bd00      	pop	{pc}
1000483e:	466b      	mov	r3, sp
10004840:	7a18      	ldrb	r0, [r3, #8]
10004842:	7a5b      	ldrb	r3, [r3, #9]
10004844:	0200      	lsls	r0, r0, #8
10004846:	3301      	adds	r3, #1
10004848:	18c0      	adds	r0, r0, r3
1000484a:	b280      	uxth	r0, r0
1000484c:	0280      	lsls	r0, r0, #10
1000484e:	e7f4      	b.n	1000483a <SD_GetSectorCount+0x56>
10004850:	2000      	movs	r0, #0
10004852:	e7f2      	b.n	1000483a <SD_GetSectorCount+0x56>

10004854 <SD_Initialize>:
10004854:	b5f0      	push	{r4, r5, r6, r7, lr}
10004856:	46ce      	mov	lr, r9
10004858:	4647      	mov	r7, r8
1000485a:	b580      	push	{r7, lr}
1000485c:	2101      	movs	r1, #1
1000485e:	2016      	movs	r0, #22
10004860:	b083      	sub	sp, #12
10004862:	f7fb fd75 	bl	10000350 <DEV_Digital_Write>
10004866:	240a      	movs	r4, #10
10004868:	3c01      	subs	r4, #1
1000486a:	20ff      	movs	r0, #255	; 0xff
1000486c:	b2a4      	uxth	r4, r4
1000486e:	f7fb fe23 	bl	100004b8 <SPI4W_Write_Byte>
10004872:	2c00      	cmp	r4, #0
10004874:	d1f8      	bne.n	10004868 <SD_Initialize+0x14>
10004876:	2515      	movs	r5, #21
10004878:	e003      	b.n	10004882 <SD_Initialize+0x2e>
1000487a:	3d01      	subs	r5, #1
1000487c:	b2ad      	uxth	r5, r5
1000487e:	2d00      	cmp	r5, #0
10004880:	d02d      	beq.n	100048de <SD_Initialize+0x8a>
10004882:	2195      	movs	r1, #149	; 0x95
10004884:	2000      	movs	r0, #0
10004886:	f7ff fec7 	bl	10004618 <SD_SendCmd.constprop.0>
1000488a:	0004      	movs	r4, r0
1000488c:	0006      	movs	r6, r0
1000488e:	2801      	cmp	r0, #1
10004890:	d1f3      	bne.n	1000487a <SD_Initialize+0x26>
10004892:	21d5      	movs	r1, #213	; 0xd5
10004894:	2300      	movs	r3, #0
10004896:	4f5b      	ldr	r7, [pc, #364]	; (10004a04 <SD_Initialize+0x1b0>)
10004898:	2287      	movs	r2, #135	; 0x87
1000489a:	2008      	movs	r0, #8
1000489c:	0049      	lsls	r1, r1, #1
1000489e:	703b      	strb	r3, [r7, #0]
100048a0:	f7ff ff1c 	bl	100046dc <SD_SendCmd>
100048a4:	2801      	cmp	r0, #1
100048a6:	d131      	bne.n	1000490c <SD_Initialize+0xb8>
100048a8:	ab01      	add	r3, sp, #4
100048aa:	4698      	mov	r8, r3
100048ac:	001c      	movs	r4, r3
100048ae:	ae02      	add	r6, sp, #8
100048b0:	20ff      	movs	r0, #255	; 0xff
100048b2:	f7fb fe01 	bl	100004b8 <SPI4W_Write_Byte>
100048b6:	7020      	strb	r0, [r4, #0]
100048b8:	3401      	adds	r4, #1
100048ba:	42b4      	cmp	r4, r6
100048bc:	d1f8      	bne.n	100048b0 <SD_Initialize+0x5c>
100048be:	466b      	mov	r3, sp
100048c0:	799b      	ldrb	r3, [r3, #6]
100048c2:	2b01      	cmp	r3, #1
100048c4:	d054      	beq.n	10004970 <SD_Initialize+0x11c>
100048c6:	2101      	movs	r1, #1
100048c8:	2016      	movs	r0, #22
100048ca:	f7fb fd41 	bl	10000350 <DEV_Digital_Write>
100048ce:	20ff      	movs	r0, #255	; 0xff
100048d0:	f7fb fdf2 	bl	100004b8 <SPI4W_Write_Byte>
100048d4:	783c      	ldrb	r4, [r7, #0]
100048d6:	4263      	negs	r3, r4
100048d8:	415c      	adcs	r4, r3
100048da:	b2e4      	uxtb	r4, r4
100048dc:	e00e      	b.n	100048fc <SD_Initialize+0xa8>
100048de:	4f49      	ldr	r7, [pc, #292]	; (10004a04 <SD_Initialize+0x1b0>)
100048e0:	703d      	strb	r5, [r7, #0]
100048e2:	2101      	movs	r1, #1
100048e4:	2016      	movs	r0, #22
100048e6:	f7fb fd33 	bl	10000350 <DEV_Digital_Write>
100048ea:	20ff      	movs	r0, #255	; 0xff
100048ec:	f7fb fde4 	bl	100004b8 <SPI4W_Write_Byte>
100048f0:	783b      	ldrb	r3, [r7, #0]
100048f2:	2b00      	cmp	r3, #0
100048f4:	d108      	bne.n	10004908 <SD_Initialize+0xb4>
100048f6:	2c00      	cmp	r4, #0
100048f8:	d100      	bne.n	100048fc <SD_Initialize+0xa8>
100048fa:	24aa      	movs	r4, #170	; 0xaa
100048fc:	0020      	movs	r0, r4
100048fe:	b003      	add	sp, #12
10004900:	bcc0      	pop	{r6, r7}
10004902:	46b9      	mov	r9, r7
10004904:	46b0      	mov	r8, r6
10004906:	bdf0      	pop	{r4, r5, r6, r7, pc}
10004908:	2400      	movs	r4, #0
1000490a:	e7f7      	b.n	100048fc <SD_Initialize+0xa8>
1000490c:	2101      	movs	r1, #1
1000490e:	2037      	movs	r0, #55	; 0x37
10004910:	f7ff fe82 	bl	10004618 <SD_SendCmd.constprop.0>
10004914:	2101      	movs	r1, #1
10004916:	2029      	movs	r0, #41	; 0x29
10004918:	f7ff fe7e 	bl	10004618 <SD_SendCmd.constprop.0>
1000491c:	2801      	cmp	r0, #1
1000491e:	d913      	bls.n	10004948 <SD_Initialize+0xf4>
10004920:	703e      	strb	r6, [r7, #0]
10004922:	4d39      	ldr	r5, [pc, #228]	; (10004a08 <SD_Initialize+0x1b4>)
10004924:	4e39      	ldr	r6, [pc, #228]	; (10004a0c <SD_Initialize+0x1b8>)
10004926:	e003      	b.n	10004930 <SD_Initialize+0xdc>
10004928:	3d01      	subs	r5, #1
1000492a:	b2ad      	uxth	r5, r5
1000492c:	42b5      	cmp	r5, r6
1000492e:	d044      	beq.n	100049ba <SD_Initialize+0x166>
10004930:	2101      	movs	r1, #1
10004932:	2001      	movs	r0, #1
10004934:	f7ff fe70 	bl	10004618 <SD_SendCmd.constprop.0>
10004938:	1e04      	subs	r4, r0, #0
1000493a:	d1f5      	bne.n	10004928 <SD_Initialize+0xd4>
1000493c:	2400      	movs	r4, #0
1000493e:	2d00      	cmp	r5, #0
10004940:	d13b      	bne.n	100049ba <SD_Initialize+0x166>
10004942:	2300      	movs	r3, #0
10004944:	703b      	strb	r3, [r7, #0]
10004946:	e7cc      	b.n	100048e2 <SD_Initialize+0x8e>
10004948:	2302      	movs	r3, #2
1000494a:	4d2f      	ldr	r5, [pc, #188]	; (10004a08 <SD_Initialize+0x1b4>)
1000494c:	4e2f      	ldr	r6, [pc, #188]	; (10004a0c <SD_Initialize+0x1b8>)
1000494e:	703b      	strb	r3, [r7, #0]
10004950:	e003      	b.n	1000495a <SD_Initialize+0x106>
10004952:	3d01      	subs	r5, #1
10004954:	b2ad      	uxth	r5, r5
10004956:	42b5      	cmp	r5, r6
10004958:	d02f      	beq.n	100049ba <SD_Initialize+0x166>
1000495a:	2101      	movs	r1, #1
1000495c:	2037      	movs	r0, #55	; 0x37
1000495e:	f7ff fe5b 	bl	10004618 <SD_SendCmd.constprop.0>
10004962:	2101      	movs	r1, #1
10004964:	2029      	movs	r0, #41	; 0x29
10004966:	f7ff fe57 	bl	10004618 <SD_SendCmd.constprop.0>
1000496a:	1e04      	subs	r4, r0, #0
1000496c:	d1f1      	bne.n	10004952 <SD_Initialize+0xfe>
1000496e:	e7e5      	b.n	1000493c <SD_Initialize+0xe8>
10004970:	466b      	mov	r3, sp
10004972:	79db      	ldrb	r3, [r3, #7]
10004974:	2baa      	cmp	r3, #170	; 0xaa
10004976:	d1a6      	bne.n	100048c6 <SD_Initialize+0x72>
10004978:	4b24      	ldr	r3, [pc, #144]	; (10004a0c <SD_Initialize+0x1b8>)
1000497a:	4d23      	ldr	r5, [pc, #140]	; (10004a08 <SD_Initialize+0x1b4>)
1000497c:	4699      	mov	r9, r3
1000497e:	e003      	b.n	10004988 <SD_Initialize+0x134>
10004980:	3d01      	subs	r5, #1
10004982:	b2ad      	uxth	r5, r5
10004984:	454d      	cmp	r5, r9
10004986:	d022      	beq.n	100049ce <SD_Initialize+0x17a>
10004988:	2101      	movs	r1, #1
1000498a:	2037      	movs	r0, #55	; 0x37
1000498c:	f7ff fe44 	bl	10004618 <SD_SendCmd.constprop.0>
10004990:	2180      	movs	r1, #128	; 0x80
10004992:	2201      	movs	r2, #1
10004994:	2029      	movs	r0, #41	; 0x29
10004996:	05c9      	lsls	r1, r1, #23
10004998:	f7ff fea0 	bl	100046dc <SD_SendCmd>
1000499c:	1e04      	subs	r4, r0, #0
1000499e:	d1ef      	bne.n	10004980 <SD_Initialize+0x12c>
100049a0:	2d00      	cmp	r5, #0
100049a2:	d114      	bne.n	100049ce <SD_Initialize+0x17a>
100049a4:	2101      	movs	r1, #1
100049a6:	2016      	movs	r0, #22
100049a8:	f7fb fcd2 	bl	10000350 <DEV_Digital_Write>
100049ac:	20ff      	movs	r0, #255	; 0xff
100049ae:	f7fb fd83 	bl	100004b8 <SPI4W_Write_Byte>
100049b2:	783b      	ldrb	r3, [r7, #0]
100049b4:	2b00      	cmp	r3, #0
100049b6:	d0a0      	beq.n	100048fa <SD_Initialize+0xa6>
100049b8:	e7a0      	b.n	100048fc <SD_Initialize+0xa8>
100049ba:	2180      	movs	r1, #128	; 0x80
100049bc:	2201      	movs	r2, #1
100049be:	2010      	movs	r0, #16
100049c0:	0089      	lsls	r1, r1, #2
100049c2:	f7ff fe8b 	bl	100046dc <SD_SendCmd>
100049c6:	2800      	cmp	r0, #0
100049c8:	d100      	bne.n	100049cc <SD_Initialize+0x178>
100049ca:	e78a      	b.n	100048e2 <SD_Initialize+0x8e>
100049cc:	e7b9      	b.n	10004942 <SD_Initialize+0xee>
100049ce:	2101      	movs	r1, #1
100049d0:	203a      	movs	r0, #58	; 0x3a
100049d2:	f7ff fe21 	bl	10004618 <SD_SendCmd.constprop.0>
100049d6:	2800      	cmp	r0, #0
100049d8:	d000      	beq.n	100049dc <SD_Initialize+0x188>
100049da:	e782      	b.n	100048e2 <SD_Initialize+0x8e>
100049dc:	20ff      	movs	r0, #255	; 0xff
100049de:	f7fb fd6b 	bl	100004b8 <SPI4W_Write_Byte>
100049e2:	4643      	mov	r3, r8
100049e4:	7018      	strb	r0, [r3, #0]
100049e6:	2301      	movs	r3, #1
100049e8:	469c      	mov	ip, r3
100049ea:	44e0      	add	r8, ip
100049ec:	45b0      	cmp	r8, r6
100049ee:	d1f5      	bne.n	100049dc <SD_Initialize+0x188>
100049f0:	466b      	mov	r3, sp
100049f2:	791b      	ldrb	r3, [r3, #4]
100049f4:	065b      	lsls	r3, r3, #25
100049f6:	d502      	bpl.n	100049fe <SD_Initialize+0x1aa>
100049f8:	2306      	movs	r3, #6
100049fa:	703b      	strb	r3, [r7, #0]
100049fc:	e771      	b.n	100048e2 <SD_Initialize+0x8e>
100049fe:	2304      	movs	r3, #4
10004a00:	703b      	strb	r3, [r7, #0]
10004a02:	e76e      	b.n	100048e2 <SD_Initialize+0x8e>
10004a04:	2002714c 	.word	0x2002714c
10004a08:	0000fffe 	.word	0x0000fffe
10004a0c:	0000ffff 	.word	0x0000ffff

10004a10 <SD_ReadDisk>:
10004a10:	b5f8      	push	{r3, r4, r5, r6, r7, lr}
10004a12:	4b34      	ldr	r3, [pc, #208]	; (10004ae4 <SD_ReadDisk+0xd4>)
10004a14:	0006      	movs	r6, r0
10004a16:	781b      	ldrb	r3, [r3, #0]
10004a18:	0017      	movs	r7, r2
10004a1a:	2b06      	cmp	r3, #6
10004a1c:	d000      	beq.n	10004a20 <SD_ReadDisk+0x10>
10004a1e:	0249      	lsls	r1, r1, #9
10004a20:	2201      	movs	r2, #1
10004a22:	2f01      	cmp	r7, #1
10004a24:	d039      	beq.n	10004a9a <SD_ReadDisk+0x8a>
10004a26:	2012      	movs	r0, #18
10004a28:	f7ff fe58 	bl	100046dc <SD_SendCmd>
10004a2c:	2380      	movs	r3, #128	; 0x80
10004a2e:	009b      	lsls	r3, r3, #2
10004a30:	469c      	mov	ip, r3
10004a32:	4466      	add	r6, ip
10004a34:	4b2c      	ldr	r3, [pc, #176]	; (10004ae8 <SD_ReadDisk+0xd8>)
10004a36:	4c2d      	ldr	r4, [pc, #180]	; (10004aec <SD_ReadDisk+0xdc>)
10004a38:	18f5      	adds	r5, r6, r3
10004a3a:	e003      	b.n	10004a44 <SD_ReadDisk+0x34>
10004a3c:	2c00      	cmp	r4, #0
10004a3e:	d01e      	beq.n	10004a7e <SD_ReadDisk+0x6e>
10004a40:	3c01      	subs	r4, #1
10004a42:	b2a4      	uxth	r4, r4
10004a44:	20ff      	movs	r0, #255	; 0xff
10004a46:	f7fb fd37 	bl	100004b8 <SPI4W_Write_Byte>
10004a4a:	28fe      	cmp	r0, #254	; 0xfe
10004a4c:	d1f6      	bne.n	10004a3c <SD_ReadDisk+0x2c>
10004a4e:	2c00      	cmp	r4, #0
10004a50:	d015      	beq.n	10004a7e <SD_ReadDisk+0x6e>
10004a52:	20ff      	movs	r0, #255	; 0xff
10004a54:	f7fb fd30 	bl	100004b8 <SPI4W_Write_Byte>
10004a58:	7028      	strb	r0, [r5, #0]
10004a5a:	3501      	adds	r5, #1
10004a5c:	42b5      	cmp	r5, r6
10004a5e:	d1f8      	bne.n	10004a52 <SD_ReadDisk+0x42>
10004a60:	20ff      	movs	r0, #255	; 0xff
10004a62:	f7fb fd29 	bl	100004b8 <SPI4W_Write_Byte>
10004a66:	20ff      	movs	r0, #255	; 0xff
10004a68:	f7fb fd26 	bl	100004b8 <SPI4W_Write_Byte>
10004a6c:	2380      	movs	r3, #128	; 0x80
10004a6e:	3f01      	subs	r7, #1
10004a70:	009b      	lsls	r3, r3, #2
10004a72:	b2ff      	uxtb	r7, r7
10004a74:	18ee      	adds	r6, r5, r3
10004a76:	2f00      	cmp	r7, #0
10004a78:	d1dc      	bne.n	10004a34 <SD_ReadDisk+0x24>
10004a7a:	2500      	movs	r5, #0
10004a7c:	e000      	b.n	10004a80 <SD_ReadDisk+0x70>
10004a7e:	2501      	movs	r5, #1
10004a80:	2101      	movs	r1, #1
10004a82:	200c      	movs	r0, #12
10004a84:	f7ff fdc8 	bl	10004618 <SD_SendCmd.constprop.0>
10004a88:	2101      	movs	r1, #1
10004a8a:	2016      	movs	r0, #22
10004a8c:	f7fb fc60 	bl	10000350 <DEV_Digital_Write>
10004a90:	20ff      	movs	r0, #255	; 0xff
10004a92:	f7fb fd11 	bl	100004b8 <SPI4W_Write_Byte>
10004a96:	0028      	movs	r0, r5
10004a98:	bdf8      	pop	{r3, r4, r5, r6, r7, pc}
10004a9a:	2011      	movs	r0, #17
10004a9c:	f7ff fe1e 	bl	100046dc <SD_SendCmd>
10004aa0:	1e05      	subs	r5, r0, #0
10004aa2:	d1f1      	bne.n	10004a88 <SD_ReadDisk+0x78>
10004aa4:	4c11      	ldr	r4, [pc, #68]	; (10004aec <SD_ReadDisk+0xdc>)
10004aa6:	e003      	b.n	10004ab0 <SD_ReadDisk+0xa0>
10004aa8:	2c00      	cmp	r4, #0
10004aaa:	d019      	beq.n	10004ae0 <SD_ReadDisk+0xd0>
10004aac:	3c01      	subs	r4, #1
10004aae:	b2a4      	uxth	r4, r4
10004ab0:	20ff      	movs	r0, #255	; 0xff
10004ab2:	f7fb fd01 	bl	100004b8 <SPI4W_Write_Byte>
10004ab6:	28fe      	cmp	r0, #254	; 0xfe
10004ab8:	d1f6      	bne.n	10004aa8 <SD_ReadDisk+0x98>
10004aba:	2c00      	cmp	r4, #0
10004abc:	d010      	beq.n	10004ae0 <SD_ReadDisk+0xd0>
10004abe:	2380      	movs	r3, #128	; 0x80
10004ac0:	009b      	lsls	r3, r3, #2
10004ac2:	18f4      	adds	r4, r6, r3
10004ac4:	20ff      	movs	r0, #255	; 0xff
10004ac6:	f7fb fcf7 	bl	100004b8 <SPI4W_Write_Byte>
10004aca:	7030      	strb	r0, [r6, #0]
10004acc:	3601      	adds	r6, #1
10004ace:	42b4      	cmp	r4, r6
10004ad0:	d1f8      	bne.n	10004ac4 <SD_ReadDisk+0xb4>
10004ad2:	20ff      	movs	r0, #255	; 0xff
10004ad4:	f7fb fcf0 	bl	100004b8 <SPI4W_Write_Byte>
10004ad8:	20ff      	movs	r0, #255	; 0xff
10004ada:	f7fb fced 	bl	100004b8 <SPI4W_Write_Byte>
10004ade:	e7d3      	b.n	10004a88 <SD_ReadDisk+0x78>
10004ae0:	2501      	movs	r5, #1
10004ae2:	e7d1      	b.n	10004a88 <SD_ReadDisk+0x78>
10004ae4:	2002714c 	.word	0x2002714c
10004ae8:	fffffe00 	.word	0xfffffe00
10004aec:	0000ffff 	.word	0x0000ffff

10004af0 <SD_WriteDisk>:
10004af0:	b5f8      	push	{r3, r4, r5, r6, r7, lr}
10004af2:	4647      	mov	r7, r8
10004af4:	46ce      	mov	lr, r9
10004af6:	b580      	push	{r7, lr}
10004af8:	4b50      	ldr	r3, [pc, #320]	; (10004c3c <SD_WriteDisk+0x14c>)
10004afa:	0006      	movs	r6, r0
10004afc:	781b      	ldrb	r3, [r3, #0]
10004afe:	000c      	movs	r4, r1
10004b00:	0017      	movs	r7, r2
10004b02:	2b06      	cmp	r3, #6
10004b04:	d055      	beq.n	10004bb2 <SD_WriteDisk+0xc2>
10004b06:	024c      	lsls	r4, r1, #9
10004b08:	2a01      	cmp	r2, #1
10004b0a:	d066      	beq.n	10004bda <SD_WriteDisk+0xea>
10004b0c:	2b01      	cmp	r3, #1
10004b0e:	d152      	bne.n	10004bb6 <SD_WriteDisk+0xc6>
10004b10:	2201      	movs	r2, #1
10004b12:	0021      	movs	r1, r4
10004b14:	2019      	movs	r0, #25
10004b16:	f7ff fde1 	bl	100046dc <SD_SendCmd>
10004b1a:	4680      	mov	r8, r0
10004b1c:	2800      	cmp	r0, #0
10004b1e:	d13c      	bne.n	10004b9a <SD_WriteDisk+0xaa>
10004b20:	2380      	movs	r3, #128	; 0x80
10004b22:	009b      	lsls	r3, r3, #2
10004b24:	18f5      	adds	r5, r6, r3
10004b26:	3be2      	subs	r3, #226	; 0xe2
10004b28:	3bff      	subs	r3, #255	; 0xff
10004b2a:	4699      	mov	r9, r3
10004b2c:	4c44      	ldr	r4, [pc, #272]	; (10004c40 <SD_WriteDisk+0x150>)
10004b2e:	e002      	b.n	10004b36 <SD_WriteDisk+0x46>
10004b30:	3c01      	subs	r4, #1
10004b32:	2c00      	cmp	r4, #0
10004b34:	d024      	beq.n	10004b80 <SD_WriteDisk+0x90>
10004b36:	20ff      	movs	r0, #255	; 0xff
10004b38:	f7fb fcbe 	bl	100004b8 <SPI4W_Write_Byte>
10004b3c:	28ff      	cmp	r0, #255	; 0xff
10004b3e:	d1f7      	bne.n	10004b30 <SD_WriteDisk+0x40>
10004b40:	20fc      	movs	r0, #252	; 0xfc
10004b42:	f7fb fcb9 	bl	100004b8 <SPI4W_Write_Byte>
10004b46:	0034      	movs	r4, r6
10004b48:	7820      	ldrb	r0, [r4, #0]
10004b4a:	3401      	adds	r4, #1
10004b4c:	f7fb fcb4 	bl	100004b8 <SPI4W_Write_Byte>
10004b50:	42a5      	cmp	r5, r4
10004b52:	d1f9      	bne.n	10004b48 <SD_WriteDisk+0x58>
10004b54:	20ff      	movs	r0, #255	; 0xff
10004b56:	f7fb fcaf 	bl	100004b8 <SPI4W_Write_Byte>
10004b5a:	20ff      	movs	r0, #255	; 0xff
10004b5c:	f7fb fcac 	bl	100004b8 <SPI4W_Write_Byte>
10004b60:	20ff      	movs	r0, #255	; 0xff
10004b62:	f7fb fca9 	bl	100004b8 <SPI4W_Write_Byte>
10004b66:	464b      	mov	r3, r9
10004b68:	4018      	ands	r0, r3
10004b6a:	2805      	cmp	r0, #5
10004b6c:	d108      	bne.n	10004b80 <SD_WriteDisk+0x90>
10004b6e:	2380      	movs	r3, #128	; 0x80
10004b70:	009b      	lsls	r3, r3, #2
10004b72:	469c      	mov	ip, r3
10004b74:	3f01      	subs	r7, #1
10004b76:	b2ff      	uxtb	r7, r7
10004b78:	4466      	add	r6, ip
10004b7a:	4465      	add	r5, ip
10004b7c:	2f00      	cmp	r7, #0
10004b7e:	d1d5      	bne.n	10004b2c <SD_WriteDisk+0x3c>
10004b80:	4c2f      	ldr	r4, [pc, #188]	; (10004c40 <SD_WriteDisk+0x150>)
10004b82:	e002      	b.n	10004b8a <SD_WriteDisk+0x9a>
10004b84:	3c01      	subs	r4, #1
10004b86:	2c00      	cmp	r4, #0
10004b88:	d055      	beq.n	10004c36 <SD_WriteDisk+0x146>
10004b8a:	20ff      	movs	r0, #255	; 0xff
10004b8c:	f7fb fc94 	bl	100004b8 <SPI4W_Write_Byte>
10004b90:	28ff      	cmp	r0, #255	; 0xff
10004b92:	d1f7      	bne.n	10004b84 <SD_WriteDisk+0x94>
10004b94:	20fd      	movs	r0, #253	; 0xfd
10004b96:	f7fb fc8f 	bl	100004b8 <SPI4W_Write_Byte>
10004b9a:	2101      	movs	r1, #1
10004b9c:	2016      	movs	r0, #22
10004b9e:	f7fb fbd7 	bl	10000350 <DEV_Digital_Write>
10004ba2:	20ff      	movs	r0, #255	; 0xff
10004ba4:	f7fb fc88 	bl	100004b8 <SPI4W_Write_Byte>
10004ba8:	4640      	mov	r0, r8
10004baa:	bcc0      	pop	{r6, r7}
10004bac:	46b9      	mov	r9, r7
10004bae:	46b0      	mov	r8, r6
10004bb0:	bdf8      	pop	{r3, r4, r5, r6, r7, pc}
10004bb2:	2a01      	cmp	r2, #1
10004bb4:	d011      	beq.n	10004bda <SD_WriteDisk+0xea>
10004bb6:	2101      	movs	r1, #1
10004bb8:	2037      	movs	r0, #55	; 0x37
10004bba:	f7ff fd2d 	bl	10004618 <SD_SendCmd.constprop.0>
10004bbe:	2201      	movs	r2, #1
10004bc0:	0039      	movs	r1, r7
10004bc2:	2017      	movs	r0, #23
10004bc4:	f7ff fd8a 	bl	100046dc <SD_SendCmd>
10004bc8:	2201      	movs	r2, #1
10004bca:	0021      	movs	r1, r4
10004bcc:	2019      	movs	r0, #25
10004bce:	f7ff fd85 	bl	100046dc <SD_SendCmd>
10004bd2:	4680      	mov	r8, r0
10004bd4:	2800      	cmp	r0, #0
10004bd6:	d1e0      	bne.n	10004b9a <SD_WriteDisk+0xaa>
10004bd8:	e7a2      	b.n	10004b20 <SD_WriteDisk+0x30>
10004bda:	2201      	movs	r2, #1
10004bdc:	0021      	movs	r1, r4
10004bde:	2018      	movs	r0, #24
10004be0:	f7ff fd7c 	bl	100046dc <SD_SendCmd>
10004be4:	4680      	mov	r8, r0
10004be6:	2800      	cmp	r0, #0
10004be8:	d1d7      	bne.n	10004b9a <SD_WriteDisk+0xaa>
10004bea:	4c15      	ldr	r4, [pc, #84]	; (10004c40 <SD_WriteDisk+0x150>)
10004bec:	e002      	b.n	10004bf4 <SD_WriteDisk+0x104>
10004bee:	3c01      	subs	r4, #1
10004bf0:	2c00      	cmp	r4, #0
10004bf2:	d020      	beq.n	10004c36 <SD_WriteDisk+0x146>
10004bf4:	20ff      	movs	r0, #255	; 0xff
10004bf6:	f7fb fc5f 	bl	100004b8 <SPI4W_Write_Byte>
10004bfa:	28ff      	cmp	r0, #255	; 0xff
10004bfc:	d1f7      	bne.n	10004bee <SD_WriteDisk+0xfe>
10004bfe:	20fe      	movs	r0, #254	; 0xfe
10004c00:	f7fb fc5a 	bl	100004b8 <SPI4W_Write_Byte>
10004c04:	2380      	movs	r3, #128	; 0x80
10004c06:	009b      	lsls	r3, r3, #2
10004c08:	18f4      	adds	r4, r6, r3
10004c0a:	7830      	ldrb	r0, [r6, #0]
10004c0c:	3601      	adds	r6, #1
10004c0e:	f7fb fc53 	bl	100004b8 <SPI4W_Write_Byte>
10004c12:	42a6      	cmp	r6, r4
10004c14:	d1f9      	bne.n	10004c0a <SD_WriteDisk+0x11a>
10004c16:	20ff      	movs	r0, #255	; 0xff
10004c18:	f7fb fc4e 	bl	100004b8 <SPI4W_Write_Byte>
10004c1c:	20ff      	movs	r0, #255	; 0xff
10004c1e:	f7fb fc4b 	bl	100004b8 <SPI4W_Write_Byte>
10004c22:	20ff      	movs	r0, #255	; 0xff
10004c24:	f7fb fc48 	bl	100004b8 <SPI4W_Write_Byte>
10004c28:	231f      	movs	r3, #31
10004c2a:	4003      	ands	r3, r0
10004c2c:	2b05      	cmp	r3, #5
10004c2e:	d0b4      	beq.n	10004b9a <SD_WriteDisk+0xaa>
10004c30:	2302      	movs	r3, #2
10004c32:	4698      	mov	r8, r3
10004c34:	e7b1      	b.n	10004b9a <SD_WriteDisk+0xaa>
10004c36:	2301      	movs	r3, #1
10004c38:	4698      	mov	r8, r3
10004c3a:	e7ae      	b.n	10004b9a <SD_WriteDisk+0xaa>
10004c3c:	2002714c 	.word	0x2002714c
10004c40:	00ffffff 	.word	0x00ffffff

10004c44 <i2c_bus_scan>:
10004c44:	b5f0      	push	{r4, r5, r6, r7, lr}
10004c46:	2400      	movs	r4, #0
10004c48:	250f      	movs	r5, #15
10004c4a:	b085      	sub	sp, #20
10004c4c:	4820      	ldr	r0, [pc, #128]	; (10004cd0 <i2c_bus_scan+0x8c>)
10004c4e:	f004 fb85 	bl	1000935c <__wrap_puts>
10004c52:	4820      	ldr	r0, [pc, #128]	; (10004cd4 <i2c_bus_scan+0x90>)
10004c54:	f004 fb82 	bl	1000935c <__wrap_puts>
10004c58:	4f1f      	ldr	r7, [pc, #124]	; (10004cd8 <i2c_bus_scan+0x94>)
10004c5a:	4e20      	ldr	r6, [pc, #128]	; (10004cdc <i2c_bus_scan+0x98>)
10004c5c:	4225      	tst	r5, r4
10004c5e:	d032      	beq.n	10004cc6 <i2c_bus_scan+0x82>
10004c60:	2378      	movs	r3, #120	; 0x78
10004c62:	0022      	movs	r2, r4
10004c64:	b2e1      	uxtb	r1, r4
10004c66:	401a      	ands	r2, r3
10004c68:	421c      	tst	r4, r3
10004c6a:	d01d      	beq.n	10004ca8 <i2c_bus_scan+0x64>
10004c6c:	2a78      	cmp	r2, #120	; 0x78
10004c6e:	d01b      	beq.n	10004ca8 <i2c_bus_scan+0x64>
10004c70:	2300      	movs	r3, #0
10004c72:	220f      	movs	r2, #15
10004c74:	9300      	str	r3, [sp, #0]
10004c76:	0030      	movs	r0, r6
10004c78:	3301      	adds	r3, #1
10004c7a:	446a      	add	r2, sp
10004c7c:	f007 faa4 	bl	1000c1c8 <i2c_read_blocking>
10004c80:	2800      	cmp	r0, #0
10004c82:	db11      	blt.n	10004ca8 <i2c_bus_scan+0x64>
10004c84:	4816      	ldr	r0, [pc, #88]	; (10004ce0 <i2c_bus_scan+0x9c>)
10004c86:	f004 fc0b 	bl	100094a0 <__wrap_printf>
10004c8a:	002b      	movs	r3, r5
10004c8c:	4023      	ands	r3, r4
10004c8e:	2b0f      	cmp	r3, #15
10004c90:	d011      	beq.n	10004cb6 <i2c_bus_scan+0x72>
10004c92:	4814      	ldr	r0, [pc, #80]	; (10004ce4 <i2c_bus_scan+0xa0>)
10004c94:	3401      	adds	r4, #1
10004c96:	f004 fc03 	bl	100094a0 <__wrap_printf>
10004c9a:	2c80      	cmp	r4, #128	; 0x80
10004c9c:	d1de      	bne.n	10004c5c <i2c_bus_scan+0x18>
10004c9e:	4812      	ldr	r0, [pc, #72]	; (10004ce8 <i2c_bus_scan+0xa4>)
10004ca0:	f004 fb5c 	bl	1000935c <__wrap_puts>
10004ca4:	b005      	add	sp, #20
10004ca6:	bdf0      	pop	{r4, r5, r6, r7, pc}
10004ca8:	4810      	ldr	r0, [pc, #64]	; (10004cec <i2c_bus_scan+0xa8>)
10004caa:	f004 fbf9 	bl	100094a0 <__wrap_printf>
10004cae:	002b      	movs	r3, r5
10004cb0:	4023      	ands	r3, r4
10004cb2:	2b0f      	cmp	r3, #15
10004cb4:	d1ed      	bne.n	10004c92 <i2c_bus_scan+0x4e>
10004cb6:	200a      	movs	r0, #10
10004cb8:	3401      	adds	r4, #1
10004cba:	f004 faff 	bl	100092bc <__wrap_putchar>
10004cbe:	2c80      	cmp	r4, #128	; 0x80
10004cc0:	d0ed      	beq.n	10004c9e <i2c_bus_scan+0x5a>
10004cc2:	4225      	tst	r5, r4
10004cc4:	d1cc      	bne.n	10004c60 <i2c_bus_scan+0x1c>
10004cc6:	0021      	movs	r1, r4
10004cc8:	0038      	movs	r0, r7
10004cca:	f004 fbe9 	bl	100094a0 <__wrap_printf>
10004cce:	e7c7      	b.n	10004c60 <i2c_bus_scan+0x1c>
10004cd0:	1000d170 	.word	0x1000d170
10004cd4:	1000d180 	.word	0x1000d180
10004cd8:	1000d1b4 	.word	0x1000d1b4
10004cdc:	200004e8 	.word	0x200004e8
10004ce0:	1000d16c 	.word	0x1000d16c
10004ce4:	1000d1bc 	.word	0x1000d1bc
10004ce8:	1000d1c0 	.word	0x1000d1c0
10004cec:	1000d1c4 	.word	0x1000d1c4

10004cf0 <getPCAmode>:
10004cf0:	b570      	push	{r4, r5, r6, lr}
10004cf2:	2600      	movs	r6, #0
10004cf4:	b084      	sub	sp, #16
10004cf6:	ac03      	add	r4, sp, #12
10004cf8:	7060      	strb	r0, [r4, #1]
10004cfa:	7026      	strb	r6, [r4, #0]
10004cfc:	f7ff ffa2 	bl	10004c44 <i2c_bus_scan>
10004d00:	4d19      	ldr	r5, [pc, #100]	; (10004d68 <getPCAmode+0x78>)
10004d02:	0022      	movs	r2, r4
10004d04:	2302      	movs	r3, #2
10004d06:	2140      	movs	r1, #64	; 0x40
10004d08:	0028      	movs	r0, r5
10004d0a:	9600      	str	r6, [sp, #0]
10004d0c:	f007 f9f4 	bl	1000c0f8 <i2c_write_blocking>
10004d10:	2301      	movs	r3, #1
10004d12:	2200      	movs	r2, #0
10004d14:	9300      	str	r3, [sp, #0]
10004d16:	2140      	movs	r1, #64	; 0x40
10004d18:	0028      	movs	r0, r5
10004d1a:	f007 f9ed 	bl	1000c0f8 <i2c_write_blocking>
10004d1e:	2301      	movs	r3, #1
10004d20:	2200      	movs	r2, #0
10004d22:	2140      	movs	r1, #64	; 0x40
10004d24:	0028      	movs	r0, r5
10004d26:	9600      	str	r6, [sp, #0]
10004d28:	f007 fa4e 	bl	1000c1c8 <i2c_read_blocking>
10004d2c:	21ff      	movs	r1, #255	; 0xff
10004d2e:	4001      	ands	r1, r0
10004d30:	480e      	ldr	r0, [pc, #56]	; (10004d6c <getPCAmode+0x7c>)
10004d32:	f004 fbb5 	bl	100094a0 <__wrap_printf>
10004d36:	2100      	movs	r1, #0
10004d38:	480d      	ldr	r0, [pc, #52]	; (10004d70 <getPCAmode+0x80>)
10004d3a:	f004 fbb1 	bl	100094a0 <__wrap_printf>
10004d3e:	23fc      	movs	r3, #252	; 0xfc
10004d40:	0022      	movs	r2, r4
10004d42:	8023      	strh	r3, [r4, #0]
10004d44:	2140      	movs	r1, #64	; 0x40
10004d46:	0028      	movs	r0, r5
10004d48:	9600      	str	r6, [sp, #0]
10004d4a:	3bfa      	subs	r3, #250	; 0xfa
10004d4c:	f007 f9d4 	bl	1000c0f8 <i2c_write_blocking>
10004d50:	23fd      	movs	r3, #253	; 0xfd
10004d52:	0022      	movs	r2, r4
10004d54:	8023      	strh	r3, [r4, #0]
10004d56:	2140      	movs	r1, #64	; 0x40
10004d58:	0028      	movs	r0, r5
10004d5a:	9600      	str	r6, [sp, #0]
10004d5c:	3bfb      	subs	r3, #251	; 0xfb
10004d5e:	f007 f9cb 	bl	1000c0f8 <i2c_write_blocking>
10004d62:	b004      	add	sp, #16
10004d64:	bd70      	pop	{r4, r5, r6, pc}
10004d66:	46c0      	nop			; (mov r8, r8)
10004d68:	200004e8 	.word	0x200004e8
10004d6c:	1000d1c8 	.word	0x1000d1c8
10004d70:	1000d1d8 	.word	0x1000d1d8

10004d74 <pca_i2c_init>:
10004d74:	b510      	push	{r4, lr}
10004d76:	490d      	ldr	r1, [pc, #52]	; (10004dac <pca_i2c_init+0x38>)
10004d78:	480d      	ldr	r0, [pc, #52]	; (10004db0 <pca_i2c_init+0x3c>)
10004d7a:	f007 f993 	bl	1000c0a4 <i2c_init>
10004d7e:	2103      	movs	r1, #3
10004d80:	201a      	movs	r0, #26
10004d82:	f000 fab1 	bl	100052e8 <gpio_set_function>
10004d86:	2103      	movs	r1, #3
10004d88:	201b      	movs	r0, #27
10004d8a:	f000 faad 	bl	100052e8 <gpio_set_function>
10004d8e:	2200      	movs	r2, #0
10004d90:	2101      	movs	r1, #1
10004d92:	201a      	movs	r0, #26
10004d94:	f000 fac0 	bl	10005318 <gpio_set_pulls>
10004d98:	2200      	movs	r2, #0
10004d9a:	2101      	movs	r1, #1
10004d9c:	201b      	movs	r0, #27
10004d9e:	f000 fabb 	bl	10005318 <gpio_set_pulls>
10004da2:	2000      	movs	r0, #0
10004da4:	f7ff ffa4 	bl	10004cf0 <getPCAmode>
10004da8:	bd10      	pop	{r4, pc}
10004daa:	46c0      	nop			; (mov r8, r8)
10004dac:	000186a0 	.word	0x000186a0
10004db0:	200004e8 	.word	0x200004e8

10004db4 <SystemInit>:
10004db4:	b510      	push	{r4, lr}
10004db6:	2005      	movs	r0, #5
10004db8:	f000 f9ee 	bl	10005198 <clock_get_hz>
10004dbc:	4b01      	ldr	r3, [pc, #4]	; (10004dc4 <SystemInit+0x10>)
10004dbe:	6018      	str	r0, [r3, #0]
10004dc0:	bd10      	pop	{r4, pc}
10004dc2:	46c0      	nop			; (mov r8, r8)
10004dc4:	20000844 	.word	0x20000844

10004dc8 <clock_configure>:
10004dc8:	b5f0      	push	{r4, r5, r6, r7, lr}
10004dca:	4645      	mov	r5, r8
10004dcc:	46de      	mov	lr, fp
10004dce:	4657      	mov	r7, sl
10004dd0:	464e      	mov	r6, r9
10004dd2:	b5e0      	push	{r5, r6, r7, lr}
10004dd4:	b083      	sub	sp, #12
10004dd6:	9201      	str	r2, [sp, #4]
10004dd8:	9a0c      	ldr	r2, [sp, #48]	; 0x30
10004dda:	0005      	movs	r5, r0
10004ddc:	4688      	mov	r8, r1
10004dde:	429a      	cmp	r2, r3
10004de0:	d900      	bls.n	10004de4 <clock_configure+0x1c>
10004de2:	e074      	b.n	10004ece <clock_configure+0x106>
10004de4:	0e1a      	lsrs	r2, r3, #24
10004de6:	4693      	mov	fp, r2
10004de8:	021e      	lsls	r6, r3, #8
10004dea:	0030      	movs	r0, r6
10004dec:	2300      	movs	r3, #0
10004dee:	4659      	mov	r1, fp
10004df0:	9a0c      	ldr	r2, [sp, #48]	; 0x30
10004df2:	f003 faab 	bl	1000834c <__wrap___aeabi_uldivmod>
10004df6:	4b37      	ldr	r3, [pc, #220]	; (10004ed4 <clock_configure+0x10c>)
10004df8:	006c      	lsls	r4, r5, #1
10004dfa:	469c      	mov	ip, r3
10004dfc:	1964      	adds	r4, r4, r5
10004dfe:	00a4      	lsls	r4, r4, #2
10004e00:	4464      	add	r4, ip
10004e02:	6863      	ldr	r3, [r4, #4]
10004e04:	0007      	movs	r7, r0
10004e06:	4283      	cmp	r3, r0
10004e08:	d200      	bcs.n	10004e0c <clock_configure+0x44>
10004e0a:	6060      	str	r0, [r4, #4]
10004e0c:	1f2b      	subs	r3, r5, #4
10004e0e:	b2db      	uxtb	r3, r3
10004e10:	4699      	mov	r9, r3
10004e12:	2b01      	cmp	r3, #1
10004e14:	d935      	bls.n	10004e82 <clock_configure+0xba>
10004e16:	23c0      	movs	r3, #192	; 0xc0
10004e18:	2280      	movs	r2, #128	; 0x80
10004e1a:	019b      	lsls	r3, r3, #6
10004e1c:	4323      	orrs	r3, r4
10004e1e:	0112      	lsls	r2, r2, #4
10004e20:	601a      	str	r2, [r3, #0]
10004e22:	4b2d      	ldr	r3, [pc, #180]	; (10004ed8 <clock_configure+0x110>)
10004e24:	00ad      	lsls	r5, r5, #2
10004e26:	5959      	ldr	r1, [r3, r5]
10004e28:	469a      	mov	sl, r3
10004e2a:	2900      	cmp	r1, #0
10004e2c:	d005      	beq.n	10004e3a <clock_configure+0x72>
10004e2e:	6958      	ldr	r0, [r3, #20]
10004e30:	f003 fa4a 	bl	100082c8 <__wrap___aeabi_uidiv>
10004e34:	3001      	adds	r0, #1
10004e36:	3801      	subs	r0, #1
10004e38:	d1fd      	bne.n	10004e36 <clock_configure+0x6e>
10004e3a:	9a01      	ldr	r2, [sp, #4]
10004e3c:	6823      	ldr	r3, [r4, #0]
10004e3e:	0152      	lsls	r2, r2, #5
10004e40:	4053      	eors	r3, r2
10004e42:	22e0      	movs	r2, #224	; 0xe0
10004e44:	401a      	ands	r2, r3
10004e46:	2380      	movs	r3, #128	; 0x80
10004e48:	015b      	lsls	r3, r3, #5
10004e4a:	4323      	orrs	r3, r4
10004e4c:	601a      	str	r2, [r3, #0]
10004e4e:	464a      	mov	r2, r9
10004e50:	2a01      	cmp	r2, #1
10004e52:	d92f      	bls.n	10004eb4 <clock_configure+0xec>
10004e54:	2380      	movs	r3, #128	; 0x80
10004e56:	2280      	movs	r2, #128	; 0x80
10004e58:	019b      	lsls	r3, r3, #6
10004e5a:	4323      	orrs	r3, r4
10004e5c:	0112      	lsls	r2, r2, #4
10004e5e:	601a      	str	r2, [r3, #0]
10004e60:	0030      	movs	r0, r6
10004e62:	2300      	movs	r3, #0
10004e64:	003a      	movs	r2, r7
10004e66:	4659      	mov	r1, fp
10004e68:	6067      	str	r7, [r4, #4]
10004e6a:	f003 fa6f 	bl	1000834c <__wrap___aeabi_uldivmod>
10004e6e:	4653      	mov	r3, sl
10004e70:	5158      	str	r0, [r3, r5]
10004e72:	2001      	movs	r0, #1
10004e74:	b003      	add	sp, #12
10004e76:	bcf0      	pop	{r4, r5, r6, r7}
10004e78:	46bb      	mov	fp, r7
10004e7a:	46b2      	mov	sl, r6
10004e7c:	46a9      	mov	r9, r5
10004e7e:	46a0      	mov	r8, r4
10004e80:	bdf0      	pop	{r4, r5, r6, r7, pc}
10004e82:	4643      	mov	r3, r8
10004e84:	2b01      	cmp	r3, #1
10004e86:	d1c6      	bne.n	10004e16 <clock_configure+0x4e>
10004e88:	23c0      	movs	r3, #192	; 0xc0
10004e8a:	2203      	movs	r2, #3
10004e8c:	019b      	lsls	r3, r3, #6
10004e8e:	4323      	orrs	r3, r4
10004e90:	601a      	str	r2, [r3, #0]
10004e92:	3a02      	subs	r2, #2
10004e94:	68a3      	ldr	r3, [r4, #8]
10004e96:	421a      	tst	r2, r3
10004e98:	d0fc      	beq.n	10004e94 <clock_configure+0xcc>
10004e9a:	9a01      	ldr	r2, [sp, #4]
10004e9c:	6823      	ldr	r3, [r4, #0]
10004e9e:	0152      	lsls	r2, r2, #5
10004ea0:	405a      	eors	r2, r3
10004ea2:	23e0      	movs	r3, #224	; 0xe0
10004ea4:	401a      	ands	r2, r3
10004ea6:	2380      	movs	r3, #128	; 0x80
10004ea8:	015b      	lsls	r3, r3, #5
10004eaa:	4323      	orrs	r3, r4
10004eac:	601a      	str	r2, [r3, #0]
10004eae:	4a0a      	ldr	r2, [pc, #40]	; (10004ed8 <clock_configure+0x110>)
10004eb0:	00ad      	lsls	r5, r5, #2
10004eb2:	4692      	mov	sl, r2
10004eb4:	4642      	mov	r2, r8
10004eb6:	6821      	ldr	r1, [r4, #0]
10004eb8:	4051      	eors	r1, r2
10004eba:	2203      	movs	r2, #3
10004ebc:	400a      	ands	r2, r1
10004ebe:	601a      	str	r2, [r3, #0]
10004ec0:	2201      	movs	r2, #1
10004ec2:	4643      	mov	r3, r8
10004ec4:	409a      	lsls	r2, r3
10004ec6:	68a3      	ldr	r3, [r4, #8]
10004ec8:	421a      	tst	r2, r3
10004eca:	d0fc      	beq.n	10004ec6 <clock_configure+0xfe>
10004ecc:	e7c2      	b.n	10004e54 <clock_configure+0x8c>
10004ece:	2000      	movs	r0, #0
10004ed0:	e7d0      	b.n	10004e74 <clock_configure+0xac>
10004ed2:	46c0      	nop			; (mov r8, r8)
10004ed4:	40008000 	.word	0x40008000
10004ed8:	20001080 	.word	0x20001080

10004edc <clocks_init>:
10004edc:	b530      	push	{r4, r5, lr}
10004ede:	200c      	movs	r0, #12
10004ee0:	b083      	sub	sp, #12
10004ee2:	f001 fcb5 	bl	10006850 <watchdog_start_tick>
10004ee6:	f000 f9cd 	bl	10005284 <running_on_fpga>
10004eea:	2800      	cmp	r0, #0
10004eec:	d00e      	beq.n	10004f0c <clocks_init+0x30>
10004eee:	4b94      	ldr	r3, [pc, #592]	; (10005140 <clocks_init+0x264>)
10004ef0:	4a94      	ldr	r2, [pc, #592]	; (10005144 <clocks_init+0x268>)
10004ef2:	601a      	str	r2, [r3, #0]
10004ef4:	605a      	str	r2, [r3, #4]
10004ef6:	609a      	str	r2, [r3, #8]
10004ef8:	60da      	str	r2, [r3, #12]
10004efa:	611a      	str	r2, [r3, #16]
10004efc:	615a      	str	r2, [r3, #20]
10004efe:	619a      	str	r2, [r3, #24]
10004f00:	61da      	str	r2, [r3, #28]
10004f02:	621a      	str	r2, [r3, #32]
10004f04:	4a90      	ldr	r2, [pc, #576]	; (10005148 <clocks_init+0x26c>)
10004f06:	625a      	str	r2, [r3, #36]	; 0x24
10004f08:	b003      	add	sp, #12
10004f0a:	bd30      	pop	{r4, r5, pc}
10004f0c:	4c8f      	ldr	r4, [pc, #572]	; (1000514c <clocks_init+0x270>)
10004f0e:	67a0      	str	r0, [r4, #120]	; 0x78
10004f10:	f001 fcf2 	bl	100068f8 <xosc_init>
10004f14:	2201      	movs	r2, #1
10004f16:	4b8e      	ldr	r3, [pc, #568]	; (10005150 <clocks_init+0x274>)
10004f18:	601a      	str	r2, [r3, #0]
10004f1a:	6c63      	ldr	r3, [r4, #68]	; 0x44
10004f1c:	2b01      	cmp	r3, #1
10004f1e:	d1fc      	bne.n	10004f1a <clocks_init+0x3e>
10004f20:	2203      	movs	r2, #3
10004f22:	4b8c      	ldr	r3, [pc, #560]	; (10005154 <clocks_init+0x278>)
10004f24:	601a      	str	r2, [r3, #0]
10004f26:	4a89      	ldr	r2, [pc, #548]	; (1000514c <clocks_init+0x270>)
10004f28:	6b93      	ldr	r3, [r2, #56]	; 0x38
10004f2a:	2b01      	cmp	r3, #1
10004f2c:	d1fc      	bne.n	10004f28 <clocks_init+0x4c>
10004f2e:	3301      	adds	r3, #1
10004f30:	2101      	movs	r1, #1
10004f32:	4a89      	ldr	r2, [pc, #548]	; (10005158 <clocks_init+0x27c>)
10004f34:	4889      	ldr	r0, [pc, #548]	; (1000515c <clocks_init+0x280>)
10004f36:	9300      	str	r3, [sp, #0]
10004f38:	3304      	adds	r3, #4
10004f3a:	f001 fc31 	bl	100067a0 <pll_init>
10004f3e:	2305      	movs	r3, #5
10004f40:	4a87      	ldr	r2, [pc, #540]	; (10005160 <clocks_init+0x284>)
10004f42:	9300      	str	r3, [sp, #0]
10004f44:	2101      	movs	r1, #1
10004f46:	4887      	ldr	r0, [pc, #540]	; (10005164 <clocks_init+0x288>)
10004f48:	f001 fc2a 	bl	100067a0 <pll_init>
10004f4c:	4b86      	ldr	r3, [pc, #536]	; (10005168 <clocks_init+0x28c>)
10004f4e:	685a      	ldr	r2, [r3, #4]
10004f50:	2aff      	cmp	r2, #255	; 0xff
10004f52:	d802      	bhi.n	10004f5a <clocks_init+0x7e>
10004f54:	2280      	movs	r2, #128	; 0x80
10004f56:	0052      	lsls	r2, r2, #1
10004f58:	605a      	str	r2, [r3, #4]
10004f5a:	2280      	movs	r2, #128	; 0x80
10004f5c:	4c78      	ldr	r4, [pc, #480]	; (10005140 <clocks_init+0x264>)
10004f5e:	4b7d      	ldr	r3, [pc, #500]	; (10005154 <clocks_init+0x278>)
10004f60:	6921      	ldr	r1, [r4, #16]
10004f62:	0112      	lsls	r2, r2, #4
10004f64:	4d80      	ldr	r5, [pc, #512]	; (10005168 <clocks_init+0x28c>)
10004f66:	601a      	str	r2, [r3, #0]
10004f68:	2900      	cmp	r1, #0
10004f6a:	d005      	beq.n	10004f78 <clocks_init+0x9c>
10004f6c:	6960      	ldr	r0, [r4, #20]
10004f6e:	f003 f9ab 	bl	100082c8 <__wrap___aeabi_uidiv>
10004f72:	3001      	adds	r0, #1
10004f74:	3801      	subs	r0, #1
10004f76:	d1fd      	bne.n	10004f74 <clocks_init+0x98>
10004f78:	21e0      	movs	r1, #224	; 0xe0
10004f7a:	4b7b      	ldr	r3, [pc, #492]	; (10005168 <clocks_init+0x28c>)
10004f7c:	2002      	movs	r0, #2
10004f7e:	681a      	ldr	r2, [r3, #0]
10004f80:	4011      	ands	r1, r2
10004f82:	2280      	movs	r2, #128	; 0x80
10004f84:	0152      	lsls	r2, r2, #5
10004f86:	432a      	orrs	r2, r5
10004f88:	6011      	str	r1, [r2, #0]
10004f8a:	6819      	ldr	r1, [r3, #0]
10004f8c:	4048      	eors	r0, r1
10004f8e:	2103      	movs	r1, #3
10004f90:	4001      	ands	r1, r0
10004f92:	6011      	str	r1, [r2, #0]
10004f94:	2104      	movs	r1, #4
10004f96:	689a      	ldr	r2, [r3, #8]
10004f98:	4211      	tst	r1, r2
10004f9a:	d0fc      	beq.n	10004f96 <clocks_init+0xba>
10004f9c:	2280      	movs	r2, #128	; 0x80
10004f9e:	2180      	movs	r1, #128	; 0x80
10004fa0:	0192      	lsls	r2, r2, #6
10004fa2:	432a      	orrs	r2, r5
10004fa4:	0109      	lsls	r1, r1, #4
10004fa6:	6011      	str	r1, [r2, #0]
10004fa8:	2280      	movs	r2, #128	; 0x80
10004faa:	0052      	lsls	r2, r2, #1
10004fac:	605a      	str	r2, [r3, #4]
10004fae:	4b6f      	ldr	r3, [pc, #444]	; (1000516c <clocks_init+0x290>)
10004fb0:	6123      	str	r3, [r4, #16]
10004fb2:	4b6f      	ldr	r3, [pc, #444]	; (10005170 <clocks_init+0x294>)
10004fb4:	6859      	ldr	r1, [r3, #4]
10004fb6:	29ff      	cmp	r1, #255	; 0xff
10004fb8:	d800      	bhi.n	10004fbc <clocks_init+0xe0>
10004fba:	605a      	str	r2, [r3, #4]
10004fbc:	2103      	movs	r1, #3
10004fbe:	4a64      	ldr	r2, [pc, #400]	; (10005150 <clocks_init+0x274>)
10004fc0:	4b6b      	ldr	r3, [pc, #428]	; (10005170 <clocks_init+0x294>)
10004fc2:	6011      	str	r1, [r2, #0]
10004fc4:	3902      	subs	r1, #2
10004fc6:	689a      	ldr	r2, [r3, #8]
10004fc8:	4211      	tst	r1, r2
10004fca:	d0fc      	beq.n	10004fc6 <clocks_init+0xea>
10004fcc:	20e0      	movs	r0, #224	; 0xe0
10004fce:	681a      	ldr	r2, [r3, #0]
10004fd0:	4010      	ands	r0, r2
10004fd2:	2280      	movs	r2, #128	; 0x80
10004fd4:	0152      	lsls	r2, r2, #5
10004fd6:	431a      	orrs	r2, r3
10004fd8:	6010      	str	r0, [r2, #0]
10004fda:	6818      	ldr	r0, [r3, #0]
10004fdc:	4048      	eors	r0, r1
10004fde:	2103      	movs	r1, #3
10004fe0:	4001      	ands	r1, r0
10004fe2:	2002      	movs	r0, #2
10004fe4:	6011      	str	r1, [r2, #0]
10004fe6:	4962      	ldr	r1, [pc, #392]	; (10005170 <clocks_init+0x294>)
10004fe8:	688a      	ldr	r2, [r1, #8]
10004fea:	4210      	tst	r0, r2
10004fec:	d0fc      	beq.n	10004fe8 <clocks_init+0x10c>
10004fee:	2280      	movs	r2, #128	; 0x80
10004ff0:	0192      	lsls	r2, r2, #6
10004ff2:	4313      	orrs	r3, r2
10004ff4:	2280      	movs	r2, #128	; 0x80
10004ff6:	0112      	lsls	r2, r2, #4
10004ff8:	601a      	str	r2, [r3, #0]
10004ffa:	2280      	movs	r2, #128	; 0x80
10004ffc:	4b5d      	ldr	r3, [pc, #372]	; (10005174 <clocks_init+0x298>)
10004ffe:	0052      	lsls	r2, r2, #1
10005000:	604a      	str	r2, [r1, #4]
10005002:	6163      	str	r3, [r4, #20]
10005004:	4b5c      	ldr	r3, [pc, #368]	; (10005178 <clocks_init+0x29c>)
10005006:	6859      	ldr	r1, [r3, #4]
10005008:	29ff      	cmp	r1, #255	; 0xff
1000500a:	d800      	bhi.n	1000500e <clocks_init+0x132>
1000500c:	605a      	str	r2, [r3, #4]
1000500e:	2280      	movs	r2, #128	; 0x80
10005010:	4b5a      	ldr	r3, [pc, #360]	; (1000517c <clocks_init+0x2a0>)
10005012:	69e1      	ldr	r1, [r4, #28]
10005014:	0112      	lsls	r2, r2, #4
10005016:	4d58      	ldr	r5, [pc, #352]	; (10005178 <clocks_init+0x29c>)
10005018:	601a      	str	r2, [r3, #0]
1000501a:	2900      	cmp	r1, #0
1000501c:	d005      	beq.n	1000502a <clocks_init+0x14e>
1000501e:	6960      	ldr	r0, [r4, #20]
10005020:	f003 f952 	bl	100082c8 <__wrap___aeabi_uidiv>
10005024:	3001      	adds	r0, #1
10005026:	3801      	subs	r0, #1
10005028:	d1fd      	bne.n	10005026 <clocks_init+0x14a>
1000502a:	22e0      	movs	r2, #224	; 0xe0
1000502c:	4952      	ldr	r1, [pc, #328]	; (10005178 <clocks_init+0x29c>)
1000502e:	680b      	ldr	r3, [r1, #0]
10005030:	401a      	ands	r2, r3
10005032:	2380      	movs	r3, #128	; 0x80
10005034:	015b      	lsls	r3, r3, #5
10005036:	432b      	orrs	r3, r5
10005038:	601a      	str	r2, [r3, #0]
1000503a:	2380      	movs	r3, #128	; 0x80
1000503c:	2280      	movs	r2, #128	; 0x80
1000503e:	019b      	lsls	r3, r3, #6
10005040:	432b      	orrs	r3, r5
10005042:	0112      	lsls	r2, r2, #4
10005044:	601a      	str	r2, [r3, #0]
10005046:	2280      	movs	r2, #128	; 0x80
10005048:	4b3e      	ldr	r3, [pc, #248]	; (10005144 <clocks_init+0x268>)
1000504a:	0052      	lsls	r2, r2, #1
1000504c:	604a      	str	r2, [r1, #4]
1000504e:	61e3      	str	r3, [r4, #28]
10005050:	4b4b      	ldr	r3, [pc, #300]	; (10005180 <clocks_init+0x2a4>)
10005052:	6859      	ldr	r1, [r3, #4]
10005054:	29ff      	cmp	r1, #255	; 0xff
10005056:	d800      	bhi.n	1000505a <clocks_init+0x17e>
10005058:	605a      	str	r2, [r3, #4]
1000505a:	2280      	movs	r2, #128	; 0x80
1000505c:	4b49      	ldr	r3, [pc, #292]	; (10005184 <clocks_init+0x2a8>)
1000505e:	6a21      	ldr	r1, [r4, #32]
10005060:	0112      	lsls	r2, r2, #4
10005062:	4d47      	ldr	r5, [pc, #284]	; (10005180 <clocks_init+0x2a4>)
10005064:	601a      	str	r2, [r3, #0]
10005066:	2900      	cmp	r1, #0
10005068:	d005      	beq.n	10005076 <clocks_init+0x19a>
1000506a:	6960      	ldr	r0, [r4, #20]
1000506c:	f003 f92c 	bl	100082c8 <__wrap___aeabi_uidiv>
10005070:	3001      	adds	r0, #1
10005072:	3801      	subs	r0, #1
10005074:	d1fd      	bne.n	10005072 <clocks_init+0x196>
10005076:	22e0      	movs	r2, #224	; 0xe0
10005078:	4941      	ldr	r1, [pc, #260]	; (10005180 <clocks_init+0x2a4>)
1000507a:	680b      	ldr	r3, [r1, #0]
1000507c:	401a      	ands	r2, r3
1000507e:	2380      	movs	r3, #128	; 0x80
10005080:	015b      	lsls	r3, r3, #5
10005082:	432b      	orrs	r3, r5
10005084:	601a      	str	r2, [r3, #0]
10005086:	2380      	movs	r3, #128	; 0x80
10005088:	2280      	movs	r2, #128	; 0x80
1000508a:	019b      	lsls	r3, r3, #6
1000508c:	432b      	orrs	r3, r5
1000508e:	0112      	lsls	r2, r2, #4
10005090:	601a      	str	r2, [r3, #0]
10005092:	2380      	movs	r3, #128	; 0x80
10005094:	2280      	movs	r2, #128	; 0x80
10005096:	005b      	lsls	r3, r3, #1
10005098:	604b      	str	r3, [r1, #4]
1000509a:	4b2a      	ldr	r3, [pc, #168]	; (10005144 <clocks_init+0x268>)
1000509c:	02d2      	lsls	r2, r2, #11
1000509e:	6223      	str	r3, [r4, #32]
100050a0:	4b39      	ldr	r3, [pc, #228]	; (10005188 <clocks_init+0x2ac>)
100050a2:	6859      	ldr	r1, [r3, #4]
100050a4:	4291      	cmp	r1, r2
100050a6:	d200      	bcs.n	100050aa <clocks_init+0x1ce>
100050a8:	605a      	str	r2, [r3, #4]
100050aa:	2280      	movs	r2, #128	; 0x80
100050ac:	4b37      	ldr	r3, [pc, #220]	; (1000518c <clocks_init+0x2b0>)
100050ae:	6a61      	ldr	r1, [r4, #36]	; 0x24
100050b0:	0112      	lsls	r2, r2, #4
100050b2:	4d35      	ldr	r5, [pc, #212]	; (10005188 <clocks_init+0x2ac>)
100050b4:	601a      	str	r2, [r3, #0]
100050b6:	2900      	cmp	r1, #0
100050b8:	d005      	beq.n	100050c6 <clocks_init+0x1ea>
100050ba:	6960      	ldr	r0, [r4, #20]
100050bc:	f003 f904 	bl	100082c8 <__wrap___aeabi_uidiv>
100050c0:	3001      	adds	r0, #1
100050c2:	3801      	subs	r0, #1
100050c4:	d1fd      	bne.n	100050c2 <clocks_init+0x1e6>
100050c6:	22e0      	movs	r2, #224	; 0xe0
100050c8:	492f      	ldr	r1, [pc, #188]	; (10005188 <clocks_init+0x2ac>)
100050ca:	680b      	ldr	r3, [r1, #0]
100050cc:	401a      	ands	r2, r3
100050ce:	2380      	movs	r3, #128	; 0x80
100050d0:	015b      	lsls	r3, r3, #5
100050d2:	432b      	orrs	r3, r5
100050d4:	601a      	str	r2, [r3, #0]
100050d6:	2380      	movs	r3, #128	; 0x80
100050d8:	2280      	movs	r2, #128	; 0x80
100050da:	019b      	lsls	r3, r3, #6
100050dc:	432b      	orrs	r3, r5
100050de:	0112      	lsls	r2, r2, #4
100050e0:	601a      	str	r2, [r3, #0]
100050e2:	2380      	movs	r3, #128	; 0x80
100050e4:	02db      	lsls	r3, r3, #11
100050e6:	604b      	str	r3, [r1, #4]
100050e8:	4b17      	ldr	r3, [pc, #92]	; (10005148 <clocks_init+0x26c>)
100050ea:	6263      	str	r3, [r4, #36]	; 0x24
100050ec:	4b28      	ldr	r3, [pc, #160]	; (10005190 <clocks_init+0x2b4>)
100050ee:	685a      	ldr	r2, [r3, #4]
100050f0:	2aff      	cmp	r2, #255	; 0xff
100050f2:	d802      	bhi.n	100050fa <clocks_init+0x21e>
100050f4:	2280      	movs	r2, #128	; 0x80
100050f6:	0052      	lsls	r2, r2, #1
100050f8:	605a      	str	r2, [r3, #4]
100050fa:	2280      	movs	r2, #128	; 0x80
100050fc:	4b25      	ldr	r3, [pc, #148]	; (10005194 <clocks_init+0x2b8>)
100050fe:	69a1      	ldr	r1, [r4, #24]
10005100:	0112      	lsls	r2, r2, #4
10005102:	4d23      	ldr	r5, [pc, #140]	; (10005190 <clocks_init+0x2b4>)
10005104:	601a      	str	r2, [r3, #0]
10005106:	2900      	cmp	r1, #0
10005108:	d005      	beq.n	10005116 <clocks_init+0x23a>
1000510a:	6960      	ldr	r0, [r4, #20]
1000510c:	f003 f8dc 	bl	100082c8 <__wrap___aeabi_uidiv>
10005110:	3001      	adds	r0, #1
10005112:	3801      	subs	r0, #1
10005114:	d1fd      	bne.n	10005112 <clocks_init+0x236>
10005116:	22e0      	movs	r2, #224	; 0xe0
10005118:	491d      	ldr	r1, [pc, #116]	; (10005190 <clocks_init+0x2b4>)
1000511a:	680b      	ldr	r3, [r1, #0]
1000511c:	401a      	ands	r2, r3
1000511e:	2380      	movs	r3, #128	; 0x80
10005120:	015b      	lsls	r3, r3, #5
10005122:	432b      	orrs	r3, r5
10005124:	601a      	str	r2, [r3, #0]
10005126:	2380      	movs	r3, #128	; 0x80
10005128:	2280      	movs	r2, #128	; 0x80
1000512a:	019b      	lsls	r3, r3, #6
1000512c:	432b      	orrs	r3, r5
1000512e:	0112      	lsls	r2, r2, #4
10005130:	601a      	str	r2, [r3, #0]
10005132:	2380      	movs	r3, #128	; 0x80
10005134:	005b      	lsls	r3, r3, #1
10005136:	604b      	str	r3, [r1, #4]
10005138:	4b0e      	ldr	r3, [pc, #56]	; (10005174 <clocks_init+0x298>)
1000513a:	61a3      	str	r3, [r4, #24]
1000513c:	e6e4      	b.n	10004f08 <clocks_init+0x2c>
1000513e:	46c0      	nop			; (mov r8, r8)
10005140:	20001080 	.word	0x20001080
10005144:	02dc6c00 	.word	0x02dc6c00
10005148:	0000b71b 	.word	0x0000b71b
1000514c:	40008000 	.word	0x40008000
10005150:	4000b03c 	.word	0x4000b03c
10005154:	4000b030 	.word	0x4000b030
10005158:	59682f00 	.word	0x59682f00
1000515c:	40028000 	.word	0x40028000
10005160:	47868c00 	.word	0x47868c00
10005164:	4002c000 	.word	0x4002c000
10005168:	40008030 	.word	0x40008030
1000516c:	00b71b00 	.word	0x00b71b00
10005170:	4000803c 	.word	0x4000803c
10005174:	07735940 	.word	0x07735940
10005178:	40008054 	.word	0x40008054
1000517c:	4000b054 	.word	0x4000b054
10005180:	40008060 	.word	0x40008060
10005184:	4000b060 	.word	0x4000b060
10005188:	4000806c 	.word	0x4000806c
1000518c:	4000b06c 	.word	0x4000b06c
10005190:	40008048 	.word	0x40008048
10005194:	4000b048 	.word	0x4000b048

10005198 <clock_get_hz>:
10005198:	4b01      	ldr	r3, [pc, #4]	; (100051a0 <clock_get_hz+0x8>)
1000519a:	0080      	lsls	r0, r0, #2
1000519c:	58c0      	ldr	r0, [r0, r3]
1000519e:	4770      	bx	lr
100051a0:	20001080 	.word	0x20001080

100051a4 <hw_claim_or_assert>:
100051a4:	b570      	push	{r4, r5, r6, lr}
100051a6:	f3ef 8c10 	mrs	ip, PRIMASK
100051aa:	b672      	cpsid	i
100051ac:	4d0d      	ldr	r5, [pc, #52]	; (100051e4 <hw_claim_or_assert+0x40>)
100051ae:	682b      	ldr	r3, [r5, #0]
100051b0:	2b00      	cmp	r3, #0
100051b2:	d0fc      	beq.n	100051ae <hw_claim_or_assert+0xa>
100051b4:	f3bf 8f5f 	dmb	sy
100051b8:	2407      	movs	r4, #7
100051ba:	08cb      	lsrs	r3, r1, #3
100051bc:	18c6      	adds	r6, r0, r3
100051be:	5cc0      	ldrb	r0, [r0, r3]
100051c0:	2301      	movs	r3, #1
100051c2:	400c      	ands	r4, r1
100051c4:	40a3      	lsls	r3, r4
100051c6:	001c      	movs	r4, r3
100051c8:	4004      	ands	r4, r0
100051ca:	4203      	tst	r3, r0
100051cc:	d107      	bne.n	100051de <hw_claim_or_assert+0x3a>
100051ce:	4303      	orrs	r3, r0
100051d0:	7033      	strb	r3, [r6, #0]
100051d2:	f3bf 8f5f 	dmb	sy
100051d6:	602c      	str	r4, [r5, #0]
100051d8:	f38c 8810 	msr	PRIMASK, ip
100051dc:	bd70      	pop	{r4, r5, r6, pc}
100051de:	0010      	movs	r0, r2
100051e0:	f001 fd10 	bl	10006c04 <panic>
100051e4:	d000012c 	.word	0xd000012c

100051e8 <hw_claim_unused_from_range>:
100051e8:	b5f8      	push	{r3, r4, r5, r6, r7, lr}
100051ea:	4647      	mov	r7, r8
100051ec:	46ce      	mov	lr, r9
100051ee:	4688      	mov	r8, r1
100051f0:	b580      	push	{r7, lr}
100051f2:	f3ef 8c10 	mrs	ip, PRIMASK
100051f6:	b672      	cpsid	i
100051f8:	4d21      	ldr	r5, [pc, #132]	; (10005280 <hw_claim_unused_from_range+0x98>)
100051fa:	682c      	ldr	r4, [r5, #0]
100051fc:	2c00      	cmp	r4, #0
100051fe:	d0fc      	beq.n	100051fa <hw_claim_unused_from_range+0x12>
10005200:	f3bf 8f5f 	dmb	sy
10005204:	429a      	cmp	r2, r3
10005206:	d82c      	bhi.n	10005262 <hw_claim_unused_from_range+0x7a>
10005208:	08d4      	lsrs	r4, r2, #3
1000520a:	2707      	movs	r7, #7
1000520c:	5d05      	ldrb	r5, [r0, r4]
1000520e:	1906      	adds	r6, r0, r4
10005210:	2401      	movs	r4, #1
10005212:	4017      	ands	r7, r2
10005214:	40bc      	lsls	r4, r7
10005216:	422c      	tst	r4, r5
10005218:	d01f      	beq.n	1000525a <hw_claim_unused_from_range+0x72>
1000521a:	2107      	movs	r1, #7
1000521c:	2701      	movs	r7, #1
1000521e:	4689      	mov	r9, r1
10005220:	e009      	b.n	10005236 <hw_claim_unused_from_range+0x4e>
10005222:	08d4      	lsrs	r4, r2, #3
10005224:	5d05      	ldrb	r5, [r0, r4]
10005226:	1906      	adds	r6, r0, r4
10005228:	464c      	mov	r4, r9
1000522a:	0039      	movs	r1, r7
1000522c:	4014      	ands	r4, r2
1000522e:	40a1      	lsls	r1, r4
10005230:	000c      	movs	r4, r1
10005232:	4229      	tst	r1, r5
10005234:	d011      	beq.n	1000525a <hw_claim_unused_from_range+0x72>
10005236:	3201      	adds	r2, #1
10005238:	4293      	cmp	r3, r2
1000523a:	d2f2      	bcs.n	10005222 <hw_claim_unused_from_range+0x3a>
1000523c:	2001      	movs	r0, #1
1000523e:	4240      	negs	r0, r0
10005240:	f3bf 8f5f 	dmb	sy
10005244:	2200      	movs	r2, #0
10005246:	4b0e      	ldr	r3, [pc, #56]	; (10005280 <hw_claim_unused_from_range+0x98>)
10005248:	601a      	str	r2, [r3, #0]
1000524a:	f38c 8810 	msr	PRIMASK, ip
1000524e:	2800      	cmp	r0, #0
10005250:	db0f      	blt.n	10005272 <hw_claim_unused_from_range+0x8a>
10005252:	bcc0      	pop	{r6, r7}
10005254:	46b9      	mov	r9, r7
10005256:	46b0      	mov	r8, r6
10005258:	bdf8      	pop	{r3, r4, r5, r6, r7, pc}
1000525a:	432c      	orrs	r4, r5
1000525c:	0010      	movs	r0, r2
1000525e:	7034      	strb	r4, [r6, #0]
10005260:	e7ee      	b.n	10005240 <hw_claim_unused_from_range+0x58>
10005262:	f3bf 8f5f 	dmb	sy
10005266:	2300      	movs	r3, #0
10005268:	602b      	str	r3, [r5, #0]
1000526a:	f38c 8810 	msr	PRIMASK, ip
1000526e:	2001      	movs	r0, #1
10005270:	4240      	negs	r0, r0
10005272:	4643      	mov	r3, r8
10005274:	2b00      	cmp	r3, #0
10005276:	d0ec      	beq.n	10005252 <hw_claim_unused_from_range+0x6a>
10005278:	9808      	ldr	r0, [sp, #32]
1000527a:	f001 fcc3 	bl	10006c04 <panic>
1000527e:	46c0      	nop			; (mov r8, r8)
10005280:	d000012c 	.word	0xd000012c

10005284 <running_on_fpga>:
10005284:	4b02      	ldr	r3, [pc, #8]	; (10005290 <running_on_fpga+0xc>)
10005286:	6818      	ldr	r0, [r3, #0]
10005288:	0780      	lsls	r0, r0, #30
1000528a:	0fc0      	lsrs	r0, r0, #31
1000528c:	4770      	bx	lr
1000528e:	46c0      	nop			; (mov r8, r8)
10005290:	4006c000 	.word	0x4006c000

10005294 <spin_locks_reset>:
10005294:	2100      	movs	r1, #0
10005296:	4b04      	ldr	r3, [pc, #16]	; (100052a8 <spin_locks_reset+0x14>)
10005298:	4a04      	ldr	r2, [pc, #16]	; (100052ac <spin_locks_reset+0x18>)
1000529a:	f3bf 8f5f 	dmb	sy
1000529e:	c302      	stmia	r3!, {r1}
100052a0:	4293      	cmp	r3, r2
100052a2:	d1fa      	bne.n	1000529a <spin_locks_reset+0x6>
100052a4:	4770      	bx	lr
100052a6:	46c0      	nop			; (mov r8, r8)
100052a8:	d0000100 	.word	0xd0000100
100052ac:	d0000180 	.word	0xd0000180

100052b0 <next_striped_spin_lock_num>:
100052b0:	4a04      	ldr	r2, [pc, #16]	; (100052c4 <next_striped_spin_lock_num+0x14>)
100052b2:	7810      	ldrb	r0, [r2, #0]
100052b4:	1c43      	adds	r3, r0, #1
100052b6:	b2db      	uxtb	r3, r3
100052b8:	2b17      	cmp	r3, #23
100052ba:	d900      	bls.n	100052be <next_striped_spin_lock_num+0xe>
100052bc:	2310      	movs	r3, #16
100052be:	7013      	strb	r3, [r2, #0]
100052c0:	4770      	bx	lr
100052c2:	46c0      	nop			; (mov r8, r8)
100052c4:	20000406 	.word	0x20000406

100052c8 <spin_lock_claim_unused>:
100052c8:	b500      	push	{lr}
100052ca:	4b05      	ldr	r3, [pc, #20]	; (100052e0 <spin_lock_claim_unused+0x18>)
100052cc:	b083      	sub	sp, #12
100052ce:	0001      	movs	r1, r0
100052d0:	9300      	str	r3, [sp, #0]
100052d2:	2218      	movs	r2, #24
100052d4:	231f      	movs	r3, #31
100052d6:	4803      	ldr	r0, [pc, #12]	; (100052e4 <spin_lock_claim_unused+0x1c>)
100052d8:	f7ff ff86 	bl	100051e8 <hw_claim_unused_from_range>
100052dc:	b003      	add	sp, #12
100052de:	bd00      	pop	{pc}
100052e0:	1000d1f0 	.word	0x1000d1f0
100052e4:	2000107c 	.word	0x2000107c

100052e8 <gpio_set_function>:
100052e8:	4a09      	ldr	r2, [pc, #36]	; (10005310 <gpio_set_function+0x28>)
100052ea:	0083      	lsls	r3, r0, #2
100052ec:	4694      	mov	ip, r2
100052ee:	2240      	movs	r2, #64	; 0x40
100052f0:	4463      	add	r3, ip
100052f2:	b510      	push	{r4, lr}
100052f4:	681c      	ldr	r4, [r3, #0]
100052f6:	00c0      	lsls	r0, r0, #3
100052f8:	4062      	eors	r2, r4
100052fa:	24c0      	movs	r4, #192	; 0xc0
100052fc:	4014      	ands	r4, r2
100052fe:	2280      	movs	r2, #128	; 0x80
10005300:	0152      	lsls	r2, r2, #5
10005302:	4313      	orrs	r3, r2
10005304:	601c      	str	r4, [r3, #0]
10005306:	4b03      	ldr	r3, [pc, #12]	; (10005314 <gpio_set_function+0x2c>)
10005308:	469c      	mov	ip, r3
1000530a:	4460      	add	r0, ip
1000530c:	6041      	str	r1, [r0, #4]
1000530e:	bd10      	pop	{r4, pc}
10005310:	4001c004 	.word	0x4001c004
10005314:	40014000 	.word	0x40014000

10005318 <gpio_set_pulls>:
10005318:	4b0a      	ldr	r3, [pc, #40]	; (10005344 <gpio_set_pulls+0x2c>)
1000531a:	0080      	lsls	r0, r0, #2
1000531c:	469c      	mov	ip, r3
1000531e:	2304      	movs	r3, #4
10005320:	4460      	add	r0, ip
10005322:	2900      	cmp	r1, #0
10005324:	d001      	beq.n	1000532a <gpio_set_pulls+0x12>
10005326:	230c      	movs	r3, #12
10005328:	2108      	movs	r1, #8
1000532a:	2a00      	cmp	r2, #0
1000532c:	d100      	bne.n	10005330 <gpio_set_pulls+0x18>
1000532e:	000b      	movs	r3, r1
10005330:	6802      	ldr	r2, [r0, #0]
10005332:	4053      	eors	r3, r2
10005334:	220c      	movs	r2, #12
10005336:	401a      	ands	r2, r3
10005338:	2380      	movs	r3, #128	; 0x80
1000533a:	015b      	lsls	r3, r3, #5
1000533c:	4318      	orrs	r0, r3
1000533e:	6002      	str	r2, [r0, #0]
10005340:	4770      	bx	lr
10005342:	46c0      	nop			; (mov r8, r8)
10005344:	4001c004 	.word	0x4001c004

10005348 <gpio_init>:
10005348:	2301      	movs	r3, #1
1000534a:	22d0      	movs	r2, #208	; 0xd0
1000534c:	4083      	lsls	r3, r0
1000534e:	0612      	lsls	r2, r2, #24
10005350:	6293      	str	r3, [r2, #40]	; 0x28
10005352:	6193      	str	r3, [r2, #24]
10005354:	4a09      	ldr	r2, [pc, #36]	; (1000537c <gpio_init+0x34>)
10005356:	0083      	lsls	r3, r0, #2
10005358:	4694      	mov	ip, r2
1000535a:	2240      	movs	r2, #64	; 0x40
1000535c:	4463      	add	r3, ip
1000535e:	6819      	ldr	r1, [r3, #0]
10005360:	00c0      	lsls	r0, r0, #3
10005362:	404a      	eors	r2, r1
10005364:	21c0      	movs	r1, #192	; 0xc0
10005366:	4011      	ands	r1, r2
10005368:	2280      	movs	r2, #128	; 0x80
1000536a:	0152      	lsls	r2, r2, #5
1000536c:	4313      	orrs	r3, r2
1000536e:	6019      	str	r1, [r3, #0]
10005370:	4b03      	ldr	r3, [pc, #12]	; (10005380 <gpio_init+0x38>)
10005372:	469c      	mov	ip, r3
10005374:	2305      	movs	r3, #5
10005376:	4460      	add	r0, ip
10005378:	6043      	str	r3, [r0, #4]
1000537a:	4770      	bx	lr
1000537c:	4001c004 	.word	0x4001c004
10005380:	40014000 	.word	0x40014000

10005384 <irq_set_enabled>:
10005384:	2301      	movs	r3, #1
10005386:	4083      	lsls	r3, r0
10005388:	2900      	cmp	r1, #0
1000538a:	d004      	beq.n	10005396 <irq_set_enabled+0x12>
1000538c:	4a03      	ldr	r2, [pc, #12]	; (1000539c <irq_set_enabled+0x18>)
1000538e:	6013      	str	r3, [r2, #0]
10005390:	4a03      	ldr	r2, [pc, #12]	; (100053a0 <irq_set_enabled+0x1c>)
10005392:	6013      	str	r3, [r2, #0]
10005394:	4770      	bx	lr
10005396:	4a03      	ldr	r2, [pc, #12]	; (100053a4 <irq_set_enabled+0x20>)
10005398:	6013      	str	r3, [r2, #0]
1000539a:	e7fb      	b.n	10005394 <irq_set_enabled+0x10>
1000539c:	e000e280 	.word	0xe000e280
100053a0:	e000e100 	.word	0xe000e100
100053a4:	e000e180 	.word	0xe000e180

100053a8 <irq_set_pending>:
100053a8:	2301      	movs	r3, #1
100053aa:	4083      	lsls	r3, r0
100053ac:	4a01      	ldr	r2, [pc, #4]	; (100053b4 <irq_set_pending+0xc>)
100053ae:	6013      	str	r3, [r2, #0]
100053b0:	4770      	bx	lr
100053b2:	46c0      	nop			; (mov r8, r8)
100053b4:	e000e200 	.word	0xe000e200

100053b8 <irq_has_shared_handler>:
100053b8:	4b08      	ldr	r3, [pc, #32]	; (100053dc <irq_has_shared_handler+0x24>)
100053ba:	3010      	adds	r0, #16
100053bc:	689b      	ldr	r3, [r3, #8]
100053be:	0080      	lsls	r0, r0, #2
100053c0:	58c3      	ldr	r3, [r0, r3]
100053c2:	2b00      	cmp	r3, #0
100053c4:	d007      	beq.n	100053d6 <irq_has_shared_handler+0x1e>
100053c6:	4a06      	ldr	r2, [pc, #24]	; (100053e0 <irq_has_shared_handler+0x28>)
100053c8:	2000      	movs	r0, #0
100053ca:	1a9b      	subs	r3, r3, r2
100053cc:	222f      	movs	r2, #47	; 0x2f
100053ce:	429a      	cmp	r2, r3
100053d0:	4140      	adcs	r0, r0
100053d2:	b2c0      	uxtb	r0, r0
100053d4:	4770      	bx	lr
100053d6:	2000      	movs	r0, #0
100053d8:	e7fc      	b.n	100053d4 <irq_has_shared_handler+0x1c>
100053da:	46c0      	nop			; (mov r8, r8)
100053dc:	e000ed00 	.word	0xe000ed00
100053e0:	20000408 	.word	0x20000408

100053e4 <irq_get_vtable_handler>:
100053e4:	4b02      	ldr	r3, [pc, #8]	; (100053f0 <irq_get_vtable_handler+0xc>)
100053e6:	3010      	adds	r0, #16
100053e8:	689b      	ldr	r3, [r3, #8]
100053ea:	0080      	lsls	r0, r0, #2
100053ec:	58c0      	ldr	r0, [r0, r3]
100053ee:	4770      	bx	lr
100053f0:	e000ed00 	.word	0xe000ed00

100053f4 <irq_set_exclusive_handler>:
100053f4:	b570      	push	{r4, r5, r6, lr}
100053f6:	000d      	movs	r5, r1
100053f8:	f3ef 8610 	mrs	r6, PRIMASK
100053fc:	b672      	cpsid	i
100053fe:	4a0f      	ldr	r2, [pc, #60]	; (1000543c <irq_set_exclusive_handler+0x48>)
10005400:	6813      	ldr	r3, [r2, #0]
10005402:	2b00      	cmp	r3, #0
10005404:	d0fc      	beq.n	10005400 <irq_set_exclusive_handler+0xc>
10005406:	f3bf 8f5f 	dmb	sy
1000540a:	4b0d      	ldr	r3, [pc, #52]	; (10005440 <irq_set_exclusive_handler+0x4c>)
1000540c:	3010      	adds	r0, #16
1000540e:	689b      	ldr	r3, [r3, #8]
10005410:	0084      	lsls	r4, r0, #2
10005412:	591b      	ldr	r3, [r3, r4]
10005414:	4a0b      	ldr	r2, [pc, #44]	; (10005444 <irq_set_exclusive_handler+0x50>)
10005416:	4293      	cmp	r3, r2
10005418:	d003      	beq.n	10005422 <irq_set_exclusive_handler+0x2e>
1000541a:	429d      	cmp	r5, r3
1000541c:	d001      	beq.n	10005422 <irq_set_exclusive_handler+0x2e>
1000541e:	f001 fc09 	bl	10006c34 <hard_assertion_failure>
10005422:	4b07      	ldr	r3, [pc, #28]	; (10005440 <irq_set_exclusive_handler+0x4c>)
10005424:	689b      	ldr	r3, [r3, #8]
10005426:	511d      	str	r5, [r3, r4]
10005428:	f3bf 8f5f 	dmb	sy
1000542c:	f3bf 8f5f 	dmb	sy
10005430:	2200      	movs	r2, #0
10005432:	4b02      	ldr	r3, [pc, #8]	; (1000543c <irq_set_exclusive_handler+0x48>)
10005434:	601a      	str	r2, [r3, #0]
10005436:	f386 8810 	msr	PRIMASK, r6
1000543a:	bd70      	pop	{r4, r5, r6, pc}
1000543c:	d0000124 	.word	0xd0000124
10005440:	e000ed00 	.word	0xe000ed00
10005444:	100001cd 	.word	0x100001cd

10005448 <irq_add_shared_handler>:
10005448:	b5f0      	push	{r4, r5, r6, r7, lr}
1000544a:	4657      	mov	r7, sl
1000544c:	464e      	mov	r6, r9
1000544e:	46de      	mov	lr, fp
10005450:	4645      	mov	r5, r8
10005452:	b5e0      	push	{r5, r6, r7, lr}
10005454:	b085      	sub	sp, #20
10005456:	0006      	movs	r6, r0
10005458:	9102      	str	r1, [sp, #8]
1000545a:	0017      	movs	r7, r2
1000545c:	f3ef 8b10 	mrs	fp, PRIMASK
10005460:	b672      	cpsid	i
10005462:	4a67      	ldr	r2, [pc, #412]	; (10005600 <irq_add_shared_handler+0x1b8>)
10005464:	6813      	ldr	r3, [r2, #0]
10005466:	2b00      	cmp	r3, #0
10005468:	d0fc      	beq.n	10005464 <irq_add_shared_handler+0x1c>
1000546a:	f3bf 8f5f 	dmb	sy
1000546e:	2500      	movs	r5, #0
10005470:	4b64      	ldr	r3, [pc, #400]	; (10005604 <irq_add_shared_handler+0x1bc>)
10005472:	575d      	ldrsb	r5, [r3, r5]
10005474:	469a      	mov	sl, r3
10005476:	2d00      	cmp	r5, #0
10005478:	da00      	bge.n	1000547c <irq_add_shared_handler+0x34>
1000547a:	e0a5      	b.n	100055c8 <irq_add_shared_handler+0x180>
1000547c:	006b      	lsls	r3, r5, #1
1000547e:	4c62      	ldr	r4, [pc, #392]	; (10005608 <irq_add_shared_handler+0x1c0>)
10005480:	9303      	str	r3, [sp, #12]
10005482:	195b      	adds	r3, r3, r5
10005484:	009b      	lsls	r3, r3, #2
10005486:	4698      	mov	r8, r3
10005488:	46a1      	mov	r9, r4
1000548a:	44c1      	add	r9, r8
1000548c:	464b      	mov	r3, r9
1000548e:	4652      	mov	r2, sl
10005490:	799b      	ldrb	r3, [r3, #6]
10005492:	3610      	adds	r6, #16
10005494:	7013      	strb	r3, [r2, #0]
10005496:	4b5d      	ldr	r3, [pc, #372]	; (1000560c <irq_add_shared_handler+0x1c4>)
10005498:	00b2      	lsls	r2, r6, #2
1000549a:	689b      	ldr	r3, [r3, #8]
1000549c:	9201      	str	r2, [sp, #4]
1000549e:	5899      	ldr	r1, [r3, r2]
100054a0:	1b0b      	subs	r3, r1, r4
100054a2:	2b2f      	cmp	r3, #47	; 0x2f
100054a4:	d934      	bls.n	10005510 <irq_add_shared_handler+0xc8>
100054a6:	4b5a      	ldr	r3, [pc, #360]	; (10005610 <irq_add_shared_handler+0x1c8>)
100054a8:	4299      	cmp	r1, r3
100054aa:	d000      	beq.n	100054ae <irq_add_shared_handler+0x66>
100054ac:	e0a5      	b.n	100055fa <irq_add_shared_handler+0x1b2>
100054ae:	9b03      	ldr	r3, [sp, #12]
100054b0:	4a58      	ldr	r2, [pc, #352]	; (10005614 <irq_add_shared_handler+0x1cc>)
100054b2:	469c      	mov	ip, r3
100054b4:	4b58      	ldr	r3, [pc, #352]	; (10005618 <irq_add_shared_handler+0x1d0>)
100054b6:	4465      	add	r5, ip
100054b8:	00ad      	lsls	r5, r5, #2
100054ba:	5363      	strh	r3, [r4, r5]
100054bc:	4643      	mov	r3, r8
100054be:	3302      	adds	r3, #2
100054c0:	1965      	adds	r5, r4, r5
100054c2:	18e4      	adds	r4, r4, r3
100054c4:	4b55      	ldr	r3, [pc, #340]	; (1000561c <irq_add_shared_handler+0x1d4>)
100054c6:	2101      	movs	r1, #1
100054c8:	3b04      	subs	r3, #4
100054ca:	1b1b      	subs	r3, r3, r4
100054cc:	051b      	lsls	r3, r3, #20
100054ce:	0d5b      	lsrs	r3, r3, #21
100054d0:	4313      	orrs	r3, r2
100054d2:	806b      	strh	r3, [r5, #2]
100054d4:	4b52      	ldr	r3, [pc, #328]	; (10005620 <irq_add_shared_handler+0x1d8>)
100054d6:	71ef      	strb	r7, [r5, #7]
100054d8:	80ab      	strh	r3, [r5, #4]
100054da:	23ff      	movs	r3, #255	; 0xff
100054dc:	71ab      	strb	r3, [r5, #6]
100054de:	9b02      	ldr	r3, [sp, #8]
100054e0:	60ab      	str	r3, [r5, #8]
100054e2:	464b      	mov	r3, r9
100054e4:	430b      	orrs	r3, r1
100054e6:	0019      	movs	r1, r3
100054e8:	4b48      	ldr	r3, [pc, #288]	; (1000560c <irq_add_shared_handler+0x1c4>)
100054ea:	9a01      	ldr	r2, [sp, #4]
100054ec:	689b      	ldr	r3, [r3, #8]
100054ee:	5099      	str	r1, [r3, r2]
100054f0:	f3bf 8f5f 	dmb	sy
100054f4:	f3bf 8f5f 	dmb	sy
100054f8:	2200      	movs	r2, #0
100054fa:	4b41      	ldr	r3, [pc, #260]	; (10005600 <irq_add_shared_handler+0x1b8>)
100054fc:	601a      	str	r2, [r3, #0]
100054fe:	f38b 8810 	msr	PRIMASK, fp
10005502:	b005      	add	sp, #20
10005504:	bcf0      	pop	{r4, r5, r6, r7}
10005506:	46bb      	mov	fp, r7
10005508:	46b2      	mov	sl, r6
1000550a:	46a9      	mov	r9, r5
1000550c:	46a0      	mov	r8, r4
1000550e:	bdf0      	pop	{r4, r5, r6, r7, pc}
10005510:	2001      	movs	r0, #1
10005512:	000a      	movs	r2, r1
10005514:	4382      	bics	r2, r0
10005516:	79d3      	ldrb	r3, [r2, #7]
10005518:	42bb      	cmp	r3, r7
1000551a:	d82f      	bhi.n	1000557c <irq_add_shared_handler+0x134>
1000551c:	4645      	mov	r5, r8
1000551e:	464e      	mov	r6, r9
10005520:	0013      	movs	r3, r2
10005522:	4940      	ldr	r1, [pc, #256]	; (10005624 <irq_add_shared_handler+0x1dc>)
10005524:	1b1b      	subs	r3, r3, r4
10005526:	415b      	adcs	r3, r3
10005528:	4359      	muls	r1, r3
1000552a:	0d09      	lsrs	r1, r1, #20
1000552c:	4b3a      	ldr	r3, [pc, #232]	; (10005618 <irq_add_shared_handler+0x1d0>)
1000552e:	5363      	strh	r3, [r4, r5]
10005530:	4b3a      	ldr	r3, [pc, #232]	; (1000561c <irq_add_shared_handler+0x1d4>)
10005532:	3502      	adds	r5, #2
10005534:	1965      	adds	r5, r4, r5
10005536:	3b04      	subs	r3, #4
10005538:	1b5b      	subs	r3, r3, r5
1000553a:	051b      	lsls	r3, r3, #20
1000553c:	4d35      	ldr	r5, [pc, #212]	; (10005614 <irq_add_shared_handler+0x1cc>)
1000553e:	0d5b      	lsrs	r3, r3, #21
10005540:	432b      	orrs	r3, r5
10005542:	8073      	strh	r3, [r6, #2]
10005544:	2604      	movs	r6, #4
10005546:	46b4      	mov	ip, r6
10005548:	44e0      	add	r8, ip
1000554a:	4444      	add	r4, r8
1000554c:	1f13      	subs	r3, r2, #4
1000554e:	1b1b      	subs	r3, r3, r4
10005550:	464c      	mov	r4, r9
10005552:	71a1      	strb	r1, [r4, #6]
10005554:	9902      	ldr	r1, [sp, #8]
10005556:	051b      	lsls	r3, r3, #20
10005558:	60a1      	str	r1, [r4, #8]
1000555a:	4649      	mov	r1, r9
1000555c:	0d5b      	lsrs	r3, r3, #21
1000555e:	432b      	orrs	r3, r5
10005560:	80a3      	strh	r3, [r4, #4]
10005562:	4b31      	ldr	r3, [pc, #196]	; (10005628 <irq_add_shared_handler+0x1e0>)
10005564:	71e7      	strb	r7, [r4, #7]
10005566:	4301      	orrs	r1, r0
10005568:	6013      	str	r3, [r2, #0]
1000556a:	e7bd      	b.n	100054e8 <irq_add_shared_handler+0xa0>
1000556c:	0058      	lsls	r0, r3, #1
1000556e:	18c0      	adds	r0, r0, r3
10005570:	0080      	lsls	r0, r0, #2
10005572:	1820      	adds	r0, r4, r0
10005574:	79c6      	ldrb	r6, [r0, #7]
10005576:	42be      	cmp	r6, r7
10005578:	d92c      	bls.n	100055d4 <irq_add_shared_handler+0x18c>
1000557a:	0002      	movs	r2, r0
1000557c:	2306      	movs	r3, #6
1000557e:	56d3      	ldrsb	r3, [r2, r3]
10005580:	2b00      	cmp	r3, #0
10005582:	daf3      	bge.n	1000556c <irq_add_shared_handler+0x124>
10005584:	1d10      	adds	r0, r2, #4
10005586:	4682      	mov	sl, r0
10005588:	20bd      	movs	r0, #189	; 0xbd
1000558a:	0200      	lsls	r0, r0, #8
1000558c:	4680      	mov	r8, r0
1000558e:	2604      	movs	r6, #4
10005590:	4276      	negs	r6, r6
10005592:	46b4      	mov	ip, r6
10005594:	44e1      	add	r9, ip
10005596:	4650      	mov	r0, sl
10005598:	464e      	mov	r6, r9
1000559a:	1a36      	subs	r6, r6, r0
1000559c:	0530      	lsls	r0, r6, #20
1000559e:	0d40      	lsrs	r0, r0, #21
100055a0:	4682      	mov	sl, r0
100055a2:	4656      	mov	r6, sl
100055a4:	481b      	ldr	r0, [pc, #108]	; (10005614 <irq_add_shared_handler+0x1cc>)
100055a6:	7195      	strb	r5, [r2, #6]
100055a8:	4306      	orrs	r6, r0
100055aa:	8096      	strh	r6, [r2, #4]
100055ac:	9a03      	ldr	r2, [sp, #12]
100055ae:	4694      	mov	ip, r2
100055b0:	4465      	add	r5, ip
100055b2:	4a1d      	ldr	r2, [pc, #116]	; (10005628 <irq_add_shared_handler+0x1e0>)
100055b4:	00ad      	lsls	r5, r5, #2
100055b6:	1964      	adds	r4, r4, r5
100055b8:	6022      	str	r2, [r4, #0]
100055ba:	4642      	mov	r2, r8
100055bc:	71a3      	strb	r3, [r4, #6]
100055be:	9b02      	ldr	r3, [sp, #8]
100055c0:	80a2      	strh	r2, [r4, #4]
100055c2:	71e7      	strb	r7, [r4, #7]
100055c4:	60a3      	str	r3, [r4, #8]
100055c6:	e78f      	b.n	100054e8 <irq_add_shared_handler+0xa0>
100055c8:	f001 fb34 	bl	10006c34 <hard_assertion_failure>
100055cc:	2500      	movs	r5, #0
100055ce:	4653      	mov	r3, sl
100055d0:	575d      	ldrsb	r5, [r3, r5]
100055d2:	e753      	b.n	1000547c <irq_add_shared_handler+0x34>
100055d4:	1d10      	adds	r0, r2, #4
100055d6:	4682      	mov	sl, r0
100055d8:	8890      	ldrh	r0, [r2, #4]
100055da:	0540      	lsls	r0, r0, #21
100055dc:	1500      	asrs	r0, r0, #20
100055de:	4684      	mov	ip, r0
100055e0:	4640      	mov	r0, r8
100055e2:	44d4      	add	ip, sl
100055e4:	4666      	mov	r6, ip
100055e6:	3004      	adds	r0, #4
100055e8:	1820      	adds	r0, r4, r0
100055ea:	1a30      	subs	r0, r6, r0
100055ec:	26e0      	movs	r6, #224	; 0xe0
100055ee:	0500      	lsls	r0, r0, #20
100055f0:	0d40      	lsrs	r0, r0, #21
100055f2:	0236      	lsls	r6, r6, #8
100055f4:	4330      	orrs	r0, r6
100055f6:	4680      	mov	r8, r0
100055f8:	e7c9      	b.n	1000558e <irq_add_shared_handler+0x146>
100055fa:	f001 fb1b 	bl	10006c34 <hard_assertion_failure>
100055fe:	e756      	b.n	100054ae <irq_add_shared_handler+0x66>
10005600:	d0000124 	.word	0xd0000124
10005604:	20027152 	.word	0x20027152
10005608:	20000408 	.word	0x20000408
1000560c:	e000ed00 	.word	0xe000ed00
10005610:	100001cd 	.word	0x100001cd
10005614:	ffffe000 	.word	0xffffe000
10005618:	ffffa100 	.word	0xffffa100
1000561c:	20000438 	.word	0x20000438
10005620:	ffffbd00 	.word	0xffffbd00
10005624:	0000aaaa 	.word	0x0000aaaa
10005628:	47804801 	.word	0x47804801

1000562c <irq_remove_handler>:
1000562c:	b5f0      	push	{r4, r5, r6, r7, lr}
1000562e:	46de      	mov	lr, fp
10005630:	4657      	mov	r7, sl
10005632:	464e      	mov	r6, r9
10005634:	4645      	mov	r5, r8
10005636:	b5e0      	push	{r5, r6, r7, lr}
10005638:	000c      	movs	r4, r1
1000563a:	b083      	sub	sp, #12
1000563c:	f3ef 8a10 	mrs	sl, PRIMASK
10005640:	b672      	cpsid	i
10005642:	4a5a      	ldr	r2, [pc, #360]	; (100057ac <irq_remove_handler+0x180>)
10005644:	6813      	ldr	r3, [r2, #0]
10005646:	2b00      	cmp	r3, #0
10005648:	d0fc      	beq.n	10005644 <irq_remove_handler+0x18>
1000564a:	f3bf 8f5f 	dmb	sy
1000564e:	2210      	movs	r2, #16
10005650:	4691      	mov	r9, r2
10005652:	4481      	add	r9, r0
10005654:	464a      	mov	r2, r9
10005656:	4b56      	ldr	r3, [pc, #344]	; (100057b0 <irq_remove_handler+0x184>)
10005658:	0096      	lsls	r6, r2, #2
1000565a:	689b      	ldr	r3, [r3, #8]
1000565c:	599d      	ldr	r5, [r3, r6]
1000565e:	4b55      	ldr	r3, [pc, #340]	; (100057b4 <irq_remove_handler+0x188>)
10005660:	4698      	mov	r8, r3
10005662:	429d      	cmp	r5, r3
10005664:	d005      	beq.n	10005672 <irq_remove_handler+0x46>
10005666:	42a5      	cmp	r5, r4
10005668:	d016      	beq.n	10005698 <irq_remove_handler+0x6c>
1000566a:	4f53      	ldr	r7, [pc, #332]	; (100057b8 <irq_remove_handler+0x18c>)
1000566c:	1beb      	subs	r3, r5, r7
1000566e:	2b2f      	cmp	r3, #47	; 0x2f
10005670:	d914      	bls.n	1000569c <irq_remove_handler+0x70>
10005672:	4b4f      	ldr	r3, [pc, #316]	; (100057b0 <irq_remove_handler+0x184>)
10005674:	689b      	ldr	r3, [r3, #8]
10005676:	519d      	str	r5, [r3, r6]
10005678:	f3bf 8f5f 	dmb	sy
1000567c:	f3bf 8f5f 	dmb	sy
10005680:	2200      	movs	r2, #0
10005682:	4b4a      	ldr	r3, [pc, #296]	; (100057ac <irq_remove_handler+0x180>)
10005684:	601a      	str	r2, [r3, #0]
10005686:	f38a 8810 	msr	PRIMASK, sl
1000568a:	b003      	add	sp, #12
1000568c:	bcf0      	pop	{r4, r5, r6, r7}
1000568e:	46bb      	mov	fp, r7
10005690:	46b2      	mov	sl, r6
10005692:	46a9      	mov	r9, r5
10005694:	46a0      	mov	r8, r4
10005696:	bdf0      	pop	{r4, r5, r6, r7, pc}
10005698:	001d      	movs	r5, r3
1000569a:	e7ea      	b.n	10005672 <irq_remove_handler+0x46>
1000569c:	2301      	movs	r3, #1
1000569e:	4083      	lsls	r3, r0
100056a0:	469b      	mov	fp, r3
100056a2:	465a      	mov	r2, fp
100056a4:	4b45      	ldr	r3, [pc, #276]	; (100057bc <irq_remove_handler+0x190>)
100056a6:	681b      	ldr	r3, [r3, #0]
100056a8:	401a      	ands	r2, r3
100056aa:	9200      	str	r2, [sp, #0]
100056ac:	465a      	mov	r2, fp
100056ae:	4b44      	ldr	r3, [pc, #272]	; (100057c0 <irq_remove_handler+0x194>)
100056b0:	601a      	str	r2, [r3, #0]
100056b2:	f3bf 8f5f 	dmb	sy
100056b6:	f7fa fdd6 	bl	10000266 <__get_current_exception>
100056ba:	9001      	str	r0, [sp, #4]
100056bc:	2800      	cmp	r0, #0
100056be:	d003      	beq.n	100056c8 <irq_remove_handler+0x9c>
100056c0:	4581      	cmp	r9, r0
100056c2:	d001      	beq.n	100056c8 <irq_remove_handler+0x9c>
100056c4:	f001 fab6 	bl	10006c34 <hard_assertion_failure>
100056c8:	2301      	movs	r3, #1
100056ca:	002a      	movs	r2, r5
100056cc:	439a      	bics	r2, r3
100056ce:	6893      	ldr	r3, [r2, #8]
100056d0:	429c      	cmp	r4, r3
100056d2:	d108      	bne.n	100056e6 <irq_remove_handler+0xba>
100056d4:	e05f      	b.n	10005796 <irq_remove_handler+0x16a>
100056d6:	004b      	lsls	r3, r1, #1
100056d8:	185b      	adds	r3, r3, r1
100056da:	009b      	lsls	r3, r3, #2
100056dc:	18fb      	adds	r3, r7, r3
100056de:	6899      	ldr	r1, [r3, #8]
100056e0:	42a1      	cmp	r1, r4
100056e2:	d011      	beq.n	10005708 <irq_remove_handler+0xdc>
100056e4:	001a      	movs	r2, r3
100056e6:	2106      	movs	r1, #6
100056e8:	5651      	ldrsb	r1, [r2, r1]
100056ea:	2900      	cmp	r1, #0
100056ec:	daf3      	bge.n	100056d6 <irq_remove_handler+0xaa>
100056ee:	9b00      	ldr	r3, [sp, #0]
100056f0:	2b00      	cmp	r3, #0
100056f2:	d005      	beq.n	10005700 <irq_remove_handler+0xd4>
100056f4:	465a      	mov	r2, fp
100056f6:	4b33      	ldr	r3, [pc, #204]	; (100057c4 <irq_remove_handler+0x198>)
100056f8:	601a      	str	r2, [r3, #0]
100056fa:	4b30      	ldr	r3, [pc, #192]	; (100057bc <irq_remove_handler+0x190>)
100056fc:	601a      	str	r2, [r3, #0]
100056fe:	e7b8      	b.n	10005672 <irq_remove_handler+0x46>
10005700:	465a      	mov	r2, fp
10005702:	4b2f      	ldr	r3, [pc, #188]	; (100057c0 <irq_remove_handler+0x194>)
10005704:	601a      	str	r2, [r3, #0]
10005706:	e7b4      	b.n	10005672 <irq_remove_handler+0x46>
10005708:	2106      	movs	r1, #6
1000570a:	5659      	ldrsb	r1, [r3, r1]
1000570c:	2900      	cmp	r1, #0
1000570e:	db21      	blt.n	10005754 <irq_remove_handler+0x128>
10005710:	004a      	lsls	r2, r1, #1
10005712:	1850      	adds	r0, r2, r1
10005714:	0080      	lsls	r0, r0, #2
10005716:	183c      	adds	r4, r7, r0
10005718:	4680      	mov	r8, r0
1000571a:	68a0      	ldr	r0, [r4, #8]
1000571c:	6098      	str	r0, [r3, #8]
1000571e:	79e0      	ldrb	r0, [r4, #7]
10005720:	71d8      	strb	r0, [r3, #7]
10005722:	2006      	movs	r0, #6
10005724:	5620      	ldrsb	r0, [r4, r0]
10005726:	7198      	strb	r0, [r3, #6]
10005728:	2800      	cmp	r0, #0
1000572a:	db24      	blt.n	10005776 <irq_remove_handler+0x14a>
1000572c:	88a4      	ldrh	r4, [r4, #4]
1000572e:	1af8      	subs	r0, r7, r3
10005730:	0564      	lsls	r4, r4, #21
10005732:	1524      	asrs	r4, r4, #20
10005734:	4444      	add	r4, r8
10005736:	1900      	adds	r0, r0, r4
10005738:	24e0      	movs	r4, #224	; 0xe0
1000573a:	0500      	lsls	r0, r0, #20
1000573c:	0d40      	lsrs	r0, r0, #21
1000573e:	0224      	lsls	r4, r4, #8
10005740:	4320      	orrs	r0, r4
10005742:	8098      	strh	r0, [r3, #4]
10005744:	1852      	adds	r2, r2, r1
10005746:	4b20      	ldr	r3, [pc, #128]	; (100057c8 <irq_remove_handler+0x19c>)
10005748:	0092      	lsls	r2, r2, #2
1000574a:	18bf      	adds	r7, r7, r2
1000574c:	781a      	ldrb	r2, [r3, #0]
1000574e:	7019      	strb	r1, [r3, #0]
10005750:	71ba      	strb	r2, [r7, #6]
10005752:	e7cc      	b.n	100056ee <irq_remove_handler+0xc2>
10005754:	9901      	ldr	r1, [sp, #4]
10005756:	2900      	cmp	r1, #0
10005758:	d110      	bne.n	1000577c <irq_remove_handler+0x150>
1000575a:	31ff      	adds	r1, #255	; 0xff
1000575c:	7191      	strb	r1, [r2, #6]
1000575e:	491b      	ldr	r1, [pc, #108]	; (100057cc <irq_remove_handler+0x1a0>)
10005760:	8091      	strh	r1, [r2, #4]
10005762:	4919      	ldr	r1, [pc, #100]	; (100057c8 <irq_remove_handler+0x19c>)
10005764:	780a      	ldrb	r2, [r1, #0]
10005766:	719a      	strb	r2, [r3, #6]
10005768:	4a19      	ldr	r2, [pc, #100]	; (100057d0 <irq_remove_handler+0x1a4>)
1000576a:	1bdb      	subs	r3, r3, r7
1000576c:	415b      	adcs	r3, r3
1000576e:	435a      	muls	r2, r3
10005770:	0d12      	lsrs	r2, r2, #20
10005772:	700a      	strb	r2, [r1, #0]
10005774:	e7bb      	b.n	100056ee <irq_remove_handler+0xc2>
10005776:	20bd      	movs	r0, #189	; 0xbd
10005778:	0200      	lsls	r0, r0, #8
1000577a:	e7e2      	b.n	10005742 <irq_remove_handler+0x116>
1000577c:	4a15      	ldr	r2, [pc, #84]	; (100057d4 <irq_remove_handler+0x1a8>)
1000577e:	4916      	ldr	r1, [pc, #88]	; (100057d8 <irq_remove_handler+0x1ac>)
10005780:	1ad2      	subs	r2, r2, r3
10005782:	3a08      	subs	r2, #8
10005784:	0250      	lsls	r0, r2, #9
10005786:	0d40      	lsrs	r0, r0, #21
10005788:	4301      	orrs	r1, r0
1000578a:	8099      	strh	r1, [r3, #4]
1000578c:	4913      	ldr	r1, [pc, #76]	; (100057dc <irq_remove_handler+0x1b0>)
1000578e:	0852      	lsrs	r2, r2, #1
10005790:	430a      	orrs	r2, r1
10005792:	80da      	strh	r2, [r3, #6]
10005794:	e7ab      	b.n	100056ee <irq_remove_handler+0xc2>
10005796:	2106      	movs	r1, #6
10005798:	5651      	ldrsb	r1, [r2, r1]
1000579a:	0013      	movs	r3, r2
1000579c:	2900      	cmp	r1, #0
1000579e:	dab7      	bge.n	10005710 <irq_remove_handler+0xe4>
100057a0:	9a01      	ldr	r2, [sp, #4]
100057a2:	2a00      	cmp	r2, #0
100057a4:	d1ea      	bne.n	1000577c <irq_remove_handler+0x150>
100057a6:	4645      	mov	r5, r8
100057a8:	e7db      	b.n	10005762 <irq_remove_handler+0x136>
100057aa:	46c0      	nop			; (mov r8, r8)
100057ac:	d0000124 	.word	0xd0000124
100057b0:	e000ed00 	.word	0xe000ed00
100057b4:	100001cd 	.word	0x100001cd
100057b8:	20000408 	.word	0x20000408
100057bc:	e000e100 	.word	0xe000e100
100057c0:	e000e180 	.word	0xe000e180
100057c4:	e000e280 	.word	0xe000e280
100057c8:	20027152 	.word	0x20027152
100057cc:	ffffbd00 	.word	0xffffbd00
100057d0:	0000aaaa 	.word	0x0000aaaa
100057d4:	20000442 	.word	0x20000442
100057d8:	fffff000 	.word	0xfffff000
100057dc:	fffff800 	.word	0xfffff800

100057e0 <irq_add_tail_to_free_list>:
100057e0:	b5f8      	push	{r3, r4, r5, r6, r7, lr}
100057e2:	2501      	movs	r5, #1
100057e4:	0004      	movs	r4, r0
100057e6:	4305      	orrs	r5, r0
100057e8:	f7fa fd3d 	bl	10000266 <__get_current_exception>
100057ec:	f3ef 8c10 	mrs	ip, PRIMASK
100057f0:	b672      	cpsid	i
100057f2:	4a21      	ldr	r2, [pc, #132]	; (10005878 <irq_add_tail_to_free_list+0x98>)
100057f4:	6813      	ldr	r3, [r2, #0]
100057f6:	2b00      	cmp	r3, #0
100057f8:	d0fc      	beq.n	100057f4 <irq_add_tail_to_free_list+0x14>
100057fa:	f3bf 8f5f 	dmb	sy
100057fe:	4e1f      	ldr	r6, [pc, #124]	; (1000587c <irq_add_tail_to_free_list+0x9c>)
10005800:	0021      	movs	r1, r4
10005802:	68b7      	ldr	r7, [r6, #8]
10005804:	4a1e      	ldr	r2, [pc, #120]	; (10005880 <irq_add_tail_to_free_list+0xa0>)
10005806:	4b1f      	ldr	r3, [pc, #124]	; (10005884 <irq_add_tail_to_free_list+0xa4>)
10005808:	1a89      	subs	r1, r1, r2
1000580a:	4149      	adcs	r1, r1
1000580c:	434b      	muls	r3, r1
1000580e:	0d1b      	lsrs	r3, r3, #20
10005810:	b259      	sxtb	r1, r3
10005812:	0083      	lsls	r3, r0, #2
10005814:	58f8      	ldr	r0, [r7, r3]
10005816:	42a8      	cmp	r0, r5
10005818:	d01c      	beq.n	10005854 <irq_add_tail_to_free_list+0x74>
1000581a:	2306      	movs	r3, #6
1000581c:	56d3      	ldrsb	r3, [r2, r3]
1000581e:	428b      	cmp	r3, r1
10005820:	d01c      	beq.n	1000585c <irq_add_tail_to_free_list+0x7c>
10005822:	2312      	movs	r3, #18
10005824:	56d3      	ldrsb	r3, [r2, r3]
10005826:	428b      	cmp	r3, r1
10005828:	d022      	beq.n	10005870 <irq_add_tail_to_free_list+0x90>
1000582a:	231e      	movs	r3, #30
1000582c:	56d3      	ldrsb	r3, [r2, r3]
1000582e:	428b      	cmp	r3, r1
10005830:	d020      	beq.n	10005874 <irq_add_tail_to_free_list+0x94>
10005832:	232a      	movs	r3, #42	; 0x2a
10005834:	56d3      	ldrsb	r3, [r2, r3]
10005836:	2003      	movs	r0, #3
10005838:	428b      	cmp	r3, r1
1000583a:	d010      	beq.n	1000585e <irq_add_tail_to_free_list+0x7e>
1000583c:	4b12      	ldr	r3, [pc, #72]	; (10005888 <irq_add_tail_to_free_list+0xa8>)
1000583e:	781a      	ldrb	r2, [r3, #0]
10005840:	7019      	strb	r1, [r3, #0]
10005842:	71a2      	strb	r2, [r4, #6]
10005844:	f3bf 8f5f 	dmb	sy
10005848:	2200      	movs	r2, #0
1000584a:	4b0b      	ldr	r3, [pc, #44]	; (10005878 <irq_add_tail_to_free_list+0x98>)
1000584c:	601a      	str	r2, [r3, #0]
1000584e:	f38c 8810 	msr	PRIMASK, ip
10005852:	bdf8      	pop	{r3, r4, r5, r6, r7, pc}
10005854:	68b2      	ldr	r2, [r6, #8]
10005856:	480d      	ldr	r0, [pc, #52]	; (1000588c <irq_add_tail_to_free_list+0xac>)
10005858:	50d0      	str	r0, [r2, r3]
1000585a:	e7ef      	b.n	1000583c <irq_add_tail_to_free_list+0x5c>
1000585c:	2000      	movs	r0, #0
1000585e:	0043      	lsls	r3, r0, #1
10005860:	181b      	adds	r3, r3, r0
10005862:	009b      	lsls	r3, r3, #2
10005864:	18d2      	adds	r2, r2, r3
10005866:	23ff      	movs	r3, #255	; 0xff
10005868:	7193      	strb	r3, [r2, #6]
1000586a:	4b09      	ldr	r3, [pc, #36]	; (10005890 <irq_add_tail_to_free_list+0xb0>)
1000586c:	8093      	strh	r3, [r2, #4]
1000586e:	e7e5      	b.n	1000583c <irq_add_tail_to_free_list+0x5c>
10005870:	2001      	movs	r0, #1
10005872:	e7f4      	b.n	1000585e <irq_add_tail_to_free_list+0x7e>
10005874:	2002      	movs	r0, #2
10005876:	e7f2      	b.n	1000585e <irq_add_tail_to_free_list+0x7e>
10005878:	d0000124 	.word	0xd0000124
1000587c:	e000ed00 	.word	0xe000ed00
10005880:	20000408 	.word	0x20000408
10005884:	0000aaaa 	.word	0x0000aaaa
10005888:	20027152 	.word	0x20027152
1000588c:	100001cd 	.word	0x100001cd
10005890:	ffffbd00 	.word	0xffffbd00

10005894 <irq_init_priorities>:
10005894:	4b05      	ldr	r3, [pc, #20]	; (100058ac <irq_init_priorities+0x18>)
10005896:	4a06      	ldr	r2, [pc, #24]	; (100058b0 <irq_init_priorities+0x1c>)
10005898:	6013      	str	r3, [r2, #0]
1000589a:	4a06      	ldr	r2, [pc, #24]	; (100058b4 <irq_init_priorities+0x20>)
1000589c:	6013      	str	r3, [r2, #0]
1000589e:	6053      	str	r3, [r2, #4]
100058a0:	6093      	str	r3, [r2, #8]
100058a2:	60d3      	str	r3, [r2, #12]
100058a4:	6113      	str	r3, [r2, #16]
100058a6:	6153      	str	r3, [r2, #20]
100058a8:	6193      	str	r3, [r2, #24]
100058aa:	4770      	bx	lr
100058ac:	80808080 	.word	0x80808080
100058b0:	e000e400 	.word	0xe000e400
100058b4:	e000e404 	.word	0xe000e404

100058b8 <user_irq_claim_unused>:
100058b8:	23d0      	movs	r3, #208	; 0xd0
100058ba:	b500      	push	{lr}
100058bc:	061b      	lsls	r3, r3, #24
100058be:	681b      	ldr	r3, [r3, #0]
100058c0:	0001      	movs	r1, r0
100058c2:	4807      	ldr	r0, [pc, #28]	; (100058e0 <user_irq_claim_unused+0x28>)
100058c4:	b083      	sub	sp, #12
100058c6:	18c0      	adds	r0, r0, r3
100058c8:	4b06      	ldr	r3, [pc, #24]	; (100058e4 <user_irq_claim_unused+0x2c>)
100058ca:	2200      	movs	r2, #0
100058cc:	9300      	str	r3, [sp, #0]
100058ce:	2305      	movs	r3, #5
100058d0:	f7ff fc8a 	bl	100051e8 <hw_claim_unused_from_range>
100058d4:	2800      	cmp	r0, #0
100058d6:	db01      	blt.n	100058dc <user_irq_claim_unused+0x24>
100058d8:	231f      	movs	r3, #31
100058da:	1a18      	subs	r0, r3, r0
100058dc:	b003      	add	sp, #12
100058de:	bd00      	pop	{pc}
100058e0:	20027148 	.word	0x20027148
100058e4:	1000d20c 	.word	0x1000d20c

100058e8 <lock_init>:
100058e8:	4b02      	ldr	r3, [pc, #8]	; (100058f4 <lock_init+0xc>)
100058ea:	469c      	mov	ip, r3
100058ec:	4461      	add	r1, ip
100058ee:	0089      	lsls	r1, r1, #2
100058f0:	6001      	str	r1, [r0, #0]
100058f2:	4770      	bx	lr
100058f4:	34000040 	.word	0x34000040

100058f8 <timer_pool_entry_comparator>:
100058f8:	6883      	ldr	r3, [r0, #8]
100058fa:	480b      	ldr	r0, [pc, #44]	; (10005928 <timer_pool_entry_comparator+0x30>)
100058fc:	b510      	push	{r4, lr}
100058fe:	4684      	mov	ip, r0
10005900:	4461      	add	r1, ip
10005902:	4462      	add	r2, ip
10005904:	0109      	lsls	r1, r1, #4
10005906:	0112      	lsls	r2, r2, #4
10005908:	189a      	adds	r2, r3, r2
1000590a:	1859      	adds	r1, r3, r1
1000590c:	6854      	ldr	r4, [r2, #4]
1000590e:	684b      	ldr	r3, [r1, #4]
10005910:	2001      	movs	r0, #1
10005912:	429c      	cmp	r4, r3
10005914:	d801      	bhi.n	1000591a <timer_pool_entry_comparator+0x22>
10005916:	d002      	beq.n	1000591e <timer_pool_entry_comparator+0x26>
10005918:	2000      	movs	r0, #0
1000591a:	b2c0      	uxtb	r0, r0
1000591c:	bd10      	pop	{r4, pc}
1000591e:	6812      	ldr	r2, [r2, #0]
10005920:	680b      	ldr	r3, [r1, #0]
10005922:	429a      	cmp	r2, r3
10005924:	d8f9      	bhi.n	1000591a <timer_pool_entry_comparator+0x22>
10005926:	e7f7      	b.n	10005918 <timer_pool_entry_comparator+0x20>
10005928:	0fffffff 	.word	0x0fffffff

1000592c <sleep_until_callback>:
1000592c:	4b0a      	ldr	r3, [pc, #40]	; (10005958 <sleep_until_callback+0x2c>)
1000592e:	6819      	ldr	r1, [r3, #0]
10005930:	f3ef 8010 	mrs	r0, PRIMASK
10005934:	b672      	cpsid	i
10005936:	680a      	ldr	r2, [r1, #0]
10005938:	2a00      	cmp	r2, #0
1000593a:	d0fc      	beq.n	10005936 <sleep_until_callback+0xa>
1000593c:	f3bf 8f5f 	dmb	sy
10005940:	681b      	ldr	r3, [r3, #0]
10005942:	f3bf 8f5f 	dmb	sy
10005946:	2200      	movs	r2, #0
10005948:	601a      	str	r2, [r3, #0]
1000594a:	f380 8810 	msr	PRIMASK, r0
1000594e:	bf40      	sev
10005950:	2000      	movs	r0, #0
10005952:	2100      	movs	r1, #0
10005954:	4770      	bx	lr
10005956:	46c0      	nop			; (mov r8, r8)
10005958:	20027118 	.word	0x20027118

1000595c <add_alarm_under_lock.isra.0>:
1000595c:	b5f8      	push	{r3, r4, r5, r6, r7, lr}
1000595e:	4657      	mov	r7, sl
10005960:	464e      	mov	r6, r9
10005962:	4645      	mov	r5, r8
10005964:	46de      	mov	lr, fp
10005966:	b5e0      	push	{r5, r6, r7, lr}
10005968:	4699      	mov	r9, r3
1000596a:	ab0c      	add	r3, sp, #48	; 0x30
1000596c:	781c      	ldrb	r4, [r3, #0]
1000596e:	ab0d      	add	r3, sp, #52	; 0x34
10005970:	781b      	ldrb	r3, [r3, #0]
10005972:	0006      	movs	r6, r0
10005974:	4690      	mov	r8, r2
10005976:	469a      	mov	sl, r3
10005978:	6807      	ldr	r7, [r0, #0]
1000597a:	2c00      	cmp	r4, #0
1000597c:	d111      	bne.n	100059a2 <add_alarm_under_lock.isra.0+0x46>
1000597e:	7bbc      	ldrb	r4, [r7, #14]
10005980:	2c00      	cmp	r4, #0
10005982:	d042      	beq.n	10005a0a <add_alarm_under_lock.isra.0+0xae>
10005984:	0065      	lsls	r5, r4, #1
10005986:	683b      	ldr	r3, [r7, #0]
10005988:	192d      	adds	r5, r5, r4
1000598a:	3d03      	subs	r5, #3
1000598c:	1959      	adds	r1, r3, r5
1000598e:	784b      	ldrb	r3, [r1, #1]
10005990:	73bb      	strb	r3, [r7, #14]
10005992:	2b00      	cmp	r3, #0
10005994:	d100      	bne.n	10005998 <add_alarm_under_lock.isra.0+0x3c>
10005996:	73fb      	strb	r3, [r7, #15]
10005998:	2300      	movs	r3, #0
1000599a:	708b      	strb	r3, [r1, #2]
1000599c:	704b      	strb	r3, [r1, #1]
1000599e:	700b      	strb	r3, [r1, #0]
100059a0:	e004      	b.n	100059ac <add_alarm_under_lock.isra.0+0x50>
100059a2:	0065      	lsls	r5, r4, #1
100059a4:	683b      	ldr	r3, [r7, #0]
100059a6:	192d      	adds	r5, r5, r4
100059a8:	3d03      	subs	r5, #3
100059aa:	1959      	adds	r1, r3, r5
100059ac:	68b2      	ldr	r2, [r6, #8]
100059ae:	4b2a      	ldr	r3, [pc, #168]	; (10005a58 <add_alarm_under_lock.isra.0+0xfc>)
100059b0:	4694      	mov	ip, r2
100059b2:	4642      	mov	r2, r8
100059b4:	18e3      	adds	r3, r4, r3
100059b6:	011b      	lsls	r3, r3, #4
100059b8:	4463      	add	r3, ip
100059ba:	601a      	str	r2, [r3, #0]
100059bc:	464a      	mov	r2, r9
100059be:	605a      	str	r2, [r3, #4]
100059c0:	9a0a      	ldr	r2, [sp, #40]	; 0x28
100059c2:	609a      	str	r2, [r3, #8]
100059c4:	9a0b      	ldr	r2, [sp, #44]	; 0x2c
100059c6:	60da      	str	r2, [r3, #12]
100059c8:	2300      	movs	r3, #0
100059ca:	708b      	strb	r3, [r1, #2]
100059cc:	704b      	strb	r3, [r1, #1]
100059ce:	700b      	strb	r3, [r1, #0]
100059d0:	7b7b      	ldrb	r3, [r7, #13]
100059d2:	469b      	mov	fp, r3
100059d4:	2b00      	cmp	r3, #0
100059d6:	d02b      	beq.n	10005a30 <add_alarm_under_lock.isra.0+0xd4>
100059d8:	0022      	movs	r2, r4
100059da:	4659      	mov	r1, fp
100059dc:	68b8      	ldr	r0, [r7, #8]
100059de:	687b      	ldr	r3, [r7, #4]
100059e0:	4798      	blx	r3
100059e2:	683a      	ldr	r2, [r7, #0]
100059e4:	2800      	cmp	r0, #0
100059e6:	d016      	beq.n	10005a16 <add_alarm_under_lock.isra.0+0xba>
100059e8:	465b      	mov	r3, fp
100059ea:	4658      	mov	r0, fp
100059ec:	005b      	lsls	r3, r3, #1
100059ee:	445b      	add	r3, fp
100059f0:	1955      	adds	r5, r2, r5
100059f2:	3b03      	subs	r3, #3
100059f4:	70a8      	strb	r0, [r5, #2]
100059f6:	18d1      	adds	r1, r2, r3
100059f8:	5cd3      	ldrb	r3, [r2, r3]
100059fa:	2b00      	cmp	r3, #0
100059fc:	d000      	beq.n	10005a00 <add_alarm_under_lock.isra.0+0xa4>
100059fe:	706b      	strb	r3, [r5, #1]
10005a00:	465b      	mov	r3, fp
10005a02:	700c      	strb	r4, [r1, #0]
10005a04:	737b      	strb	r3, [r7, #13]
10005a06:	45a3      	cmp	fp, r4
10005a08:	d013      	beq.n	10005a32 <add_alarm_under_lock.isra.0+0xd6>
10005a0a:	bcf0      	pop	{r4, r5, r6, r7}
10005a0c:	46bb      	mov	fp, r7
10005a0e:	46b2      	mov	sl, r6
10005a10:	46a9      	mov	r9, r5
10005a12:	46a0      	mov	r8, r4
10005a14:	bdf8      	pop	{r3, r4, r5, r6, r7, pc}
10005a16:	465b      	mov	r3, fp
10005a18:	005b      	lsls	r3, r3, #1
10005a1a:	445b      	add	r3, fp
10005a1c:	3b03      	subs	r3, #3
10005a1e:	18d3      	adds	r3, r2, r3
10005a20:	709c      	strb	r4, [r3, #2]
10005a22:	1951      	adds	r1, r2, r5
10005a24:	5d52      	ldrb	r2, [r2, r5]
10005a26:	2a00      	cmp	r2, #0
10005a28:	d000      	beq.n	10005a2c <add_alarm_under_lock.isra.0+0xd0>
10005a2a:	705a      	strb	r2, [r3, #1]
10005a2c:	465b      	mov	r3, fp
10005a2e:	700b      	strb	r3, [r1, #0]
10005a30:	737c      	strb	r4, [r7, #13]
10005a32:	4642      	mov	r2, r8
10005a34:	464b      	mov	r3, r9
10005a36:	7d30      	ldrb	r0, [r6, #20]
10005a38:	f000 fc26 	bl	10006288 <hardware_alarm_set_target>
10005a3c:	1e05      	subs	r5, r0, #0
10005a3e:	d006      	beq.n	10005a4e <add_alarm_under_lock.isra.0+0xf2>
10005a40:	4653      	mov	r3, sl
10005a42:	2b00      	cmp	r3, #0
10005a44:	d103      	bne.n	10005a4e <add_alarm_under_lock.isra.0+0xf2>
10005a46:	0021      	movs	r1, r4
10005a48:	6830      	ldr	r0, [r6, #0]
10005a4a:	f000 fe3f 	bl	100066cc <ph_remove_and_free_node>
10005a4e:	9b0e      	ldr	r3, [sp, #56]	; 0x38
10005a50:	2b00      	cmp	r3, #0
10005a52:	d0da      	beq.n	10005a0a <add_alarm_under_lock.isra.0+0xae>
10005a54:	701d      	strb	r5, [r3, #0]
10005a56:	e7d8      	b.n	10005a0a <add_alarm_under_lock.isra.0+0xae>
10005a58:	0fffffff 	.word	0x0fffffff

10005a5c <alarm_pool_alarm_callback>:
10005a5c:	b5f0      	push	{r4, r5, r6, r7, lr}
10005a5e:	46de      	mov	lr, fp
10005a60:	464e      	mov	r6, r9
10005a62:	4657      	mov	r7, sl
10005a64:	4645      	mov	r5, r8
10005a66:	2300      	movs	r3, #0
10005a68:	b5e0      	push	{r5, r6, r7, lr}
10005a6a:	b08d      	sub	sp, #52	; 0x34
10005a6c:	930a      	str	r3, [sp, #40]	; 0x28
10005a6e:	4b6b      	ldr	r3, [pc, #428]	; (10005c1c <alarm_pool_alarm_callback+0x1c0>)
10005a70:	0082      	lsls	r2, r0, #2
10005a72:	58d3      	ldr	r3, [r2, r3]
10005a74:	900b      	str	r0, [sp, #44]	; 0x2c
10005a76:	4699      	mov	r9, r3
10005a78:	2300      	movs	r3, #0
10005a7a:	469b      	mov	fp, r3
10005a7c:	464b      	mov	r3, r9
10005a7e:	9307      	str	r3, [sp, #28]
10005a80:	f000 fba2 	bl	100061c8 <time_us_64>
10005a84:	9c07      	ldr	r4, [sp, #28]
10005a86:	0006      	movs	r6, r0
10005a88:	000f      	movs	r7, r1
10005a8a:	6862      	ldr	r2, [r4, #4]
10005a8c:	f3ef 8510 	mrs	r5, PRIMASK
10005a90:	b672      	cpsid	i
10005a92:	6813      	ldr	r3, [r2, #0]
10005a94:	2b00      	cmp	r3, #0
10005a96:	d0fc      	beq.n	10005a92 <alarm_pool_alarm_callback+0x36>
10005a98:	0022      	movs	r2, r4
10005a9a:	9407      	str	r4, [sp, #28]
10005a9c:	f3bf 8f5f 	dmb	sy
10005aa0:	6824      	ldr	r4, [r4, #0]
10005aa2:	7b63      	ldrb	r3, [r4, #13]
10005aa4:	4699      	mov	r9, r3
10005aa6:	2b00      	cmp	r3, #0
10005aa8:	d067      	beq.n	10005b7a <alarm_pool_alarm_callback+0x11e>
10005aaa:	6892      	ldr	r2, [r2, #8]
10005aac:	4b5c      	ldr	r3, [pc, #368]	; (10005c20 <alarm_pool_alarm_callback+0x1c4>)
10005aae:	4690      	mov	r8, r2
10005ab0:	444b      	add	r3, r9
10005ab2:	011b      	lsls	r3, r3, #4
10005ab4:	4498      	add	r8, r3
10005ab6:	4643      	mov	r3, r8
10005ab8:	681a      	ldr	r2, [r3, #0]
10005aba:	685b      	ldr	r3, [r3, #4]
10005abc:	0010      	movs	r0, r2
10005abe:	0019      	movs	r1, r3
10005ac0:	1b80      	subs	r0, r0, r6
10005ac2:	41b9      	sbcs	r1, r7
10005ac4:	2900      	cmp	r1, #0
10005ac6:	dd5f      	ble.n	10005b88 <alarm_pool_alarm_callback+0x12c>
10005ac8:	980b      	ldr	r0, [sp, #44]	; 0x2c
10005aca:	f000 fbdd 	bl	10006288 <hardware_alarm_set_target>
10005ace:	2300      	movs	r3, #0
10005ad0:	2600      	movs	r6, #0
10005ad2:	4698      	mov	r8, r3
10005ad4:	2700      	movs	r7, #0
10005ad6:	469a      	mov	sl, r3
10005ad8:	9c07      	ldr	r4, [sp, #28]
10005ada:	6863      	ldr	r3, [r4, #4]
10005adc:	f3bf 8f5f 	dmb	sy
10005ae0:	465a      	mov	r2, fp
10005ae2:	601a      	str	r2, [r3, #0]
10005ae4:	f385 8810 	msr	PRIMASK, r5
10005ae8:	4653      	mov	r3, sl
10005aea:	2b00      	cmp	r3, #0
10005aec:	d108      	bne.n	10005b00 <alarm_pool_alarm_callback+0xa4>
10005aee:	2800      	cmp	r0, #0
10005af0:	d1c6      	bne.n	10005a80 <alarm_pool_alarm_callback+0x24>
10005af2:	b00d      	add	sp, #52	; 0x34
10005af4:	bcf0      	pop	{r4, r5, r6, r7}
10005af6:	46bb      	mov	fp, r7
10005af8:	46b2      	mov	sl, r6
10005afa:	46a9      	mov	r9, r5
10005afc:	46a0      	mov	r8, r4
10005afe:	bdf0      	pop	{r4, r5, r6, r7, pc}
10005b00:	9b0a      	ldr	r3, [sp, #40]	; 0x28
10005b02:	4641      	mov	r1, r8
10005b04:	0218      	lsls	r0, r3, #8
10005b06:	464b      	mov	r3, r9
10005b08:	4318      	orrs	r0, r3
10005b0a:	47d0      	blx	sl
10005b0c:	9008      	str	r0, [sp, #32]
10005b0e:	9109      	str	r1, [sp, #36]	; 0x24
10005b10:	6862      	ldr	r2, [r4, #4]
10005b12:	f3ef 8510 	mrs	r5, PRIMASK
10005b16:	b672      	cpsid	i
10005b18:	6813      	ldr	r3, [r2, #0]
10005b1a:	2b00      	cmp	r3, #0
10005b1c:	d0fc      	beq.n	10005b18 <alarm_pool_alarm_callback+0xbc>
10005b1e:	9407      	str	r4, [sp, #28]
10005b20:	f3bf 8f5f 	dmb	sy
10005b24:	9908      	ldr	r1, [sp, #32]
10005b26:	9a09      	ldr	r2, [sp, #36]	; 0x24
10005b28:	2a00      	cmp	r2, #0
10005b2a:	db48      	blt.n	10005bbe <alarm_pool_alarm_callback+0x162>
10005b2c:	4311      	orrs	r1, r2
10005b2e:	d003      	beq.n	10005b38 <alarm_pool_alarm_callback+0xdc>
10005b30:	9b07      	ldr	r3, [sp, #28]
10005b32:	691b      	ldr	r3, [r3, #16]
10005b34:	2b00      	cmp	r3, #0
10005b36:	d15d      	bne.n	10005bf4 <alarm_pool_alarm_callback+0x198>
10005b38:	9b07      	ldr	r3, [sp, #28]
10005b3a:	681b      	ldr	r3, [r3, #0]
10005b3c:	7bd9      	ldrb	r1, [r3, #15]
10005b3e:	2900      	cmp	r1, #0
10005b40:	d007      	beq.n	10005b52 <alarm_pool_alarm_callback+0xf6>
10005b42:	004a      	lsls	r2, r1, #1
10005b44:	1852      	adds	r2, r2, r1
10005b46:	6819      	ldr	r1, [r3, #0]
10005b48:	468c      	mov	ip, r1
10005b4a:	4649      	mov	r1, r9
10005b4c:	4462      	add	r2, ip
10005b4e:	3a03      	subs	r2, #3
10005b50:	7051      	strb	r1, [r2, #1]
10005b52:	464a      	mov	r2, r9
10005b54:	73da      	strb	r2, [r3, #15]
10005b56:	464b      	mov	r3, r9
10005b58:	9a07      	ldr	r2, [sp, #28]
10005b5a:	3b01      	subs	r3, #1
10005b5c:	68d1      	ldr	r1, [r2, #12]
10005b5e:	5cca      	ldrb	r2, [r1, r3]
10005b60:	3201      	adds	r2, #1
10005b62:	54ca      	strb	r2, [r1, r3]
10005b64:	465b      	mov	r3, fp
10005b66:	9a07      	ldr	r2, [sp, #28]
10005b68:	6113      	str	r3, [r2, #16]
10005b6a:	6853      	ldr	r3, [r2, #4]
10005b6c:	f3bf 8f5f 	dmb	sy
10005b70:	465a      	mov	r2, fp
10005b72:	601a      	str	r2, [r3, #0]
10005b74:	f385 8810 	msr	PRIMASK, r5
10005b78:	e782      	b.n	10005a80 <alarm_pool_alarm_callback+0x24>
10005b7a:	2300      	movs	r3, #0
10005b7c:	2600      	movs	r6, #0
10005b7e:	4698      	mov	r8, r3
10005b80:	2700      	movs	r7, #0
10005b82:	469a      	mov	sl, r3
10005b84:	2000      	movs	r0, #0
10005b86:	e7a7      	b.n	10005ad8 <alarm_pool_alarm_callback+0x7c>
10005b88:	2900      	cmp	r1, #0
10005b8a:	d101      	bne.n	10005b90 <alarm_pool_alarm_callback+0x134>
10005b8c:	2800      	cmp	r0, #0
10005b8e:	d19b      	bne.n	10005ac8 <alarm_pool_alarm_callback+0x6c>
10005b90:	2100      	movs	r1, #0
10005b92:	0020      	movs	r0, r4
10005b94:	f000 fd1c 	bl	100065d0 <ph_remove_head>
10005b98:	4643      	mov	r3, r8
10005b9a:	681e      	ldr	r6, [r3, #0]
10005b9c:	685f      	ldr	r7, [r3, #4]
10005b9e:	689b      	ldr	r3, [r3, #8]
10005ba0:	9a07      	ldr	r2, [sp, #28]
10005ba2:	469a      	mov	sl, r3
10005ba4:	4643      	mov	r3, r8
10005ba6:	68db      	ldr	r3, [r3, #12]
10005ba8:	4698      	mov	r8, r3
10005baa:	68d3      	ldr	r3, [r2, #12]
10005bac:	444b      	add	r3, r9
10005bae:	3b01      	subs	r3, #1
10005bb0:	781b      	ldrb	r3, [r3, #0]
10005bb2:	930a      	str	r3, [sp, #40]	; 0x28
10005bb4:	021b      	lsls	r3, r3, #8
10005bb6:	4303      	orrs	r3, r0
10005bb8:	6113      	str	r3, [r2, #16]
10005bba:	2000      	movs	r0, #0
10005bbc:	e78c      	b.n	10005ad8 <alarm_pool_alarm_callback+0x7c>
10005bbe:	6923      	ldr	r3, [r4, #16]
10005bc0:	2b00      	cmp	r3, #0
10005bc2:	d0b9      	beq.n	10005b38 <alarm_pool_alarm_callback+0xdc>
10005bc4:	0033      	movs	r3, r6
10005bc6:	003c      	movs	r4, r7
10005bc8:	1a5b      	subs	r3, r3, r1
10005bca:	4194      	sbcs	r4, r2
10005bcc:	001a      	movs	r2, r3
10005bce:	0023      	movs	r3, r4
10005bd0:	42a7      	cmp	r7, r4
10005bd2:	d819      	bhi.n	10005c08 <alarm_pool_alarm_callback+0x1ac>
10005bd4:	429f      	cmp	r7, r3
10005bd6:	d01b      	beq.n	10005c10 <alarm_pool_alarm_callback+0x1b4>
10005bd8:	4659      	mov	r1, fp
10005bda:	9104      	str	r1, [sp, #16]
10005bdc:	2101      	movs	r1, #1
10005bde:	9103      	str	r1, [sp, #12]
10005be0:	4649      	mov	r1, r9
10005be2:	9102      	str	r1, [sp, #8]
10005be4:	4641      	mov	r1, r8
10005be6:	9101      	str	r1, [sp, #4]
10005be8:	4651      	mov	r1, sl
10005bea:	9807      	ldr	r0, [sp, #28]
10005bec:	9100      	str	r1, [sp, #0]
10005bee:	f7ff feb5 	bl	1000595c <add_alarm_under_lock.isra.0>
10005bf2:	e7b7      	b.n	10005b64 <alarm_pool_alarm_callback+0x108>
10005bf4:	f000 fae8 	bl	100061c8 <time_us_64>
10005bf8:	9a08      	ldr	r2, [sp, #32]
10005bfa:	9b09      	ldr	r3, [sp, #36]	; 0x24
10005bfc:	0006      	movs	r6, r0
10005bfe:	000f      	movs	r7, r1
10005c00:	1992      	adds	r2, r2, r6
10005c02:	417b      	adcs	r3, r7
10005c04:	4299      	cmp	r1, r3
10005c06:	d9e5      	bls.n	10005bd4 <alarm_pool_alarm_callback+0x178>
10005c08:	2201      	movs	r2, #1
10005c0a:	4252      	negs	r2, r2
10005c0c:	17d3      	asrs	r3, r2, #31
10005c0e:	e7e3      	b.n	10005bd8 <alarm_pool_alarm_callback+0x17c>
10005c10:	4296      	cmp	r6, r2
10005c12:	d9e1      	bls.n	10005bd8 <alarm_pool_alarm_callback+0x17c>
10005c14:	2201      	movs	r2, #1
10005c16:	4252      	negs	r2, r2
10005c18:	17d3      	asrs	r3, r2, #31
10005c1a:	e7dd      	b.n	10005bd8 <alarm_pool_alarm_callback+0x17c>
10005c1c:	200270cc 	.word	0x200270cc
10005c20:	0fffffff 	.word	0x0fffffff

10005c24 <alarm_pool_add_alarm_at.constprop.0>:
10005c24:	b5f8      	push	{r3, r4, r5, r6, r7, lr}
10005c26:	4657      	mov	r7, sl
10005c28:	464e      	mov	r6, r9
10005c2a:	4645      	mov	r5, r8
10005c2c:	46de      	mov	lr, fp
10005c2e:	b5e0      	push	{r5, r6, r7, lr}
10005c30:	4d40      	ldr	r5, [pc, #256]	; (10005d34 <alarm_pool_add_alarm_at.constprop.0+0x110>)
10005c32:	4681      	mov	r9, r0
10005c34:	468a      	mov	sl, r1
10005c36:	686a      	ldr	r2, [r5, #4]
10005c38:	f3ef 8810 	mrs	r8, PRIMASK
10005c3c:	b672      	cpsid	i
10005c3e:	6813      	ldr	r3, [r2, #0]
10005c40:	2b00      	cmp	r3, #0
10005c42:	d0fc      	beq.n	10005c3e <alarm_pool_add_alarm_at.constprop.0+0x1a>
10005c44:	f3bf 8f5f 	dmb	sy
10005c48:	682e      	ldr	r6, [r5, #0]
10005c4a:	7bb4      	ldrb	r4, [r6, #14]
10005c4c:	2c00      	cmp	r4, #0
10005c4e:	d039      	beq.n	10005cc4 <alarm_pool_add_alarm_at.constprop.0+0xa0>
10005c50:	0067      	lsls	r7, r4, #1
10005c52:	6833      	ldr	r3, [r6, #0]
10005c54:	193f      	adds	r7, r7, r4
10005c56:	3f03      	subs	r7, #3
10005c58:	19db      	adds	r3, r3, r7
10005c5a:	785a      	ldrb	r2, [r3, #1]
10005c5c:	73b2      	strb	r2, [r6, #14]
10005c5e:	2a00      	cmp	r2, #0
10005c60:	d100      	bne.n	10005c64 <alarm_pool_add_alarm_at.constprop.0+0x40>
10005c62:	73f2      	strb	r2, [r6, #15]
10005c64:	68a9      	ldr	r1, [r5, #8]
10005c66:	4a34      	ldr	r2, [pc, #208]	; (10005d38 <alarm_pool_add_alarm_at.constprop.0+0x114>)
10005c68:	468c      	mov	ip, r1
10005c6a:	4649      	mov	r1, r9
10005c6c:	18a2      	adds	r2, r4, r2
10005c6e:	0112      	lsls	r2, r2, #4
10005c70:	4462      	add	r2, ip
10005c72:	6011      	str	r1, [r2, #0]
10005c74:	4651      	mov	r1, sl
10005c76:	6051      	str	r1, [r2, #4]
10005c78:	4930      	ldr	r1, [pc, #192]	; (10005d3c <alarm_pool_add_alarm_at.constprop.0+0x118>)
10005c7a:	6091      	str	r1, [r2, #8]
10005c7c:	2100      	movs	r1, #0
10005c7e:	60d1      	str	r1, [r2, #12]
10005c80:	7099      	strb	r1, [r3, #2]
10005c82:	7059      	strb	r1, [r3, #1]
10005c84:	7019      	strb	r1, [r3, #0]
10005c86:	7b73      	ldrb	r3, [r6, #13]
10005c88:	469b      	mov	fp, r3
10005c8a:	2b00      	cmp	r3, #0
10005c8c:	d035      	beq.n	10005cfa <alarm_pool_add_alarm_at.constprop.0+0xd6>
10005c8e:	0022      	movs	r2, r4
10005c90:	0019      	movs	r1, r3
10005c92:	68b0      	ldr	r0, [r6, #8]
10005c94:	6873      	ldr	r3, [r6, #4]
10005c96:	4798      	blx	r3
10005c98:	6832      	ldr	r2, [r6, #0]
10005c9a:	2800      	cmp	r0, #0
10005c9c:	d020      	beq.n	10005ce0 <alarm_pool_add_alarm_at.constprop.0+0xbc>
10005c9e:	465b      	mov	r3, fp
10005ca0:	4658      	mov	r0, fp
10005ca2:	005b      	lsls	r3, r3, #1
10005ca4:	445b      	add	r3, fp
10005ca6:	19d7      	adds	r7, r2, r7
10005ca8:	3b03      	subs	r3, #3
10005caa:	70b8      	strb	r0, [r7, #2]
10005cac:	18d1      	adds	r1, r2, r3
10005cae:	5cd3      	ldrb	r3, [r2, r3]
10005cb0:	2b00      	cmp	r3, #0
10005cb2:	d000      	beq.n	10005cb6 <alarm_pool_add_alarm_at.constprop.0+0x92>
10005cb4:	707b      	strb	r3, [r7, #1]
10005cb6:	465b      	mov	r3, fp
10005cb8:	700c      	strb	r4, [r1, #0]
10005cba:	7373      	strb	r3, [r6, #13]
10005cbc:	455c      	cmp	r4, fp
10005cbe:	d01d      	beq.n	10005cfc <alarm_pool_add_alarm_at.constprop.0+0xd8>
10005cc0:	2600      	movs	r6, #0
10005cc2:	e026      	b.n	10005d12 <alarm_pool_add_alarm_at.constprop.0+0xee>
10005cc4:	686b      	ldr	r3, [r5, #4]
10005cc6:	f3bf 8f5f 	dmb	sy
10005cca:	601c      	str	r4, [r3, #0]
10005ccc:	f388 8810 	msr	PRIMASK, r8
10005cd0:	2001      	movs	r0, #1
10005cd2:	4240      	negs	r0, r0
10005cd4:	bcf0      	pop	{r4, r5, r6, r7}
10005cd6:	46bb      	mov	fp, r7
10005cd8:	46b2      	mov	sl, r6
10005cda:	46a9      	mov	r9, r5
10005cdc:	46a0      	mov	r8, r4
10005cde:	bdf8      	pop	{r3, r4, r5, r6, r7, pc}
10005ce0:	465b      	mov	r3, fp
10005ce2:	005b      	lsls	r3, r3, #1
10005ce4:	445b      	add	r3, fp
10005ce6:	3b03      	subs	r3, #3
10005ce8:	18d3      	adds	r3, r2, r3
10005cea:	709c      	strb	r4, [r3, #2]
10005cec:	19d1      	adds	r1, r2, r7
10005cee:	5dd2      	ldrb	r2, [r2, r7]
10005cf0:	2a00      	cmp	r2, #0
10005cf2:	d000      	beq.n	10005cf6 <alarm_pool_add_alarm_at.constprop.0+0xd2>
10005cf4:	705a      	strb	r2, [r3, #1]
10005cf6:	465b      	mov	r3, fp
10005cf8:	700b      	strb	r3, [r1, #0]
10005cfa:	7374      	strb	r4, [r6, #13]
10005cfc:	464a      	mov	r2, r9
10005cfe:	4653      	mov	r3, sl
10005d00:	7d28      	ldrb	r0, [r5, #20]
10005d02:	f000 fac1 	bl	10006288 <hardware_alarm_set_target>
10005d06:	1e06      	subs	r6, r0, #0
10005d08:	d0da      	beq.n	10005cc0 <alarm_pool_add_alarm_at.constprop.0+0x9c>
10005d0a:	0021      	movs	r1, r4
10005d0c:	6828      	ldr	r0, [r5, #0]
10005d0e:	f000 fcdd 	bl	100066cc <ph_remove_and_free_node>
10005d12:	68eb      	ldr	r3, [r5, #12]
10005d14:	191b      	adds	r3, r3, r4
10005d16:	3b01      	subs	r3, #1
10005d18:	7819      	ldrb	r1, [r3, #0]
10005d1a:	686b      	ldr	r3, [r5, #4]
10005d1c:	f3bf 8f5f 	dmb	sy
10005d20:	2200      	movs	r2, #0
10005d22:	601a      	str	r2, [r3, #0]
10005d24:	f388 8810 	msr	PRIMASK, r8
10005d28:	2000      	movs	r0, #0
10005d2a:	2e00      	cmp	r6, #0
10005d2c:	d1d2      	bne.n	10005cd4 <alarm_pool_add_alarm_at.constprop.0+0xb0>
10005d2e:	0208      	lsls	r0, r1, #8
10005d30:	4320      	orrs	r0, r4
10005d32:	e7cf      	b.n	10005cd4 <alarm_pool_add_alarm_at.constprop.0+0xb0>
10005d34:	20000450 	.word	0x20000450
10005d38:	0fffffff 	.word	0x0fffffff
10005d3c:	1000592d 	.word	0x1000592d

10005d40 <alarm_pool_init_default>:
10005d40:	b510      	push	{r4, lr}
10005d42:	4c12      	ldr	r4, [pc, #72]	; (10005d8c <alarm_pool_init_default+0x4c>)
10005d44:	6863      	ldr	r3, [r4, #4]
10005d46:	2b00      	cmp	r3, #0
10005d48:	d004      	beq.n	10005d54 <alarm_pool_init_default+0x14>
10005d4a:	210a      	movs	r1, #10
10005d4c:	4810      	ldr	r0, [pc, #64]	; (10005d90 <alarm_pool_init_default+0x50>)
10005d4e:	f7ff fdcb 	bl	100058e8 <lock_init>
10005d52:	bd10      	pop	{r4, pc}
10005d54:	0023      	movs	r3, r4
10005d56:	4a0f      	ldr	r2, [pc, #60]	; (10005d94 <alarm_pool_init_default+0x54>)
10005d58:	2110      	movs	r1, #16
10005d5a:	6820      	ldr	r0, [r4, #0]
10005d5c:	f000 fb56 	bl	1000640c <ph_post_alloc_init>
10005d60:	2003      	movs	r0, #3
10005d62:	f000 fa25 	bl	100061b0 <hardware_alarm_claim>
10005d66:	2003      	movs	r0, #3
10005d68:	f000 fafe 	bl	10006368 <hardware_alarm_cancel>
10005d6c:	2003      	movs	r0, #3
10005d6e:	490a      	ldr	r1, [pc, #40]	; (10005d98 <alarm_pool_init_default+0x58>)
10005d70:	f000 fa44 	bl	100061fc <hardware_alarm_set_callback>
10005d74:	f7ff fa9c 	bl	100052b0 <next_striped_spin_lock_num>
10005d78:	4b08      	ldr	r3, [pc, #32]	; (10005d9c <alarm_pool_init_default+0x5c>)
10005d7a:	469c      	mov	ip, r3
10005d7c:	2303      	movs	r3, #3
10005d7e:	4460      	add	r0, ip
10005d80:	7523      	strb	r3, [r4, #20]
10005d82:	4b07      	ldr	r3, [pc, #28]	; (10005da0 <alarm_pool_init_default+0x60>)
10005d84:	0080      	lsls	r0, r0, #2
10005d86:	6060      	str	r0, [r4, #4]
10005d88:	60dc      	str	r4, [r3, #12]
10005d8a:	e7de      	b.n	10005d4a <alarm_pool_init_default+0xa>
10005d8c:	20000450 	.word	0x20000450
10005d90:	20027118 	.word	0x20027118
10005d94:	100058f9 	.word	0x100058f9
10005d98:	10005a5d 	.word	0x10005a5d
10005d9c:	34000040 	.word	0x34000040
10005da0:	200270cc 	.word	0x200270cc

10005da4 <alarm_pool_get_default>:
10005da4:	4800      	ldr	r0, [pc, #0]	; (10005da8 <alarm_pool_get_default+0x4>)
10005da6:	4770      	bx	lr
10005da8:	20000450 	.word	0x20000450

10005dac <alarm_pool_add_alarm_at>:
10005dac:	b5f0      	push	{r4, r5, r6, r7, lr}
10005dae:	4657      	mov	r7, sl
10005db0:	464e      	mov	r6, r9
10005db2:	4645      	mov	r5, r8
10005db4:	46de      	mov	lr, fp
10005db6:	b5e0      	push	{r5, r6, r7, lr}
10005db8:	b085      	sub	sp, #20
10005dba:	9301      	str	r3, [sp, #4]
10005dbc:	ab10      	add	r3, sp, #64	; 0x40
10005dbe:	781b      	ldrb	r3, [r3, #0]
10005dc0:	0006      	movs	r6, r0
10005dc2:	9303      	str	r3, [sp, #12]
10005dc4:	2300      	movs	r3, #0
10005dc6:	469a      	mov	sl, r3
10005dc8:	4698      	mov	r8, r3
10005dca:	9200      	str	r2, [sp, #0]
10005dcc:	6872      	ldr	r2, [r6, #4]
10005dce:	f3ef 8910 	mrs	r9, PRIMASK
10005dd2:	b672      	cpsid	i
10005dd4:	6813      	ldr	r3, [r2, #0]
10005dd6:	2b00      	cmp	r3, #0
10005dd8:	d0fc      	beq.n	10005dd4 <alarm_pool_add_alarm_at+0x28>
10005dda:	f3bf 8f5f 	dmb	sy
10005dde:	6835      	ldr	r5, [r6, #0]
10005de0:	7bac      	ldrb	r4, [r5, #14]
10005de2:	2c00      	cmp	r4, #0
10005de4:	d049      	beq.n	10005e7a <alarm_pool_add_alarm_at+0xce>
10005de6:	0067      	lsls	r7, r4, #1
10005de8:	682b      	ldr	r3, [r5, #0]
10005dea:	193f      	adds	r7, r7, r4
10005dec:	3f03      	subs	r7, #3
10005dee:	19db      	adds	r3, r3, r7
10005df0:	785a      	ldrb	r2, [r3, #1]
10005df2:	73aa      	strb	r2, [r5, #14]
10005df4:	2a00      	cmp	r2, #0
10005df6:	d100      	bne.n	10005dfa <alarm_pool_add_alarm_at+0x4e>
10005df8:	73ea      	strb	r2, [r5, #15]
10005dfa:	68b1      	ldr	r1, [r6, #8]
10005dfc:	4a4f      	ldr	r2, [pc, #316]	; (10005f3c <alarm_pool_add_alarm_at+0x190>)
10005dfe:	468c      	mov	ip, r1
10005e00:	9800      	ldr	r0, [sp, #0]
10005e02:	9901      	ldr	r1, [sp, #4]
10005e04:	18a2      	adds	r2, r4, r2
10005e06:	0112      	lsls	r2, r2, #4
10005e08:	4462      	add	r2, ip
10005e0a:	6010      	str	r0, [r2, #0]
10005e0c:	6051      	str	r1, [r2, #4]
10005e0e:	990e      	ldr	r1, [sp, #56]	; 0x38
10005e10:	6091      	str	r1, [r2, #8]
10005e12:	990f      	ldr	r1, [sp, #60]	; 0x3c
10005e14:	60d1      	str	r1, [r2, #12]
10005e16:	4642      	mov	r2, r8
10005e18:	709a      	strb	r2, [r3, #2]
10005e1a:	705a      	strb	r2, [r3, #1]
10005e1c:	701a      	strb	r2, [r3, #0]
10005e1e:	7b6b      	ldrb	r3, [r5, #13]
10005e20:	469b      	mov	fp, r3
10005e22:	2b00      	cmp	r3, #0
10005e24:	d045      	beq.n	10005eb2 <alarm_pool_add_alarm_at+0x106>
10005e26:	0022      	movs	r2, r4
10005e28:	0019      	movs	r1, r3
10005e2a:	68a8      	ldr	r0, [r5, #8]
10005e2c:	686b      	ldr	r3, [r5, #4]
10005e2e:	4798      	blx	r3
10005e30:	682a      	ldr	r2, [r5, #0]
10005e32:	2800      	cmp	r0, #0
10005e34:	d030      	beq.n	10005e98 <alarm_pool_add_alarm_at+0xec>
10005e36:	465b      	mov	r3, fp
10005e38:	4658      	mov	r0, fp
10005e3a:	005b      	lsls	r3, r3, #1
10005e3c:	445b      	add	r3, fp
10005e3e:	19d7      	adds	r7, r2, r7
10005e40:	3b03      	subs	r3, #3
10005e42:	70b8      	strb	r0, [r7, #2]
10005e44:	18d1      	adds	r1, r2, r3
10005e46:	5cd3      	ldrb	r3, [r2, r3]
10005e48:	2b00      	cmp	r3, #0
10005e4a:	d000      	beq.n	10005e4e <alarm_pool_add_alarm_at+0xa2>
10005e4c:	707b      	strb	r3, [r7, #1]
10005e4e:	465b      	mov	r3, fp
10005e50:	700c      	strb	r4, [r1, #0]
10005e52:	736b      	strb	r3, [r5, #13]
10005e54:	455c      	cmp	r4, fp
10005e56:	d02d      	beq.n	10005eb4 <alarm_pool_add_alarm_at+0x108>
10005e58:	68f3      	ldr	r3, [r6, #12]
10005e5a:	191b      	adds	r3, r3, r4
10005e5c:	3b01      	subs	r3, #1
10005e5e:	7818      	ldrb	r0, [r3, #0]
10005e60:	6873      	ldr	r3, [r6, #4]
10005e62:	f3bf 8f5f 	dmb	sy
10005e66:	4642      	mov	r2, r8
10005e68:	601a      	str	r2, [r3, #0]
10005e6a:	f389 8810 	msr	PRIMASK, r9
10005e6e:	4653      	mov	r3, sl
10005e70:	2b00      	cmp	r3, #0
10005e72:	d12c      	bne.n	10005ece <alarm_pool_add_alarm_at+0x122>
10005e74:	0200      	lsls	r0, r0, #8
10005e76:	4320      	orrs	r0, r4
10005e78:	e007      	b.n	10005e8a <alarm_pool_add_alarm_at+0xde>
10005e7a:	6873      	ldr	r3, [r6, #4]
10005e7c:	f3bf 8f5f 	dmb	sy
10005e80:	601c      	str	r4, [r3, #0]
10005e82:	f389 8810 	msr	PRIMASK, r9
10005e86:	2001      	movs	r0, #1
10005e88:	4240      	negs	r0, r0
10005e8a:	b005      	add	sp, #20
10005e8c:	bcf0      	pop	{r4, r5, r6, r7}
10005e8e:	46bb      	mov	fp, r7
10005e90:	46b2      	mov	sl, r6
10005e92:	46a9      	mov	r9, r5
10005e94:	46a0      	mov	r8, r4
10005e96:	bdf0      	pop	{r4, r5, r6, r7, pc}
10005e98:	465b      	mov	r3, fp
10005e9a:	005b      	lsls	r3, r3, #1
10005e9c:	445b      	add	r3, fp
10005e9e:	3b03      	subs	r3, #3
10005ea0:	18d3      	adds	r3, r2, r3
10005ea2:	709c      	strb	r4, [r3, #2]
10005ea4:	19d1      	adds	r1, r2, r7
10005ea6:	5dd2      	ldrb	r2, [r2, r7]
10005ea8:	2a00      	cmp	r2, #0
10005eaa:	d000      	beq.n	10005eae <alarm_pool_add_alarm_at+0x102>
10005eac:	705a      	strb	r2, [r3, #1]
10005eae:	465b      	mov	r3, fp
10005eb0:	700b      	strb	r3, [r1, #0]
10005eb2:	736c      	strb	r4, [r5, #13]
10005eb4:	7d30      	ldrb	r0, [r6, #20]
10005eb6:	9a00      	ldr	r2, [sp, #0]
10005eb8:	9b01      	ldr	r3, [sp, #4]
10005eba:	f000 f9e5 	bl	10006288 <hardware_alarm_set_target>
10005ebe:	4682      	mov	sl, r0
10005ec0:	2800      	cmp	r0, #0
10005ec2:	d0c9      	beq.n	10005e58 <alarm_pool_add_alarm_at+0xac>
10005ec4:	0021      	movs	r1, r4
10005ec6:	6830      	ldr	r0, [r6, #0]
10005ec8:	f000 fc00 	bl	100066cc <ph_remove_and_free_node>
10005ecc:	e7c4      	b.n	10005e58 <alarm_pool_add_alarm_at+0xac>
10005ece:	9b03      	ldr	r3, [sp, #12]
10005ed0:	2b00      	cmp	r3, #0
10005ed2:	d030      	beq.n	10005f36 <alarm_pool_add_alarm_at+0x18a>
10005ed4:	9b0e      	ldr	r3, [sp, #56]	; 0x38
10005ed6:	2000      	movs	r0, #0
10005ed8:	990f      	ldr	r1, [sp, #60]	; 0x3c
10005eda:	4798      	blx	r3
10005edc:	0003      	movs	r3, r0
10005ede:	0004      	movs	r4, r0
10005ee0:	000d      	movs	r5, r1
10005ee2:	430b      	orrs	r3, r1
10005ee4:	d027      	beq.n	10005f36 <alarm_pool_add_alarm_at+0x18a>
10005ee6:	2900      	cmp	r1, #0
10005ee8:	da0d      	bge.n	10005f06 <alarm_pool_add_alarm_at+0x15a>
10005eea:	9800      	ldr	r0, [sp, #0]
10005eec:	9901      	ldr	r1, [sp, #4]
10005eee:	0002      	movs	r2, r0
10005ef0:	000b      	movs	r3, r1
10005ef2:	1b12      	subs	r2, r2, r4
10005ef4:	41ab      	sbcs	r3, r5
10005ef6:	4299      	cmp	r1, r3
10005ef8:	d813      	bhi.n	10005f22 <alarm_pool_add_alarm_at+0x176>
10005efa:	d018      	beq.n	10005f2e <alarm_pool_add_alarm_at+0x182>
10005efc:	9200      	str	r2, [sp, #0]
10005efe:	9301      	str	r3, [sp, #4]
10005f00:	9b03      	ldr	r3, [sp, #12]
10005f02:	469a      	mov	sl, r3
10005f04:	e762      	b.n	10005dcc <alarm_pool_add_alarm_at+0x20>
10005f06:	f000 f95f 	bl	100061c8 <time_us_64>
10005f0a:	0002      	movs	r2, r0
10005f0c:	000b      	movs	r3, r1
10005f0e:	18a4      	adds	r4, r4, r2
10005f10:	415d      	adcs	r5, r3
10005f12:	9400      	str	r4, [sp, #0]
10005f14:	9501      	str	r5, [sp, #4]
10005f16:	42a9      	cmp	r1, r5
10005f18:	d803      	bhi.n	10005f22 <alarm_pool_add_alarm_at+0x176>
10005f1a:	d1f1      	bne.n	10005f00 <alarm_pool_add_alarm_at+0x154>
10005f1c:	9900      	ldr	r1, [sp, #0]
10005f1e:	428a      	cmp	r2, r1
10005f20:	d9ee      	bls.n	10005f00 <alarm_pool_add_alarm_at+0x154>
10005f22:	2301      	movs	r3, #1
10005f24:	425b      	negs	r3, r3
10005f26:	17dc      	asrs	r4, r3, #31
10005f28:	9300      	str	r3, [sp, #0]
10005f2a:	9401      	str	r4, [sp, #4]
10005f2c:	e7e8      	b.n	10005f00 <alarm_pool_add_alarm_at+0x154>
10005f2e:	9900      	ldr	r1, [sp, #0]
10005f30:	4291      	cmp	r1, r2
10005f32:	d9e3      	bls.n	10005efc <alarm_pool_add_alarm_at+0x150>
10005f34:	e7f5      	b.n	10005f22 <alarm_pool_add_alarm_at+0x176>
10005f36:	2000      	movs	r0, #0
10005f38:	e7a7      	b.n	10005e8a <alarm_pool_add_alarm_at+0xde>
10005f3a:	46c0      	nop			; (mov r8, r8)
10005f3c:	0fffffff 	.word	0x0fffffff

10005f40 <sleep_until>:
10005f40:	b5f0      	push	{r4, r5, r6, r7, lr}
10005f42:	0004      	movs	r4, r0
10005f44:	000d      	movs	r5, r1
10005f46:	2606      	movs	r6, #6
10005f48:	4276      	negs	r6, r6
10005f4a:	17f7      	asrs	r7, r6, #31
10005f4c:	46c6      	mov	lr, r8
10005f4e:	1936      	adds	r6, r6, r4
10005f50:	416f      	adcs	r7, r5
10005f52:	b500      	push	{lr}
10005f54:	428f      	cmp	r7, r1
10005f56:	d813      	bhi.n	10005f80 <sleep_until+0x40>
10005f58:	d010      	beq.n	10005f7c <sleep_until+0x3c>
10005f5a:	f000 f935 	bl	100061c8 <time_us_64>
10005f5e:	0032      	movs	r2, r6
10005f60:	003b      	movs	r3, r7
10005f62:	1a12      	subs	r2, r2, r0
10005f64:	418b      	sbcs	r3, r1
10005f66:	2b00      	cmp	r3, #0
10005f68:	dc14      	bgt.n	10005f94 <sleep_until+0x54>
10005f6a:	2b00      	cmp	r3, #0
10005f6c:	d037      	beq.n	10005fde <sleep_until+0x9e>
10005f6e:	0029      	movs	r1, r5
10005f70:	0020      	movs	r0, r4
10005f72:	f000 f933 	bl	100061dc <busy_wait_until>
10005f76:	bc80      	pop	{r7}
10005f78:	46b8      	mov	r8, r7
10005f7a:	bdf0      	pop	{r4, r5, r6, r7, pc}
10005f7c:	4286      	cmp	r6, r0
10005f7e:	d9ec      	bls.n	10005f5a <sleep_until+0x1a>
10005f80:	2600      	movs	r6, #0
10005f82:	2700      	movs	r7, #0
10005f84:	f000 f920 	bl	100061c8 <time_us_64>
10005f88:	0032      	movs	r2, r6
10005f8a:	003b      	movs	r3, r7
10005f8c:	1a12      	subs	r2, r2, r0
10005f8e:	418b      	sbcs	r3, r1
10005f90:	2b00      	cmp	r3, #0
10005f92:	ddea      	ble.n	10005f6a <sleep_until+0x2a>
10005f94:	0030      	movs	r0, r6
10005f96:	0039      	movs	r1, r7
10005f98:	f7ff fe44 	bl	10005c24 <alarm_pool_add_alarm_at.constprop.0>
10005f9c:	2800      	cmp	r0, #0
10005f9e:	dbe6      	blt.n	10005f6e <sleep_until+0x2e>
10005fa0:	2300      	movs	r3, #0
10005fa2:	4698      	mov	r8, r3
10005fa4:	46bc      	mov	ip, r7
10005fa6:	4a0f      	ldr	r2, [pc, #60]	; (10005fe4 <sleep_until+0xa4>)
10005fa8:	4f0f      	ldr	r7, [pc, #60]	; (10005fe8 <sleep_until+0xa8>)
10005faa:	6a7b      	ldr	r3, [r7, #36]	; 0x24
10005fac:	459c      	cmp	ip, r3
10005fae:	d804      	bhi.n	10005fba <sleep_until+0x7a>
10005fb0:	6ab9      	ldr	r1, [r7, #40]	; 0x28
10005fb2:	428e      	cmp	r6, r1
10005fb4:	d9db      	bls.n	10005f6e <sleep_until+0x2e>
10005fb6:	459c      	cmp	ip, r3
10005fb8:	d1d9      	bne.n	10005f6e <sleep_until+0x2e>
10005fba:	6811      	ldr	r1, [r2, #0]
10005fbc:	f3ef 8010 	mrs	r0, PRIMASK
10005fc0:	b672      	cpsid	i
10005fc2:	680b      	ldr	r3, [r1, #0]
10005fc4:	2b00      	cmp	r3, #0
10005fc6:	d0fc      	beq.n	10005fc2 <sleep_until+0x82>
10005fc8:	f3bf 8f5f 	dmb	sy
10005fcc:	6813      	ldr	r3, [r2, #0]
10005fce:	f3bf 8f5f 	dmb	sy
10005fd2:	4641      	mov	r1, r8
10005fd4:	6019      	str	r1, [r3, #0]
10005fd6:	f380 8810 	msr	PRIMASK, r0
10005fda:	bf20      	wfe
10005fdc:	e7e5      	b.n	10005faa <sleep_until+0x6a>
10005fde:	2a00      	cmp	r2, #0
10005fe0:	d0c5      	beq.n	10005f6e <sleep_until+0x2e>
10005fe2:	e7d7      	b.n	10005f94 <sleep_until+0x54>
10005fe4:	20027118 	.word	0x20027118
10005fe8:	40054000 	.word	0x40054000

10005fec <sleep_ms>:
10005fec:	b570      	push	{r4, r5, r6, lr}
10005fee:	0006      	movs	r6, r0
10005ff0:	f000 f8ea 	bl	100061c8 <time_us_64>
10005ff4:	22fa      	movs	r2, #250	; 0xfa
10005ff6:	0004      	movs	r4, r0
10005ff8:	000d      	movs	r5, r1
10005ffa:	2300      	movs	r3, #0
10005ffc:	0030      	movs	r0, r6
10005ffe:	2100      	movs	r1, #0
10006000:	0092      	lsls	r2, r2, #2
10006002:	f002 ff87 	bl	10008f14 <__wrap___aeabi_lmul>
10006006:	1900      	adds	r0, r0, r4
10006008:	4169      	adcs	r1, r5
1000600a:	428d      	cmp	r5, r1
1000600c:	d805      	bhi.n	1000601a <sleep_ms+0x2e>
1000600e:	d002      	beq.n	10006016 <sleep_ms+0x2a>
10006010:	f7ff ff96 	bl	10005f40 <sleep_until>
10006014:	bd70      	pop	{r4, r5, r6, pc}
10006016:	4284      	cmp	r4, r0
10006018:	d9fa      	bls.n	10006010 <sleep_ms+0x24>
1000601a:	2001      	movs	r0, #1
1000601c:	4240      	negs	r0, r0
1000601e:	17c1      	asrs	r1, r0, #31
10006020:	e7f6      	b.n	10006010 <sleep_ms+0x24>
10006022:	46c0      	nop			; (mov r8, r8)

10006024 <best_effort_wfe_or_timeout>:
10006024:	b5f8      	push	{r3, r4, r5, r6, r7, lr}
10006026:	46ce      	mov	lr, r9
10006028:	4647      	mov	r7, r8
1000602a:	b580      	push	{r7, lr}
1000602c:	0006      	movs	r6, r0
1000602e:	000c      	movs	r4, r1
10006030:	f7ff fdf8 	bl	10005c24 <alarm_pool_add_alarm_at.constprop.0>
10006034:	2800      	cmp	r0, #0
10006036:	dc0c      	bgt.n	10006052 <best_effort_wfe_or_timeout+0x2e>
10006038:	4b2d      	ldr	r3, [pc, #180]	; (100060f0 <best_effort_wfe_or_timeout+0xcc>)
1000603a:	2000      	movs	r0, #0
1000603c:	6a59      	ldr	r1, [r3, #36]	; 0x24
1000603e:	428c      	cmp	r4, r1
10006040:	d803      	bhi.n	1000604a <best_effort_wfe_or_timeout+0x26>
10006042:	6a9b      	ldr	r3, [r3, #40]	; 0x28
10006044:	3001      	adds	r0, #1
10006046:	42b3      	cmp	r3, r6
10006048:	d345      	bcc.n	100060d6 <best_effort_wfe_or_timeout+0xb2>
1000604a:	bcc0      	pop	{r6, r7}
1000604c:	46b9      	mov	r9, r7
1000604e:	46b0      	mov	r8, r6
10006050:	bdf8      	pop	{r3, r4, r5, r6, r7, pc}
10006052:	bf20      	wfe
10006054:	4d27      	ldr	r5, [pc, #156]	; (100060f4 <best_effort_wfe_or_timeout+0xd0>)
10006056:	686a      	ldr	r2, [r5, #4]
10006058:	f3ef 8710 	mrs	r7, PRIMASK
1000605c:	b672      	cpsid	i
1000605e:	6813      	ldr	r3, [r2, #0]
10006060:	2b00      	cmp	r3, #0
10006062:	d0fc      	beq.n	1000605e <best_effort_wfe_or_timeout+0x3a>
10006064:	f3bf 8f5f 	dmb	sy
10006068:	682b      	ldr	r3, [r5, #0]
1000606a:	b2c1      	uxtb	r1, r0
1000606c:	469c      	mov	ip, r3
1000606e:	7b5b      	ldrb	r3, [r3, #13]
10006070:	428b      	cmp	r3, r1
10006072:	d035      	beq.n	100060e0 <best_effort_wfe_or_timeout+0xbc>
10006074:	23ff      	movs	r3, #255	; 0xff
10006076:	4003      	ands	r3, r0
10006078:	005a      	lsls	r2, r3, #1
1000607a:	4691      	mov	r9, r2
1000607c:	4662      	mov	r2, ip
1000607e:	6812      	ldr	r2, [r2, #0]
10006080:	4499      	add	r9, r3
10006082:	4690      	mov	r8, r2
10006084:	464a      	mov	r2, r9
10006086:	4442      	add	r2, r8
10006088:	3a03      	subs	r2, #3
1000608a:	7892      	ldrb	r2, [r2, #2]
1000608c:	2a00      	cmp	r2, #0
1000608e:	d01d      	beq.n	100060cc <best_effort_wfe_or_timeout+0xa8>
10006090:	68ea      	ldr	r2, [r5, #12]
10006092:	0a00      	lsrs	r0, r0, #8
10006094:	4690      	mov	r8, r2
10006096:	4443      	add	r3, r8
10006098:	3b01      	subs	r3, #1
1000609a:	781b      	ldrb	r3, [r3, #0]
1000609c:	b2c0      	uxtb	r0, r0
1000609e:	4283      	cmp	r3, r0
100060a0:	d021      	beq.n	100060e6 <best_effort_wfe_or_timeout+0xc2>
100060a2:	686b      	ldr	r3, [r5, #4]
100060a4:	f3bf 8f5f 	dmb	sy
100060a8:	2200      	movs	r2, #0
100060aa:	601a      	str	r2, [r3, #0]
100060ac:	f387 8810 	msr	PRIMASK, r7
100060b0:	4a0f      	ldr	r2, [pc, #60]	; (100060f0 <best_effort_wfe_or_timeout+0xcc>)
100060b2:	2000      	movs	r0, #0
100060b4:	6a53      	ldr	r3, [r2, #36]	; 0x24
100060b6:	429c      	cmp	r4, r3
100060b8:	d8c7      	bhi.n	1000604a <best_effort_wfe_or_timeout+0x26>
100060ba:	6a92      	ldr	r2, [r2, #40]	; 0x28
100060bc:	3001      	adds	r0, #1
100060be:	42b2      	cmp	r2, r6
100060c0:	d2c3      	bcs.n	1000604a <best_effort_wfe_or_timeout+0x26>
100060c2:	1ae0      	subs	r0, r4, r3
100060c4:	1e42      	subs	r2, r0, #1
100060c6:	4190      	sbcs	r0, r2
100060c8:	b2c0      	uxtb	r0, r0
100060ca:	e7be      	b.n	1000604a <best_effort_wfe_or_timeout+0x26>
100060cc:	692b      	ldr	r3, [r5, #16]
100060ce:	4298      	cmp	r0, r3
100060d0:	d1e7      	bne.n	100060a2 <best_effort_wfe_or_timeout+0x7e>
100060d2:	612a      	str	r2, [r5, #16]
100060d4:	e7e5      	b.n	100060a2 <best_effort_wfe_or_timeout+0x7e>
100060d6:	1a60      	subs	r0, r4, r1
100060d8:	1e43      	subs	r3, r0, #1
100060da:	4198      	sbcs	r0, r3
100060dc:	b2c0      	uxtb	r0, r0
100060de:	e7b4      	b.n	1000604a <best_effort_wfe_or_timeout+0x26>
100060e0:	23ff      	movs	r3, #255	; 0xff
100060e2:	4003      	ands	r3, r0
100060e4:	e7d4      	b.n	10006090 <best_effort_wfe_or_timeout+0x6c>
100060e6:	4660      	mov	r0, ip
100060e8:	f000 faf0 	bl	100066cc <ph_remove_and_free_node>
100060ec:	e7d9      	b.n	100060a2 <best_effort_wfe_or_timeout+0x7e>
100060ee:	46c0      	nop			; (mov r8, r8)
100060f0:	40054000 	.word	0x40054000
100060f4:	20000450 	.word	0x20000450

100060f8 <hardware_alarm_irq_handler>:
100060f8:	b5f0      	push	{r4, r5, r6, r7, lr}
100060fa:	46d6      	mov	lr, sl
100060fc:	464f      	mov	r7, r9
100060fe:	4646      	mov	r6, r8
10006100:	b5c0      	push	{r6, r7, lr}
10006102:	f3ef 8305 	mrs	r3, IPSR
10006106:	223f      	movs	r2, #63	; 0x3f
10006108:	4013      	ands	r3, r2
1000610a:	0018      	movs	r0, r3
1000610c:	3810      	subs	r0, #16
1000610e:	f3ef 8c10 	mrs	ip, PRIMASK
10006112:	b672      	cpsid	i
10006114:	4d20      	ldr	r5, [pc, #128]	; (10006198 <hardware_alarm_irq_handler+0xa0>)
10006116:	682a      	ldr	r2, [r5, #0]
10006118:	2a00      	cmp	r2, #0
1000611a:	d0fc      	beq.n	10006116 <hardware_alarm_irq_handler+0x1e>
1000611c:	f3bf 8f5f 	dmb	sy
10006120:	2201      	movs	r2, #1
10006122:	0011      	movs	r1, r2
10006124:	4081      	lsls	r1, r0
10006126:	4c1d      	ldr	r4, [pc, #116]	; (1000619c <hardware_alarm_irq_handler+0xa4>)
10006128:	4688      	mov	r8, r1
1000612a:	6361      	str	r1, [r4, #52]	; 0x34
1000612c:	491c      	ldr	r1, [pc, #112]	; (100061a0 <hardware_alarm_irq_handler+0xa8>)
1000612e:	0017      	movs	r7, r2
10006130:	780e      	ldrb	r6, [r1, #0]
10006132:	468a      	mov	sl, r1
10006134:	0031      	movs	r1, r6
10006136:	40c1      	lsrs	r1, r0
10006138:	400f      	ands	r7, r1
1000613a:	420a      	tst	r2, r1
1000613c:	d109      	bne.n	10006152 <hardware_alarm_irq_handler+0x5a>
1000613e:	f3bf 8f5f 	dmb	sy
10006142:	602f      	str	r7, [r5, #0]
10006144:	f38c 8810 	msr	PRIMASK, ip
10006148:	bce0      	pop	{r5, r6, r7}
1000614a:	46ba      	mov	sl, r7
1000614c:	46b1      	mov	r9, r6
1000614e:	46a8      	mov	r8, r5
10006150:	bdf0      	pop	{r4, r5, r6, r7, pc}
10006152:	4914      	ldr	r1, [pc, #80]	; (100061a4 <hardware_alarm_irq_handler+0xac>)
10006154:	0082      	lsls	r2, r0, #2
10006156:	6a64      	ldr	r4, [r4, #36]	; 0x24
10006158:	5851      	ldr	r1, [r2, r1]
1000615a:	428c      	cmp	r4, r1
1000615c:	d30f      	bcc.n	1000617e <hardware_alarm_irq_handler+0x86>
1000615e:	4b12      	ldr	r3, [pc, #72]	; (100061a8 <hardware_alarm_irq_handler+0xb0>)
10006160:	58d2      	ldr	r2, [r2, r3]
10006162:	4643      	mov	r3, r8
10006164:	439e      	bics	r6, r3
10006166:	4653      	mov	r3, sl
10006168:	701e      	strb	r6, [r3, #0]
1000616a:	f3bf 8f5f 	dmb	sy
1000616e:	2300      	movs	r3, #0
10006170:	602b      	str	r3, [r5, #0]
10006172:	f38c 8810 	msr	PRIMASK, ip
10006176:	2a00      	cmp	r2, #0
10006178:	d0e6      	beq.n	10006148 <hardware_alarm_irq_handler+0x50>
1000617a:	4790      	blx	r2
1000617c:	e7e4      	b.n	10006148 <hardware_alarm_irq_handler+0x50>
1000617e:	4a0b      	ldr	r2, [pc, #44]	; (100061ac <hardware_alarm_irq_handler+0xb4>)
10006180:	009b      	lsls	r3, r3, #2
10006182:	4690      	mov	r8, r2
10006184:	4443      	add	r3, r8
10006186:	681a      	ldr	r2, [r3, #0]
10006188:	601a      	str	r2, [r3, #0]
1000618a:	f3bf 8f5f 	dmb	sy
1000618e:	2300      	movs	r3, #0
10006190:	602b      	str	r3, [r5, #0]
10006192:	f38c 8810 	msr	PRIMASK, ip
10006196:	e7d7      	b.n	10006148 <hardware_alarm_irq_handler+0x50>
10006198:	d0000128 	.word	0xd0000128
1000619c:	40054000 	.word	0x40054000
100061a0:	20027155 	.word	0x20027155
100061a4:	20027124 	.word	0x20027124
100061a8:	20000f6c 	.word	0x20000f6c
100061ac:	40053fd0 	.word	0x40053fd0

100061b0 <hardware_alarm_claim>:
100061b0:	b510      	push	{r4, lr}
100061b2:	0001      	movs	r1, r0
100061b4:	4a02      	ldr	r2, [pc, #8]	; (100061c0 <hardware_alarm_claim+0x10>)
100061b6:	4803      	ldr	r0, [pc, #12]	; (100061c4 <hardware_alarm_claim+0x14>)
100061b8:	f7fe fff4 	bl	100051a4 <hw_claim_or_assert>
100061bc:	bd10      	pop	{r4, pc}
100061be:	46c0      	nop			; (mov r8, r8)
100061c0:	1000d228 	.word	0x1000d228
100061c4:	20027150 	.word	0x20027150

100061c8 <time_us_64>:
100061c8:	4b03      	ldr	r3, [pc, #12]	; (100061d8 <time_us_64+0x10>)
100061ca:	6a59      	ldr	r1, [r3, #36]	; 0x24
100061cc:	000a      	movs	r2, r1
100061ce:	6a98      	ldr	r0, [r3, #40]	; 0x28
100061d0:	6a59      	ldr	r1, [r3, #36]	; 0x24
100061d2:	428a      	cmp	r2, r1
100061d4:	d1fa      	bne.n	100061cc <time_us_64+0x4>
100061d6:	4770      	bx	lr
100061d8:	40054000 	.word	0x40054000

100061dc <busy_wait_until>:
100061dc:	4a06      	ldr	r2, [pc, #24]	; (100061f8 <busy_wait_until+0x1c>)
100061de:	6a53      	ldr	r3, [r2, #36]	; 0x24
100061e0:	4299      	cmp	r1, r3
100061e2:	d8fc      	bhi.n	100061de <busy_wait_until+0x2>
100061e4:	d107      	bne.n	100061f6 <busy_wait_until+0x1a>
100061e6:	4b04      	ldr	r3, [pc, #16]	; (100061f8 <busy_wait_until+0x1c>)
100061e8:	e002      	b.n	100061f0 <busy_wait_until+0x14>
100061ea:	6a5a      	ldr	r2, [r3, #36]	; 0x24
100061ec:	4291      	cmp	r1, r2
100061ee:	d102      	bne.n	100061f6 <busy_wait_until+0x1a>
100061f0:	6a9a      	ldr	r2, [r3, #40]	; 0x28
100061f2:	4282      	cmp	r2, r0
100061f4:	d3f9      	bcc.n	100061ea <busy_wait_until+0xe>
100061f6:	4770      	bx	lr
100061f8:	40054000 	.word	0x40054000

100061fc <hardware_alarm_set_callback>:
100061fc:	b570      	push	{r4, r5, r6, lr}
100061fe:	0004      	movs	r4, r0
10006200:	000d      	movs	r5, r1
10006202:	f3ef 8610 	mrs	r6, PRIMASK
10006206:	b672      	cpsid	i
10006208:	4a1a      	ldr	r2, [pc, #104]	; (10006274 <hardware_alarm_set_callback+0x78>)
1000620a:	6813      	ldr	r3, [r2, #0]
1000620c:	2b00      	cmp	r3, #0
1000620e:	d0fc      	beq.n	1000620a <hardware_alarm_set_callback+0xe>
10006210:	f3bf 8f5f 	dmb	sy
10006214:	2d00      	cmp	r5, #0
10006216:	d01b      	beq.n	10006250 <hardware_alarm_set_callback+0x54>
10006218:	0020      	movs	r0, r4
1000621a:	f7ff f8e3 	bl	100053e4 <irq_get_vtable_handler>
1000621e:	4916      	ldr	r1, [pc, #88]	; (10006278 <hardware_alarm_set_callback+0x7c>)
10006220:	4281      	cmp	r1, r0
10006222:	d00a      	beq.n	1000623a <hardware_alarm_set_callback+0x3e>
10006224:	0020      	movs	r0, r4
10006226:	f7ff f8e5 	bl	100053f4 <irq_set_exclusive_handler>
1000622a:	2101      	movs	r1, #1
1000622c:	0020      	movs	r0, r4
1000622e:	f7ff f8a9 	bl	10005384 <irq_set_enabled>
10006232:	2301      	movs	r3, #1
10006234:	40a3      	lsls	r3, r4
10006236:	4a11      	ldr	r2, [pc, #68]	; (1000627c <hardware_alarm_set_callback+0x80>)
10006238:	6013      	str	r3, [r2, #0]
1000623a:	4b11      	ldr	r3, [pc, #68]	; (10006280 <hardware_alarm_set_callback+0x84>)
1000623c:	00a4      	lsls	r4, r4, #2
1000623e:	50e5      	str	r5, [r4, r3]
10006240:	f3bf 8f5f 	dmb	sy
10006244:	2200      	movs	r2, #0
10006246:	4b0b      	ldr	r3, [pc, #44]	; (10006274 <hardware_alarm_set_callback+0x78>)
10006248:	601a      	str	r2, [r3, #0]
1000624a:	f386 8810 	msr	PRIMASK, r6
1000624e:	bd70      	pop	{r4, r5, r6, pc}
10006250:	4b0b      	ldr	r3, [pc, #44]	; (10006280 <hardware_alarm_set_callback+0x84>)
10006252:	00a2      	lsls	r2, r4, #2
10006254:	50d5      	str	r5, [r2, r3]
10006256:	2201      	movs	r2, #1
10006258:	40a2      	lsls	r2, r4
1000625a:	490a      	ldr	r1, [pc, #40]	; (10006284 <hardware_alarm_set_callback+0x88>)
1000625c:	0020      	movs	r0, r4
1000625e:	780b      	ldrb	r3, [r1, #0]
10006260:	4393      	bics	r3, r2
10006262:	700b      	strb	r3, [r1, #0]
10006264:	4904      	ldr	r1, [pc, #16]	; (10006278 <hardware_alarm_set_callback+0x7c>)
10006266:	f7ff f9e1 	bl	1000562c <irq_remove_handler>
1000626a:	2100      	movs	r1, #0
1000626c:	0020      	movs	r0, r4
1000626e:	f7ff f889 	bl	10005384 <irq_set_enabled>
10006272:	e7e5      	b.n	10006240 <hardware_alarm_set_callback+0x44>
10006274:	d0000128 	.word	0xd0000128
10006278:	100060f9 	.word	0x100060f9
1000627c:	40056038 	.word	0x40056038
10006280:	20000f6c 	.word	0x20000f6c
10006284:	20027155 	.word	0x20027155

10006288 <hardware_alarm_set_target>:
10006288:	b5f0      	push	{r4, r5, r6, r7, lr}
1000628a:	464f      	mov	r7, r9
1000628c:	46d6      	mov	lr, sl
1000628e:	4646      	mov	r6, r8
10006290:	b5c0      	push	{r6, r7, lr}
10006292:	0007      	movs	r7, r0
10006294:	4c2f      	ldr	r4, [pc, #188]	; (10006354 <hardware_alarm_set_target+0xcc>)
10006296:	6a61      	ldr	r1, [r4, #36]	; 0x24
10006298:	000d      	movs	r5, r1
1000629a:	6aa6      	ldr	r6, [r4, #40]	; 0x28
1000629c:	6a61      	ldr	r1, [r4, #36]	; 0x24
1000629e:	42a9      	cmp	r1, r5
100062a0:	d1fa      	bne.n	10006298 <hardware_alarm_set_target+0x10>
100062a2:	428b      	cmp	r3, r1
100062a4:	d808      	bhi.n	100062b8 <hardware_alarm_set_target+0x30>
100062a6:	d005      	beq.n	100062b4 <hardware_alarm_set_target+0x2c>
100062a8:	2001      	movs	r0, #1
100062aa:	bce0      	pop	{r5, r6, r7}
100062ac:	46ba      	mov	sl, r7
100062ae:	46b1      	mov	r9, r6
100062b0:	46a8      	mov	r8, r5
100062b2:	bdf0      	pop	{r4, r5, r6, r7, pc}
100062b4:	42b2      	cmp	r2, r6
100062b6:	d9f7      	bls.n	100062a8 <hardware_alarm_set_target+0x20>
100062b8:	f3ef 8a10 	mrs	sl, PRIMASK
100062bc:	b672      	cpsid	i
100062be:	4826      	ldr	r0, [pc, #152]	; (10006358 <hardware_alarm_set_target+0xd0>)
100062c0:	6801      	ldr	r1, [r0, #0]
100062c2:	2900      	cmp	r1, #0
100062c4:	d0fc      	beq.n	100062c0 <hardware_alarm_set_target+0x38>
100062c6:	f3bf 8f5f 	dmb	sy
100062ca:	2501      	movs	r5, #1
100062cc:	40bd      	lsls	r5, r7
100062ce:	4923      	ldr	r1, [pc, #140]	; (1000635c <hardware_alarm_set_target+0xd4>)
100062d0:	4c20      	ldr	r4, [pc, #128]	; (10006354 <hardware_alarm_set_target+0xcc>)
100062d2:	4688      	mov	r8, r1
100062d4:	7809      	ldrb	r1, [r1, #0]
100062d6:	4689      	mov	r9, r1
100062d8:	4329      	orrs	r1, r5
100062da:	b2c9      	uxtb	r1, r1
100062dc:	468c      	mov	ip, r1
100062de:	4641      	mov	r1, r8
100062e0:	4660      	mov	r0, ip
100062e2:	7008      	strb	r0, [r1, #0]
100062e4:	1d39      	adds	r1, r7, #4
100062e6:	481e      	ldr	r0, [pc, #120]	; (10006360 <hardware_alarm_set_target+0xd8>)
100062e8:	0089      	lsls	r1, r1, #2
100062ea:	6365      	str	r5, [r4, #52]	; 0x34
100062ec:	510a      	str	r2, [r1, r4]
100062ee:	00b9      	lsls	r1, r7, #2
100062f0:	500b      	str	r3, [r1, r0]
100062f2:	6a21      	ldr	r1, [r4, #32]
100062f4:	2000      	movs	r0, #0
100062f6:	4229      	tst	r1, r5
100062f8:	d019      	beq.n	1000632e <hardware_alarm_set_target+0xa6>
100062fa:	6a61      	ldr	r1, [r4, #36]	; 0x24
100062fc:	0008      	movs	r0, r1
100062fe:	6aa6      	ldr	r6, [r4, #40]	; 0x28
10006300:	6a61      	ldr	r1, [r4, #36]	; 0x24
10006302:	4281      	cmp	r1, r0
10006304:	d1fa      	bne.n	100062fc <hardware_alarm_set_target+0x74>
10006306:	428b      	cmp	r3, r1
10006308:	d819      	bhi.n	1000633e <hardware_alarm_set_target+0xb6>
1000630a:	d101      	bne.n	10006310 <hardware_alarm_set_target+0x88>
1000630c:	42b2      	cmp	r2, r6
1000630e:	d816      	bhi.n	1000633e <hardware_alarm_set_target+0xb6>
10006310:	45cc      	cmp	ip, r9
10006312:	d01d      	beq.n	10006350 <hardware_alarm_set_target+0xc8>
10006314:	4b0f      	ldr	r3, [pc, #60]	; (10006354 <hardware_alarm_set_target+0xcc>)
10006316:	201f      	movs	r0, #31
10006318:	621d      	str	r5, [r3, #32]
1000631a:	635d      	str	r5, [r3, #52]	; 0x34
1000631c:	2301      	movs	r3, #1
1000631e:	4007      	ands	r7, r0
10006320:	40bb      	lsls	r3, r7
10006322:	4a10      	ldr	r2, [pc, #64]	; (10006364 <hardware_alarm_set_target+0xdc>)
10006324:	381e      	subs	r0, #30
10006326:	6013      	str	r3, [r2, #0]
10006328:	4643      	mov	r3, r8
1000632a:	464a      	mov	r2, r9
1000632c:	701a      	strb	r2, [r3, #0]
1000632e:	f3bf 8f5f 	dmb	sy
10006332:	2200      	movs	r2, #0
10006334:	4b08      	ldr	r3, [pc, #32]	; (10006358 <hardware_alarm_set_target+0xd0>)
10006336:	601a      	str	r2, [r3, #0]
10006338:	f38a 8810 	msr	PRIMASK, sl
1000633c:	e7b5      	b.n	100062aa <hardware_alarm_set_target+0x22>
1000633e:	2000      	movs	r0, #0
10006340:	f3bf 8f5f 	dmb	sy
10006344:	2200      	movs	r2, #0
10006346:	4b04      	ldr	r3, [pc, #16]	; (10006358 <hardware_alarm_set_target+0xd0>)
10006348:	601a      	str	r2, [r3, #0]
1000634a:	f38a 8810 	msr	PRIMASK, sl
1000634e:	e7ac      	b.n	100062aa <hardware_alarm_set_target+0x22>
10006350:	2001      	movs	r0, #1
10006352:	e7ec      	b.n	1000632e <hardware_alarm_set_target+0xa6>
10006354:	40054000 	.word	0x40054000
10006358:	d0000128 	.word	0xd0000128
1000635c:	20027155 	.word	0x20027155
10006360:	20027124 	.word	0x20027124
10006364:	e000e280 	.word	0xe000e280

10006368 <hardware_alarm_cancel>:
10006368:	f3ef 8c10 	mrs	ip, PRIMASK
1000636c:	b672      	cpsid	i
1000636e:	490a      	ldr	r1, [pc, #40]	; (10006398 <hardware_alarm_cancel+0x30>)
10006370:	680b      	ldr	r3, [r1, #0]
10006372:	2b00      	cmp	r3, #0
10006374:	d0fc      	beq.n	10006370 <hardware_alarm_cancel+0x8>
10006376:	f3bf 8f5f 	dmb	sy
1000637a:	2301      	movs	r3, #1
1000637c:	4083      	lsls	r3, r0
1000637e:	4a07      	ldr	r2, [pc, #28]	; (1000639c <hardware_alarm_cancel+0x34>)
10006380:	4807      	ldr	r0, [pc, #28]	; (100063a0 <hardware_alarm_cancel+0x38>)
10006382:	6213      	str	r3, [r2, #32]
10006384:	7802      	ldrb	r2, [r0, #0]
10006386:	439a      	bics	r2, r3
10006388:	7002      	strb	r2, [r0, #0]
1000638a:	f3bf 8f5f 	dmb	sy
1000638e:	2300      	movs	r3, #0
10006390:	600b      	str	r3, [r1, #0]
10006392:	f38c 8810 	msr	PRIMASK, ip
10006396:	4770      	bx	lr
10006398:	d0000128 	.word	0xd0000128
1000639c:	40054000 	.word	0x40054000
100063a0:	20027155 	.word	0x20027155

100063a4 <ph_merge_nodes>:
100063a4:	b570      	push	{r4, r5, r6, lr}
100063a6:	0005      	movs	r5, r0
100063a8:	0014      	movs	r4, r2
100063aa:	0016      	movs	r6, r2
100063ac:	2900      	cmp	r1, #0
100063ae:	d015      	beq.n	100063dc <ph_merge_nodes+0x38>
100063b0:	000c      	movs	r4, r1
100063b2:	2a00      	cmp	r2, #0
100063b4:	d012      	beq.n	100063dc <ph_merge_nodes+0x38>
100063b6:	6880      	ldr	r0, [r0, #8]
100063b8:	686b      	ldr	r3, [r5, #4]
100063ba:	4798      	blx	r3
100063bc:	6829      	ldr	r1, [r5, #0]
100063be:	2800      	cmp	r0, #0
100063c0:	d00e      	beq.n	100063e0 <ph_merge_nodes+0x3c>
100063c2:	0073      	lsls	r3, r6, #1
100063c4:	199b      	adds	r3, r3, r6
100063c6:	0062      	lsls	r2, r4, #1
100063c8:	3b03      	subs	r3, #3
100063ca:	1912      	adds	r2, r2, r4
100063cc:	18cb      	adds	r3, r1, r3
100063ce:	3a03      	subs	r2, #3
100063d0:	709c      	strb	r4, [r3, #2]
100063d2:	1888      	adds	r0, r1, r2
100063d4:	5c8a      	ldrb	r2, [r1, r2]
100063d6:	2a00      	cmp	r2, #0
100063d8:	d115      	bne.n	10006406 <ph_merge_nodes+0x62>
100063da:	7006      	strb	r6, [r0, #0]
100063dc:	0020      	movs	r0, r4
100063de:	bd70      	pop	{r4, r5, r6, pc}
100063e0:	0063      	lsls	r3, r4, #1
100063e2:	191b      	adds	r3, r3, r4
100063e4:	0072      	lsls	r2, r6, #1
100063e6:	3b03      	subs	r3, #3
100063e8:	1992      	adds	r2, r2, r6
100063ea:	18cb      	adds	r3, r1, r3
100063ec:	3a03      	subs	r2, #3
100063ee:	709e      	strb	r6, [r3, #2]
100063f0:	1888      	adds	r0, r1, r2
100063f2:	5c8a      	ldrb	r2, [r1, r2]
100063f4:	2a00      	cmp	r2, #0
100063f6:	d102      	bne.n	100063fe <ph_merge_nodes+0x5a>
100063f8:	7004      	strb	r4, [r0, #0]
100063fa:	0034      	movs	r4, r6
100063fc:	e7ee      	b.n	100063dc <ph_merge_nodes+0x38>
100063fe:	705a      	strb	r2, [r3, #1]
10006400:	7004      	strb	r4, [r0, #0]
10006402:	0034      	movs	r4, r6
10006404:	e7ea      	b.n	100063dc <ph_merge_nodes+0x38>
10006406:	705a      	strb	r2, [r3, #1]
10006408:	7006      	strb	r6, [r0, #0]
1000640a:	e7e7      	b.n	100063dc <ph_merge_nodes+0x38>

1000640c <ph_post_alloc_init>:
1000640c:	b530      	push	{r4, r5, lr}
1000640e:	6083      	str	r3, [r0, #8]
10006410:	2300      	movs	r3, #0
10006412:	b2cc      	uxtb	r4, r1
10006414:	7343      	strb	r3, [r0, #13]
10006416:	3301      	adds	r3, #1
10006418:	7304      	strb	r4, [r0, #12]
1000641a:	6042      	str	r2, [r0, #4]
1000641c:	7383      	strb	r3, [r0, #14]
1000641e:	73c4      	strb	r4, [r0, #15]
10006420:	000d      	movs	r5, r1
10006422:	6800      	ldr	r0, [r0, #0]
10006424:	2c01      	cmp	r4, #1
10006426:	d906      	bls.n	10006436 <ph_post_alloc_init+0x2a>
10006428:	1c42      	adds	r2, r0, #1
1000642a:	3301      	adds	r3, #1
1000642c:	b2db      	uxtb	r3, r3
1000642e:	7013      	strb	r3, [r2, #0]
10006430:	3203      	adds	r2, #3
10006432:	429c      	cmp	r4, r3
10006434:	d1f9      	bne.n	1000642a <ph_post_alloc_init+0x1e>
10006436:	21ff      	movs	r1, #255	; 0xff
10006438:	4029      	ands	r1, r5
1000643a:	004b      	lsls	r3, r1, #1
1000643c:	1859      	adds	r1, r3, r1
1000643e:	2300      	movs	r3, #0
10006440:	1840      	adds	r0, r0, r1
10006442:	3803      	subs	r0, #3
10006444:	7043      	strb	r3, [r0, #1]
10006446:	bd30      	pop	{r4, r5, pc}

10006448 <ph_merge_two_pass>:
10006448:	b5f8      	push	{r3, r4, r5, r6, r7, lr}
1000644a:	46ce      	mov	lr, r9
1000644c:	4647      	mov	r7, r8
1000644e:	0006      	movs	r6, r0
10006450:	000c      	movs	r4, r1
10006452:	b580      	push	{r7, lr}
10006454:	2900      	cmp	r1, #0
10006456:	d007      	beq.n	10006468 <ph_merge_two_pass+0x20>
10006458:	004d      	lsls	r5, r1, #1
1000645a:	6803      	ldr	r3, [r0, #0]
1000645c:	186d      	adds	r5, r5, r1
1000645e:	3d03      	subs	r5, #3
10006460:	195a      	adds	r2, r3, r5
10006462:	7857      	ldrb	r7, [r2, #1]
10006464:	2f00      	cmp	r7, #0
10006466:	d104      	bne.n	10006472 <ph_merge_two_pass+0x2a>
10006468:	0020      	movs	r0, r4
1000646a:	bcc0      	pop	{r6, r7}
1000646c:	46b9      	mov	r9, r7
1000646e:	46b0      	mov	r8, r6
10006470:	bdf8      	pop	{r3, r4, r5, r6, r7, pc}
10006472:	0079      	lsls	r1, r7, #1
10006474:	19c9      	adds	r1, r1, r7
10006476:	3903      	subs	r1, #3
10006478:	4688      	mov	r8, r1
1000647a:	4443      	add	r3, r8
1000647c:	7859      	ldrb	r1, [r3, #1]
1000647e:	4689      	mov	r9, r1
10006480:	2100      	movs	r1, #0
10006482:	7059      	strb	r1, [r3, #1]
10006484:	7051      	strb	r1, [r2, #1]
10006486:	6873      	ldr	r3, [r6, #4]
10006488:	003a      	movs	r2, r7
1000648a:	0021      	movs	r1, r4
1000648c:	6880      	ldr	r0, [r0, #8]
1000648e:	4798      	blx	r3
10006490:	6833      	ldr	r3, [r6, #0]
10006492:	2800      	cmp	r0, #0
10006494:	d014      	beq.n	100064c0 <ph_merge_two_pass+0x78>
10006496:	4642      	mov	r2, r8
10006498:	189a      	adds	r2, r3, r2
1000649a:	7094      	strb	r4, [r2, #2]
1000649c:	1959      	adds	r1, r3, r5
1000649e:	5d5b      	ldrb	r3, [r3, r5]
100064a0:	2b00      	cmp	r3, #0
100064a2:	d000      	beq.n	100064a6 <ph_merge_two_pass+0x5e>
100064a4:	7053      	strb	r3, [r2, #1]
100064a6:	700f      	strb	r7, [r1, #0]
100064a8:	0027      	movs	r7, r4
100064aa:	4649      	mov	r1, r9
100064ac:	0030      	movs	r0, r6
100064ae:	f7ff ffcb 	bl	10006448 <ph_merge_two_pass>
100064b2:	0039      	movs	r1, r7
100064b4:	0002      	movs	r2, r0
100064b6:	0030      	movs	r0, r6
100064b8:	f7ff ff74 	bl	100063a4 <ph_merge_nodes>
100064bc:	0004      	movs	r4, r0
100064be:	e7d3      	b.n	10006468 <ph_merge_two_pass+0x20>
100064c0:	4642      	mov	r2, r8
100064c2:	4641      	mov	r1, r8
100064c4:	195d      	adds	r5, r3, r5
100064c6:	70af      	strb	r7, [r5, #2]
100064c8:	189a      	adds	r2, r3, r2
100064ca:	5c5b      	ldrb	r3, [r3, r1]
100064cc:	2b00      	cmp	r3, #0
100064ce:	d000      	beq.n	100064d2 <ph_merge_two_pass+0x8a>
100064d0:	706b      	strb	r3, [r5, #1]
100064d2:	7014      	strb	r4, [r2, #0]
100064d4:	e7e9      	b.n	100064aa <ph_merge_two_pass+0x62>
100064d6:	46c0      	nop			; (mov r8, r8)

100064d8 <ph_remove_any_head>:
100064d8:	b5f0      	push	{r4, r5, r6, r7, lr}
100064da:	4657      	mov	r7, sl
100064dc:	4645      	mov	r5, r8
100064de:	46de      	mov	lr, fp
100064e0:	464e      	mov	r6, r9
100064e2:	b5e0      	push	{r5, r6, r7, lr}
100064e4:	000d      	movs	r5, r1
100064e6:	006b      	lsls	r3, r5, #1
100064e8:	6801      	ldr	r1, [r0, #0]
100064ea:	195b      	adds	r3, r3, r5
100064ec:	1edf      	subs	r7, r3, #3
100064ee:	0004      	movs	r4, r0
100064f0:	5dc8      	ldrb	r0, [r1, r7]
100064f2:	b083      	sub	sp, #12
100064f4:	9201      	str	r2, [sp, #4]
100064f6:	19ca      	adds	r2, r1, r7
100064f8:	2800      	cmp	r0, #0
100064fa:	d04c      	beq.n	10006596 <ph_remove_any_head+0xbe>
100064fc:	0043      	lsls	r3, r0, #1
100064fe:	181b      	adds	r3, r3, r0
10006500:	3b03      	subs	r3, #3
10006502:	18cb      	adds	r3, r1, r3
10006504:	785e      	ldrb	r6, [r3, #1]
10006506:	46b4      	mov	ip, r6
10006508:	2e00      	cmp	r6, #0
1000650a:	d116      	bne.n	1000653a <ph_remove_any_head+0x62>
1000650c:	9e01      	ldr	r6, [sp, #4]
1000650e:	2e00      	cmp	r6, #0
10006510:	d03e      	beq.n	10006590 <ph_remove_any_head+0xb8>
10006512:	7be6      	ldrb	r6, [r4, #15]
10006514:	2e00      	cmp	r6, #0
10006516:	d004      	beq.n	10006522 <ph_remove_any_head+0x4a>
10006518:	0073      	lsls	r3, r6, #1
1000651a:	199b      	adds	r3, r3, r6
1000651c:	18cb      	adds	r3, r1, r3
1000651e:	3b03      	subs	r3, #3
10006520:	705d      	strb	r5, [r3, #1]
10006522:	73e5      	strb	r5, [r4, #15]
10006524:	2800      	cmp	r0, #0
10006526:	d12f      	bne.n	10006588 <ph_remove_any_head+0xb0>
10006528:	2300      	movs	r3, #0
1000652a:	7053      	strb	r3, [r2, #1]
1000652c:	b003      	add	sp, #12
1000652e:	bcf0      	pop	{r4, r5, r6, r7}
10006530:	46bb      	mov	fp, r7
10006532:	46b2      	mov	sl, r6
10006534:	46a9      	mov	r9, r5
10006536:	46a0      	mov	r8, r4
10006538:	bdf0      	pop	{r4, r5, r6, r7, pc}
1000653a:	0072      	lsls	r2, r6, #1
1000653c:	4462      	add	r2, ip
1000653e:	3a03      	subs	r2, #3
10006540:	1889      	adds	r1, r1, r2
10006542:	784a      	ldrb	r2, [r1, #1]
10006544:	4690      	mov	r8, r2
10006546:	2200      	movs	r2, #0
10006548:	704a      	strb	r2, [r1, #1]
1000654a:	4691      	mov	r9, r2
1000654c:	705a      	strb	r2, [r3, #1]
1000654e:	0001      	movs	r1, r0
10006550:	0032      	movs	r2, r6
10006552:	0020      	movs	r0, r4
10006554:	f7ff ff26 	bl	100063a4 <ph_merge_nodes>
10006558:	4643      	mov	r3, r8
1000655a:	4682      	mov	sl, r0
1000655c:	2b00      	cmp	r3, #0
1000655e:	d007      	beq.n	10006570 <ph_remove_any_head+0x98>
10006560:	005b      	lsls	r3, r3, #1
10006562:	6821      	ldr	r1, [r4, #0]
10006564:	4443      	add	r3, r8
10006566:	3b03      	subs	r3, #3
10006568:	18cb      	adds	r3, r1, r3
1000656a:	785a      	ldrb	r2, [r3, #1]
1000656c:	2a00      	cmp	r2, #0
1000656e:	d116      	bne.n	1000659e <ph_remove_any_head+0xc6>
10006570:	4642      	mov	r2, r8
10006572:	4651      	mov	r1, sl
10006574:	0020      	movs	r0, r4
10006576:	f7ff ff15 	bl	100063a4 <ph_merge_nodes>
1000657a:	6821      	ldr	r1, [r4, #0]
1000657c:	9b01      	ldr	r3, [sp, #4]
1000657e:	19ca      	adds	r2, r1, r7
10006580:	2b00      	cmp	r3, #0
10006582:	d1c6      	bne.n	10006512 <ph_remove_any_head+0x3a>
10006584:	2800      	cmp	r0, #0
10006586:	d0cf      	beq.n	10006528 <ph_remove_any_head+0x50>
10006588:	0043      	lsls	r3, r0, #1
1000658a:	181b      	adds	r3, r3, r0
1000658c:	3b03      	subs	r3, #3
1000658e:	18cb      	adds	r3, r1, r3
10006590:	2100      	movs	r1, #0
10006592:	7099      	strb	r1, [r3, #2]
10006594:	e7c8      	b.n	10006528 <ph_remove_any_head+0x50>
10006596:	9b01      	ldr	r3, [sp, #4]
10006598:	2b00      	cmp	r3, #0
1000659a:	d1ba      	bne.n	10006512 <ph_remove_any_head+0x3a>
1000659c:	e7c4      	b.n	10006528 <ph_remove_any_head+0x50>
1000659e:	0050      	lsls	r0, r2, #1
100065a0:	1880      	adds	r0, r0, r2
100065a2:	3803      	subs	r0, #3
100065a4:	1809      	adds	r1, r1, r0
100065a6:	7848      	ldrb	r0, [r1, #1]
100065a8:	4683      	mov	fp, r0
100065aa:	4648      	mov	r0, r9
100065ac:	7048      	strb	r0, [r1, #1]
100065ae:	7058      	strb	r0, [r3, #1]
100065b0:	4641      	mov	r1, r8
100065b2:	0020      	movs	r0, r4
100065b4:	f7ff fef6 	bl	100063a4 <ph_merge_nodes>
100065b8:	4659      	mov	r1, fp
100065ba:	4680      	mov	r8, r0
100065bc:	0020      	movs	r0, r4
100065be:	f7ff ff43 	bl	10006448 <ph_merge_two_pass>
100065c2:	4641      	mov	r1, r8
100065c4:	0002      	movs	r2, r0
100065c6:	0020      	movs	r0, r4
100065c8:	f7ff feec 	bl	100063a4 <ph_merge_nodes>
100065cc:	4680      	mov	r8, r0
100065ce:	e7cf      	b.n	10006570 <ph_remove_any_head+0x98>

100065d0 <ph_remove_head>:
100065d0:	b5f0      	push	{r4, r5, r6, r7, lr}
100065d2:	4657      	mov	r7, sl
100065d4:	4645      	mov	r5, r8
100065d6:	46de      	mov	lr, fp
100065d8:	464e      	mov	r6, r9
100065da:	b5e0      	push	{r5, r6, r7, lr}
100065dc:	b083      	sub	sp, #12
100065de:	9101      	str	r1, [sp, #4]
100065e0:	7b45      	ldrb	r5, [r0, #13]
100065e2:	0004      	movs	r4, r0
100065e4:	006b      	lsls	r3, r5, #1
100065e6:	6800      	ldr	r0, [r0, #0]
100065e8:	195b      	adds	r3, r3, r5
100065ea:	1edf      	subs	r7, r3, #3
100065ec:	5dc1      	ldrb	r1, [r0, r7]
100065ee:	19c2      	adds	r2, r0, r7
100065f0:	2900      	cmp	r1, #0
100065f2:	d04e      	beq.n	10006692 <ph_remove_head+0xc2>
100065f4:	004b      	lsls	r3, r1, #1
100065f6:	185b      	adds	r3, r3, r1
100065f8:	3b03      	subs	r3, #3
100065fa:	18c3      	adds	r3, r0, r3
100065fc:	785e      	ldrb	r6, [r3, #1]
100065fe:	46b4      	mov	ip, r6
10006600:	2e00      	cmp	r6, #0
10006602:	d118      	bne.n	10006636 <ph_remove_head+0x66>
10006604:	9e01      	ldr	r6, [sp, #4]
10006606:	2e00      	cmp	r6, #0
10006608:	d040      	beq.n	1000668c <ph_remove_head+0xbc>
1000660a:	7be6      	ldrb	r6, [r4, #15]
1000660c:	2e00      	cmp	r6, #0
1000660e:	d004      	beq.n	1000661a <ph_remove_head+0x4a>
10006610:	0073      	lsls	r3, r6, #1
10006612:	199b      	adds	r3, r3, r6
10006614:	18c3      	adds	r3, r0, r3
10006616:	3b03      	subs	r3, #3
10006618:	705d      	strb	r5, [r3, #1]
1000661a:	73e5      	strb	r5, [r4, #15]
1000661c:	2900      	cmp	r1, #0
1000661e:	d131      	bne.n	10006684 <ph_remove_head+0xb4>
10006620:	2300      	movs	r3, #0
10006622:	0028      	movs	r0, r5
10006624:	7053      	strb	r3, [r2, #1]
10006626:	7361      	strb	r1, [r4, #13]
10006628:	b003      	add	sp, #12
1000662a:	bcf0      	pop	{r4, r5, r6, r7}
1000662c:	46bb      	mov	fp, r7
1000662e:	46b2      	mov	sl, r6
10006630:	46a9      	mov	r9, r5
10006632:	46a0      	mov	r8, r4
10006634:	bdf0      	pop	{r4, r5, r6, r7, pc}
10006636:	0072      	lsls	r2, r6, #1
10006638:	4462      	add	r2, ip
1000663a:	3a03      	subs	r2, #3
1000663c:	1880      	adds	r0, r0, r2
1000663e:	7842      	ldrb	r2, [r0, #1]
10006640:	4690      	mov	r8, r2
10006642:	2200      	movs	r2, #0
10006644:	7042      	strb	r2, [r0, #1]
10006646:	4691      	mov	r9, r2
10006648:	705a      	strb	r2, [r3, #1]
1000664a:	0020      	movs	r0, r4
1000664c:	0032      	movs	r2, r6
1000664e:	f7ff fea9 	bl	100063a4 <ph_merge_nodes>
10006652:	4643      	mov	r3, r8
10006654:	4682      	mov	sl, r0
10006656:	2b00      	cmp	r3, #0
10006658:	d007      	beq.n	1000666a <ph_remove_head+0x9a>
1000665a:	005b      	lsls	r3, r3, #1
1000665c:	6821      	ldr	r1, [r4, #0]
1000665e:	4443      	add	r3, r8
10006660:	3b03      	subs	r3, #3
10006662:	18cb      	adds	r3, r1, r3
10006664:	785a      	ldrb	r2, [r3, #1]
10006666:	2a00      	cmp	r2, #0
10006668:	d117      	bne.n	1000669a <ph_remove_head+0xca>
1000666a:	4642      	mov	r2, r8
1000666c:	4651      	mov	r1, sl
1000666e:	0020      	movs	r0, r4
10006670:	f7ff fe98 	bl	100063a4 <ph_merge_nodes>
10006674:	9b01      	ldr	r3, [sp, #4]
10006676:	0001      	movs	r1, r0
10006678:	6820      	ldr	r0, [r4, #0]
1000667a:	19c2      	adds	r2, r0, r7
1000667c:	2b00      	cmp	r3, #0
1000667e:	d1c4      	bne.n	1000660a <ph_remove_head+0x3a>
10006680:	2900      	cmp	r1, #0
10006682:	d0cd      	beq.n	10006620 <ph_remove_head+0x50>
10006684:	004b      	lsls	r3, r1, #1
10006686:	185b      	adds	r3, r3, r1
10006688:	3b03      	subs	r3, #3
1000668a:	18c3      	adds	r3, r0, r3
1000668c:	2000      	movs	r0, #0
1000668e:	7098      	strb	r0, [r3, #2]
10006690:	e7c6      	b.n	10006620 <ph_remove_head+0x50>
10006692:	9b01      	ldr	r3, [sp, #4]
10006694:	2b00      	cmp	r3, #0
10006696:	d1b8      	bne.n	1000660a <ph_remove_head+0x3a>
10006698:	e7c2      	b.n	10006620 <ph_remove_head+0x50>
1000669a:	0050      	lsls	r0, r2, #1
1000669c:	1880      	adds	r0, r0, r2
1000669e:	3803      	subs	r0, #3
100066a0:	1809      	adds	r1, r1, r0
100066a2:	7848      	ldrb	r0, [r1, #1]
100066a4:	4683      	mov	fp, r0
100066a6:	4648      	mov	r0, r9
100066a8:	7048      	strb	r0, [r1, #1]
100066aa:	7058      	strb	r0, [r3, #1]
100066ac:	4641      	mov	r1, r8
100066ae:	0020      	movs	r0, r4
100066b0:	f7ff fe78 	bl	100063a4 <ph_merge_nodes>
100066b4:	4659      	mov	r1, fp
100066b6:	4680      	mov	r8, r0
100066b8:	0020      	movs	r0, r4
100066ba:	f7ff fec5 	bl	10006448 <ph_merge_two_pass>
100066be:	4641      	mov	r1, r8
100066c0:	0002      	movs	r2, r0
100066c2:	0020      	movs	r0, r4
100066c4:	f7ff fe6e 	bl	100063a4 <ph_merge_nodes>
100066c8:	4680      	mov	r8, r0
100066ca:	e7ce      	b.n	1000666a <ph_remove_head+0x9a>

100066cc <ph_remove_and_free_node>:
100066cc:	b570      	push	{r4, r5, r6, lr}
100066ce:	0004      	movs	r4, r0
100066d0:	2900      	cmp	r1, #0
100066d2:	d02c      	beq.n	1000672e <ph_remove_and_free_node+0x62>
100066d4:	7b43      	ldrb	r3, [r0, #13]
100066d6:	428b      	cmp	r3, r1
100066d8:	d02e      	beq.n	10006738 <ph_remove_and_free_node+0x6c>
100066da:	6805      	ldr	r5, [r0, #0]
100066dc:	0048      	lsls	r0, r1, #1
100066de:	1840      	adds	r0, r0, r1
100066e0:	3803      	subs	r0, #3
100066e2:	1828      	adds	r0, r5, r0
100066e4:	7882      	ldrb	r2, [r0, #2]
100066e6:	2a00      	cmp	r2, #0
100066e8:	d021      	beq.n	1000672e <ph_remove_and_free_node+0x62>
100066ea:	0053      	lsls	r3, r2, #1
100066ec:	189b      	adds	r3, r3, r2
100066ee:	3b03      	subs	r3, #3
100066f0:	5cea      	ldrb	r2, [r5, r3]
100066f2:	18ee      	adds	r6, r5, r3
100066f4:	428a      	cmp	r2, r1
100066f6:	d102      	bne.n	100066fe <ph_remove_and_free_node+0x32>
100066f8:	e01b      	b.n	10006732 <ph_remove_and_free_node+0x66>
100066fa:	2a00      	cmp	r2, #0
100066fc:	d008      	beq.n	10006710 <ph_remove_and_free_node+0x44>
100066fe:	0053      	lsls	r3, r2, #1
10006700:	189b      	adds	r3, r3, r2
10006702:	3b03      	subs	r3, #3
10006704:	18eb      	adds	r3, r5, r3
10006706:	785a      	ldrb	r2, [r3, #1]
10006708:	428a      	cmp	r2, r1
1000670a:	d1f6      	bne.n	100066fa <ph_remove_and_free_node+0x2e>
1000670c:	7842      	ldrb	r2, [r0, #1]
1000670e:	705a      	strb	r2, [r3, #1]
10006710:	2300      	movs	r3, #0
10006712:	2201      	movs	r2, #1
10006714:	7083      	strb	r3, [r0, #2]
10006716:	7043      	strb	r3, [r0, #1]
10006718:	0020      	movs	r0, r4
1000671a:	f7ff fedd 	bl	100064d8 <ph_remove_any_head>
1000671e:	7b61      	ldrb	r1, [r4, #13]
10006720:	0002      	movs	r2, r0
10006722:	0020      	movs	r0, r4
10006724:	f7ff fe3e 	bl	100063a4 <ph_merge_nodes>
10006728:	7360      	strb	r0, [r4, #13]
1000672a:	2001      	movs	r0, #1
1000672c:	e000      	b.n	10006730 <ph_remove_and_free_node+0x64>
1000672e:	2000      	movs	r0, #0
10006730:	bd70      	pop	{r4, r5, r6, pc}
10006732:	7843      	ldrb	r3, [r0, #1]
10006734:	7033      	strb	r3, [r6, #0]
10006736:	e7eb      	b.n	10006710 <ph_remove_and_free_node+0x44>
10006738:	2201      	movs	r2, #1
1000673a:	0019      	movs	r1, r3
1000673c:	f7ff fecc 	bl	100064d8 <ph_remove_any_head>
10006740:	7360      	strb	r0, [r4, #13]
10006742:	2001      	movs	r0, #1
10006744:	e7f4      	b.n	10006730 <ph_remove_and_free_node+0x64>
10006746:	46c0      	nop			; (mov r8, r8)

10006748 <mutex_init>:
10006748:	b510      	push	{r4, lr}
1000674a:	0004      	movs	r4, r0
1000674c:	f7fe fdb0 	bl	100052b0 <next_striped_spin_lock_num>
10006750:	0001      	movs	r1, r0
10006752:	0020      	movs	r0, r4
10006754:	f7ff f8c8 	bl	100058e8 <lock_init>
10006758:	23ff      	movs	r3, #255	; 0xff
1000675a:	7123      	strb	r3, [r4, #4]
1000675c:	f3bf 8f5f 	dmb	sy
10006760:	bd10      	pop	{r4, pc}
10006762:	46c0      	nop			; (mov r8, r8)

10006764 <recursive_mutex_init>:
10006764:	b510      	push	{r4, lr}
10006766:	0004      	movs	r4, r0
10006768:	f7fe fda2 	bl	100052b0 <next_striped_spin_lock_num>
1000676c:	0001      	movs	r1, r0
1000676e:	0020      	movs	r0, r4
10006770:	f7ff f8ba 	bl	100058e8 <lock_init>
10006774:	23ff      	movs	r3, #255	; 0xff
10006776:	80a3      	strh	r3, [r4, #4]
10006778:	f3bf 8f5f 	dmb	sy
1000677c:	bd10      	pop	{r4, pc}
1000677e:	46c0      	nop			; (mov r8, r8)

10006780 <critical_section_init>:
10006780:	b510      	push	{r4, lr}
10006782:	0004      	movs	r4, r0
10006784:	2001      	movs	r0, #1
10006786:	f7fe fd9f 	bl	100052c8 <spin_lock_claim_unused>
1000678a:	4b04      	ldr	r3, [pc, #16]	; (1000679c <critical_section_init+0x1c>)
1000678c:	469c      	mov	ip, r3
1000678e:	4460      	add	r0, ip
10006790:	0080      	lsls	r0, r0, #2
10006792:	6020      	str	r0, [r4, #0]
10006794:	f3bf 8f5f 	dmb	sy
10006798:	bd10      	pop	{r4, pc}
1000679a:	46c0      	nop			; (mov r8, r8)
1000679c:	34000040 	.word	0x34000040

100067a0 <pll_init>:
100067a0:	b5f0      	push	{r4, r5, r6, r7, lr}
100067a2:	46c6      	mov	lr, r8
100067a4:	0004      	movs	r4, r0
100067a6:	b500      	push	{lr}
100067a8:	200c      	movs	r0, #12
100067aa:	4690      	mov	r8, r2
100067ac:	001f      	movs	r7, r3
100067ae:	000e      	movs	r6, r1
100067b0:	f001 fd8a 	bl	100082c8 <__wrap___aeabi_uidiv>
100067b4:	0141      	lsls	r1, r0, #5
100067b6:	1a09      	subs	r1, r1, r0
100067b8:	018d      	lsls	r5, r1, #6
100067ba:	1a69      	subs	r1, r5, r1
100067bc:	00c9      	lsls	r1, r1, #3
100067be:	1809      	adds	r1, r1, r0
100067c0:	0189      	lsls	r1, r1, #6
100067c2:	4640      	mov	r0, r8
100067c4:	f001 fd80 	bl	100082c8 <__wrap___aeabi_uidiv>
100067c8:	9b06      	ldr	r3, [sp, #24]
100067ca:	043f      	lsls	r7, r7, #16
100067cc:	031a      	lsls	r2, r3, #12
100067ce:	6823      	ldr	r3, [r4, #0]
100067d0:	4317      	orrs	r7, r2
100067d2:	2b00      	cmp	r3, #0
100067d4:	db22      	blt.n	1000681c <pll_init+0x7c>
100067d6:	4b1a      	ldr	r3, [pc, #104]	; (10006840 <pll_init+0xa0>)
100067d8:	4d1a      	ldr	r5, [pc, #104]	; (10006844 <pll_init+0xa4>)
100067da:	18e2      	adds	r2, r4, r3
100067dc:	4253      	negs	r3, r2
100067de:	415a      	adcs	r2, r3
100067e0:	2380      	movs	r3, #128	; 0x80
100067e2:	015b      	lsls	r3, r3, #5
100067e4:	469c      	mov	ip, r3
100067e6:	0312      	lsls	r2, r2, #12
100067e8:	4b17      	ldr	r3, [pc, #92]	; (10006848 <pll_init+0xa8>)
100067ea:	4462      	add	r2, ip
100067ec:	601a      	str	r2, [r3, #0]
100067ee:	4b17      	ldr	r3, [pc, #92]	; (1000684c <pll_init+0xac>)
100067f0:	601a      	str	r2, [r3, #0]
100067f2:	0011      	movs	r1, r2
100067f4:	68ab      	ldr	r3, [r5, #8]
100067f6:	4399      	bics	r1, r3
100067f8:	d1fb      	bne.n	100067f2 <pll_init+0x52>
100067fa:	22c0      	movs	r2, #192	; 0xc0
100067fc:	1d23      	adds	r3, r4, #4
100067fe:	0192      	lsls	r2, r2, #6
10006800:	431a      	orrs	r2, r3
10006802:	2321      	movs	r3, #33	; 0x21
10006804:	6026      	str	r6, [r4, #0]
10006806:	60a0      	str	r0, [r4, #8]
10006808:	6013      	str	r3, [r2, #0]
1000680a:	6823      	ldr	r3, [r4, #0]
1000680c:	2b00      	cmp	r3, #0
1000680e:	dafc      	bge.n	1000680a <pll_init+0x6a>
10006810:	2308      	movs	r3, #8
10006812:	60e7      	str	r7, [r4, #12]
10006814:	6013      	str	r3, [r2, #0]
10006816:	bc80      	pop	{r7}
10006818:	46b8      	mov	r8, r7
1000681a:	bdf0      	pop	{r4, r5, r6, r7, pc}
1000681c:	233f      	movs	r3, #63	; 0x3f
1000681e:	6822      	ldr	r2, [r4, #0]
10006820:	4013      	ands	r3, r2
10006822:	42b3      	cmp	r3, r6
10006824:	d1d7      	bne.n	100067d6 <pll_init+0x36>
10006826:	68a3      	ldr	r3, [r4, #8]
10006828:	051b      	lsls	r3, r3, #20
1000682a:	0d1b      	lsrs	r3, r3, #20
1000682c:	4283      	cmp	r3, r0
1000682e:	d1d2      	bne.n	100067d6 <pll_init+0x36>
10006830:	22ee      	movs	r2, #238	; 0xee
10006832:	68e3      	ldr	r3, [r4, #12]
10006834:	02d2      	lsls	r2, r2, #11
10006836:	4013      	ands	r3, r2
10006838:	42bb      	cmp	r3, r7
1000683a:	d1cc      	bne.n	100067d6 <pll_init+0x36>
1000683c:	e7eb      	b.n	10006816 <pll_init+0x76>
1000683e:	46c0      	nop			; (mov r8, r8)
10006840:	bffd4000 	.word	0xbffd4000
10006844:	4000c000 	.word	0x4000c000
10006848:	4000e000 	.word	0x4000e000
1000684c:	4000f000 	.word	0x4000f000

10006850 <watchdog_start_tick>:
10006850:	2380      	movs	r3, #128	; 0x80
10006852:	4a02      	ldr	r2, [pc, #8]	; (1000685c <watchdog_start_tick+0xc>)
10006854:	009b      	lsls	r3, r3, #2
10006856:	4303      	orrs	r3, r0
10006858:	62d3      	str	r3, [r2, #44]	; 0x2c
1000685a:	4770      	bx	lr
1000685c:	40058000 	.word	0x40058000

10006860 <watchdog_reboot>:
10006860:	b510      	push	{r4, lr}
10006862:	0014      	movs	r4, r2
10006864:	2280      	movs	r2, #128	; 0x80
10006866:	4b1b      	ldr	r3, [pc, #108]	; (100068d4 <watchdog_reboot+0x74>)
10006868:	05d2      	lsls	r2, r2, #23
1000686a:	601a      	str	r2, [r3, #0]
1000686c:	2800      	cmp	r0, #0
1000686e:	d01a      	beq.n	100068a6 <watchdog_reboot+0x46>
10006870:	2301      	movs	r3, #1
10006872:	4a19      	ldr	r2, [pc, #100]	; (100068d8 <watchdog_reboot+0x78>)
10006874:	4318      	orrs	r0, r3
10006876:	4b19      	ldr	r3, [pc, #100]	; (100068dc <watchdog_reboot+0x7c>)
10006878:	61da      	str	r2, [r3, #28]
1000687a:	4a19      	ldr	r2, [pc, #100]	; (100068e0 <watchdog_reboot+0x80>)
1000687c:	4042      	eors	r2, r0
1000687e:	621a      	str	r2, [r3, #32]
10006880:	6259      	str	r1, [r3, #36]	; 0x24
10006882:	6298      	str	r0, [r3, #40]	; 0x28
10006884:	2280      	movs	r2, #128	; 0x80
10006886:	4b13      	ldr	r3, [pc, #76]	; (100068d4 <watchdog_reboot+0x74>)
10006888:	05d2      	lsls	r2, r2, #23
1000688a:	601a      	str	r2, [r3, #0]
1000688c:	4915      	ldr	r1, [pc, #84]	; (100068e4 <watchdog_reboot+0x84>)
1000688e:	4a16      	ldr	r2, [pc, #88]	; (100068e8 <watchdog_reboot+0x88>)
10006890:	6011      	str	r1, [r2, #0]
10006892:	22e0      	movs	r2, #224	; 0xe0
10006894:	04d2      	lsls	r2, r2, #19
10006896:	601a      	str	r2, [r3, #0]
10006898:	2c00      	cmp	r4, #0
1000689a:	d107      	bne.n	100068ac <watchdog_reboot+0x4c>
1000689c:	2280      	movs	r2, #128	; 0x80
1000689e:	4b13      	ldr	r3, [pc, #76]	; (100068ec <watchdog_reboot+0x8c>)
100068a0:	0612      	lsls	r2, r2, #24
100068a2:	601a      	str	r2, [r3, #0]
100068a4:	bd10      	pop	{r4, pc}
100068a6:	4b0d      	ldr	r3, [pc, #52]	; (100068dc <watchdog_reboot+0x7c>)
100068a8:	61d8      	str	r0, [r3, #28]
100068aa:	e7eb      	b.n	10006884 <watchdog_reboot+0x24>
100068ac:	0163      	lsls	r3, r4, #5
100068ae:	1b1b      	subs	r3, r3, r4
100068b0:	009a      	lsls	r2, r3, #2
100068b2:	2380      	movs	r3, #128	; 0x80
100068b4:	1912      	adds	r2, r2, r4
100068b6:	0112      	lsls	r2, r2, #4
100068b8:	045b      	lsls	r3, r3, #17
100068ba:	429a      	cmp	r2, r3
100068bc:	d300      	bcc.n	100068c0 <watchdog_reboot+0x60>
100068be:	4a0c      	ldr	r2, [pc, #48]	; (100068f0 <watchdog_reboot+0x90>)
100068c0:	4b0c      	ldr	r3, [pc, #48]	; (100068f4 <watchdog_reboot+0x94>)
100068c2:	601a      	str	r2, [r3, #0]
100068c4:	4b05      	ldr	r3, [pc, #20]	; (100068dc <watchdog_reboot+0x7c>)
100068c6:	605a      	str	r2, [r3, #4]
100068c8:	2280      	movs	r2, #128	; 0x80
100068ca:	4b08      	ldr	r3, [pc, #32]	; (100068ec <watchdog_reboot+0x8c>)
100068cc:	05d2      	lsls	r2, r2, #23
100068ce:	601a      	str	r2, [r3, #0]
100068d0:	e7e8      	b.n	100068a4 <watchdog_reboot+0x44>
100068d2:	46c0      	nop			; (mov r8, r8)
100068d4:	4005b000 	.word	0x4005b000
100068d8:	b007c0d3 	.word	0xb007c0d3
100068dc:	40058000 	.word	0x40058000
100068e0:	4ff83f2d 	.word	0x4ff83f2d
100068e4:	0001fffc 	.word	0x0001fffc
100068e8:	40012008 	.word	0x40012008
100068ec:	4005a000 	.word	0x4005a000
100068f0:	00ffffff 	.word	0x00ffffff
100068f4:	20001630 	.word	0x20001630

100068f8 <xosc_init>:
100068f8:	23aa      	movs	r3, #170	; 0xaa
100068fa:	4a06      	ldr	r2, [pc, #24]	; (10006914 <xosc_init+0x1c>)
100068fc:	011b      	lsls	r3, r3, #4
100068fe:	6013      	str	r3, [r2, #0]
10006900:	232f      	movs	r3, #47	; 0x2f
10006902:	4905      	ldr	r1, [pc, #20]	; (10006918 <xosc_init+0x20>)
10006904:	60d3      	str	r3, [r2, #12]
10006906:	4b05      	ldr	r3, [pc, #20]	; (1000691c <xosc_init+0x24>)
10006908:	6019      	str	r1, [r3, #0]
1000690a:	6853      	ldr	r3, [r2, #4]
1000690c:	2b00      	cmp	r3, #0
1000690e:	dafc      	bge.n	1000690a <xosc_init+0x12>
10006910:	4770      	bx	lr
10006912:	46c0      	nop			; (mov r8, r8)
10006914:	40024000 	.word	0x40024000
10006918:	00fab000 	.word	0x00fab000
1000691c:	40026000 	.word	0x40026000

10006920 <set_sys_clock_pll>:
10006920:	b5f0      	push	{r4, r5, r6, r7, lr}
10006922:	b083      	sub	sp, #12
10006924:	0005      	movs	r5, r0
10006926:	000e      	movs	r6, r1
10006928:	0014      	movs	r4, r2
1000692a:	f7fe fcab 	bl	10005284 <running_on_fpga>
1000692e:	2800      	cmp	r0, #0
10006930:	d001      	beq.n	10006936 <set_sys_clock_pll+0x16>
10006932:	b003      	add	sp, #12
10006934:	bdf0      	pop	{r4, r5, r6, r7, pc}
10006936:	4f15      	ldr	r7, [pc, #84]	; (1000698c <set_sys_clock_pll+0x6c>)
10006938:	2201      	movs	r2, #1
1000693a:	003b      	movs	r3, r7
1000693c:	2101      	movs	r1, #1
1000693e:	9700      	str	r7, [sp, #0]
10006940:	3005      	adds	r0, #5
10006942:	f7fe fa41 	bl	10004dc8 <clock_configure>
10006946:	0033      	movs	r3, r6
10006948:	002a      	movs	r2, r5
1000694a:	9400      	str	r4, [sp, #0]
1000694c:	2101      	movs	r1, #1
1000694e:	4810      	ldr	r0, [pc, #64]	; (10006990 <set_sys_clock_pll+0x70>)
10006950:	f7ff ff26 	bl	100067a0 <pll_init>
10006954:	0021      	movs	r1, r4
10006956:	0028      	movs	r0, r5
10006958:	4371      	muls	r1, r6
1000695a:	f001 fcb5 	bl	100082c8 <__wrap___aeabi_uidiv>
1000695e:	0004      	movs	r4, r0
10006960:	4b0c      	ldr	r3, [pc, #48]	; (10006994 <set_sys_clock_pll+0x74>)
10006962:	2200      	movs	r2, #0
10006964:	9300      	str	r3, [sp, #0]
10006966:	2102      	movs	r1, #2
10006968:	2004      	movs	r0, #4
1000696a:	f7fe fa2d 	bl	10004dc8 <clock_configure>
1000696e:	0023      	movs	r3, r4
10006970:	2200      	movs	r2, #0
10006972:	2101      	movs	r1, #1
10006974:	9400      	str	r4, [sp, #0]
10006976:	2005      	movs	r0, #5
10006978:	f7fe fa26 	bl	10004dc8 <clock_configure>
1000697c:	003b      	movs	r3, r7
1000697e:	2202      	movs	r2, #2
10006980:	2100      	movs	r1, #0
10006982:	9700      	str	r7, [sp, #0]
10006984:	2006      	movs	r0, #6
10006986:	f7fe fa1f 	bl	10004dc8 <clock_configure>
1000698a:	e7d2      	b.n	10006932 <set_sys_clock_pll+0x12>
1000698c:	02dc6c00 	.word	0x02dc6c00
10006990:	40028000 	.word	0x40028000
10006994:	00b71b00 	.word	0x00b71b00

10006998 <check_sys_clock_khz>:
10006998:	b5f0      	push	{r4, r5, r6, r7, lr}
1000699a:	46de      	mov	lr, fp
1000699c:	4657      	mov	r7, sl
1000699e:	464e      	mov	r6, r9
100069a0:	4645      	mov	r5, r8
100069a2:	b5e0      	push	{r5, r6, r7, lr}
100069a4:	0007      	movs	r7, r0
100069a6:	b085      	sub	sp, #20
100069a8:	2004      	movs	r0, #4
100069aa:	9303      	str	r3, [sp, #12]
100069ac:	9101      	str	r1, [sp, #4]
100069ae:	9202      	str	r2, [sp, #8]
100069b0:	f7fe fbf2 	bl	10005198 <clock_get_hz>
100069b4:	21fa      	movs	r1, #250	; 0xfa
100069b6:	0089      	lsls	r1, r1, #2
100069b8:	f001 fc86 	bl	100082c8 <__wrap___aeabi_uidiv>
100069bc:	2332      	movs	r3, #50	; 0x32
100069be:	4682      	mov	sl, r0
100069c0:	33ff      	adds	r3, #255	; 0xff
100069c2:	4699      	mov	r9, r3
100069c4:	0086      	lsls	r6, r0, #2
100069c6:	4456      	add	r6, sl
100069c8:	01b6      	lsls	r6, r6, #6
100069ca:	4b4f      	ldr	r3, [pc, #316]	; (10006b08 <check_sys_clock_khz+0x170>)
100069cc:	4a4f      	ldr	r2, [pc, #316]	; (10006b0c <check_sys_clock_khz+0x174>)
100069ce:	18f3      	adds	r3, r6, r3
100069d0:	2407      	movs	r4, #7
100069d2:	4293      	cmp	r3, r2
100069d4:	d90e      	bls.n	100069f4 <check_sys_clock_khz+0x5c>
100069d6:	2301      	movs	r3, #1
100069d8:	425b      	negs	r3, r3
100069da:	469c      	mov	ip, r3
100069dc:	4653      	mov	r3, sl
100069de:	44e1      	add	r9, ip
100069e0:	1af6      	subs	r6, r6, r3
100069e2:	464b      	mov	r3, r9
100069e4:	2b00      	cmp	r3, #0
100069e6:	d1f0      	bne.n	100069ca <check_sys_clock_khz+0x32>
100069e8:	2000      	movs	r0, #0
100069ea:	e05d      	b.n	10006aa8 <check_sys_clock_khz+0x110>
100069ec:	2900      	cmp	r1, #0
100069ee:	d100      	bne.n	100069f2 <check_sys_clock_khz+0x5a>
100069f0:	e086      	b.n	10006b00 <check_sys_clock_khz+0x168>
100069f2:	2406      	movs	r4, #6
100069f4:	0021      	movs	r1, r4
100069f6:	0030      	movs	r0, r6
100069f8:	4361      	muls	r1, r4
100069fa:	f001 fc65 	bl	100082c8 <__wrap___aeabi_uidiv>
100069fe:	4287      	cmp	r7, r0
10006a00:	d042      	beq.n	10006a88 <check_sys_clock_khz+0xf0>
10006a02:	1e63      	subs	r3, r4, #1
10006a04:	4698      	mov	r8, r3
10006a06:	2c01      	cmp	r4, #1
10006a08:	d0e5      	beq.n	100069d6 <check_sys_clock_khz+0x3e>
10006a0a:	001d      	movs	r5, r3
10006a0c:	4365      	muls	r5, r4
10006a0e:	0030      	movs	r0, r6
10006a10:	0029      	movs	r1, r5
10006a12:	f001 fc59 	bl	100082c8 <__wrap___aeabi_uidiv>
10006a16:	4287      	cmp	r7, r0
10006a18:	d04d      	beq.n	10006ab6 <check_sys_clock_khz+0x11e>
10006a1a:	1ea3      	subs	r3, r4, #2
10006a1c:	469b      	mov	fp, r3
10006a1e:	2c02      	cmp	r4, #2
10006a20:	d04f      	beq.n	10006ac2 <check_sys_clock_khz+0x12a>
10006a22:	1b2d      	subs	r5, r5, r4
10006a24:	0029      	movs	r1, r5
10006a26:	0030      	movs	r0, r6
10006a28:	f001 fc4e 	bl	100082c8 <__wrap___aeabi_uidiv>
10006a2c:	4287      	cmp	r7, r0
10006a2e:	d04a      	beq.n	10006ac6 <check_sys_clock_khz+0x12e>
10006a30:	1ee3      	subs	r3, r4, #3
10006a32:	469b      	mov	fp, r3
10006a34:	2c03      	cmp	r4, #3
10006a36:	d061      	beq.n	10006afc <check_sys_clock_khz+0x164>
10006a38:	1b2d      	subs	r5, r5, r4
10006a3a:	0029      	movs	r1, r5
10006a3c:	0030      	movs	r0, r6
10006a3e:	f001 fc43 	bl	100082c8 <__wrap___aeabi_uidiv>
10006a42:	4287      	cmp	r7, r0
10006a44:	d043      	beq.n	10006ace <check_sys_clock_khz+0x136>
10006a46:	1f23      	subs	r3, r4, #4
10006a48:	469b      	mov	fp, r3
10006a4a:	2c04      	cmp	r4, #4
10006a4c:	d045      	beq.n	10006ada <check_sys_clock_khz+0x142>
10006a4e:	1b2d      	subs	r5, r5, r4
10006a50:	0029      	movs	r1, r5
10006a52:	0030      	movs	r0, r6
10006a54:	f001 fc38 	bl	100082c8 <__wrap___aeabi_uidiv>
10006a58:	4287      	cmp	r7, r0
10006a5a:	d040      	beq.n	10006ade <check_sys_clock_khz+0x146>
10006a5c:	1f63      	subs	r3, r4, #5
10006a5e:	469b      	mov	fp, r3
10006a60:	2c05      	cmp	r4, #5
10006a62:	d042      	beq.n	10006aea <check_sys_clock_khz+0x152>
10006a64:	1b2d      	subs	r5, r5, r4
10006a66:	0029      	movs	r1, r5
10006a68:	0030      	movs	r0, r6
10006a6a:	f001 fc2d 	bl	100082c8 <__wrap___aeabi_uidiv>
10006a6e:	4287      	cmp	r7, r0
10006a70:	d03d      	beq.n	10006aee <check_sys_clock_khz+0x156>
10006a72:	4643      	mov	r3, r8
10006a74:	2b05      	cmp	r3, #5
10006a76:	d03f      	beq.n	10006af8 <check_sys_clock_khz+0x160>
10006a78:	0030      	movs	r0, r6
10006a7a:	1fe9      	subs	r1, r5, #7
10006a7c:	f001 fc24 	bl	100082c8 <__wrap___aeabi_uidiv>
10006a80:	4287      	cmp	r7, r0
10006a82:	d0b3      	beq.n	100069ec <check_sys_clock_khz+0x54>
10006a84:	2406      	movs	r4, #6
10006a86:	e7b5      	b.n	100069f4 <check_sys_clock_khz+0x5c>
10006a88:	2900      	cmp	r1, #0
10006a8a:	d1ba      	bne.n	10006a02 <check_sys_clock_khz+0x6a>
10006a8c:	46a0      	mov	r8, r4
10006a8e:	4642      	mov	r2, r8
10006a90:	2001      	movs	r0, #1
10006a92:	0173      	lsls	r3, r6, #5
10006a94:	1b9b      	subs	r3, r3, r6
10006a96:	009b      	lsls	r3, r3, #2
10006a98:	199e      	adds	r6, r3, r6
10006a9a:	9b01      	ldr	r3, [sp, #4]
10006a9c:	00f6      	lsls	r6, r6, #3
10006a9e:	601e      	str	r6, [r3, #0]
10006aa0:	9b02      	ldr	r3, [sp, #8]
10006aa2:	601c      	str	r4, [r3, #0]
10006aa4:	9b03      	ldr	r3, [sp, #12]
10006aa6:	601a      	str	r2, [r3, #0]
10006aa8:	b005      	add	sp, #20
10006aaa:	bcf0      	pop	{r4, r5, r6, r7}
10006aac:	46bb      	mov	fp, r7
10006aae:	46b2      	mov	sl, r6
10006ab0:	46a9      	mov	r9, r5
10006ab2:	46a0      	mov	r8, r4
10006ab4:	bdf0      	pop	{r4, r5, r6, r7, pc}
10006ab6:	2900      	cmp	r1, #0
10006ab8:	d0e9      	beq.n	10006a8e <check_sys_clock_khz+0xf6>
10006aba:	1ea3      	subs	r3, r4, #2
10006abc:	469b      	mov	fp, r3
10006abe:	2c02      	cmp	r4, #2
10006ac0:	d1af      	bne.n	10006a22 <check_sys_clock_khz+0x8a>
10006ac2:	2401      	movs	r4, #1
10006ac4:	e796      	b.n	100069f4 <check_sys_clock_khz+0x5c>
10006ac6:	2900      	cmp	r1, #0
10006ac8:	d1b2      	bne.n	10006a30 <check_sys_clock_khz+0x98>
10006aca:	46d8      	mov	r8, fp
10006acc:	e7df      	b.n	10006a8e <check_sys_clock_khz+0xf6>
10006ace:	2900      	cmp	r1, #0
10006ad0:	d0fb      	beq.n	10006aca <check_sys_clock_khz+0x132>
10006ad2:	1f23      	subs	r3, r4, #4
10006ad4:	469b      	mov	fp, r3
10006ad6:	2c04      	cmp	r4, #4
10006ad8:	d1b9      	bne.n	10006a4e <check_sys_clock_khz+0xb6>
10006ada:	2403      	movs	r4, #3
10006adc:	e78a      	b.n	100069f4 <check_sys_clock_khz+0x5c>
10006ade:	2900      	cmp	r1, #0
10006ae0:	d0f3      	beq.n	10006aca <check_sys_clock_khz+0x132>
10006ae2:	1f63      	subs	r3, r4, #5
10006ae4:	469b      	mov	fp, r3
10006ae6:	2c05      	cmp	r4, #5
10006ae8:	d1bc      	bne.n	10006a64 <check_sys_clock_khz+0xcc>
10006aea:	2404      	movs	r4, #4
10006aec:	e782      	b.n	100069f4 <check_sys_clock_khz+0x5c>
10006aee:	2900      	cmp	r1, #0
10006af0:	d0eb      	beq.n	10006aca <check_sys_clock_khz+0x132>
10006af2:	4643      	mov	r3, r8
10006af4:	2b05      	cmp	r3, #5
10006af6:	d1bf      	bne.n	10006a78 <check_sys_clock_khz+0xe0>
10006af8:	2405      	movs	r4, #5
10006afa:	e77b      	b.n	100069f4 <check_sys_clock_khz+0x5c>
10006afc:	2402      	movs	r4, #2
10006afe:	e779      	b.n	100069f4 <check_sys_clock_khz+0x5c>
10006b00:	2301      	movs	r3, #1
10006b02:	4698      	mov	r8, r3
10006b04:	e7c3      	b.n	10006a8e <check_sys_clock_khz+0xf6>
10006b06:	46c0      	nop			; (mov r8, r8)
10006b08:	fff48e50 	.word	0xfff48e50
10006b0c:	000cf850 	.word	0x000cf850

10006b10 <runtime_init>:
10006b10:	4b2c      	ldr	r3, [pc, #176]	; (10006bc4 <runtime_init+0xb4>)
10006b12:	4a2d      	ldr	r2, [pc, #180]	; (10006bc8 <runtime_init+0xb8>)
10006b14:	b570      	push	{r4, r5, r6, lr}
10006b16:	601a      	str	r2, [r3, #0]
10006b18:	4a2c      	ldr	r2, [pc, #176]	; (10006bcc <runtime_init+0xbc>)
10006b1a:	4b2d      	ldr	r3, [pc, #180]	; (10006bd0 <runtime_init+0xc0>)
10006b1c:	492d      	ldr	r1, [pc, #180]	; (10006bd4 <runtime_init+0xc4>)
10006b1e:	601a      	str	r2, [r3, #0]
10006b20:	0014      	movs	r4, r2
10006b22:	688b      	ldr	r3, [r1, #8]
10006b24:	439c      	bics	r4, r3
10006b26:	d1fb      	bne.n	10006b20 <runtime_init+0x10>
10006b28:	4d2b      	ldr	r5, [pc, #172]	; (10006bd8 <runtime_init+0xc8>)
10006b2a:	4e2c      	ldr	r6, [pc, #176]	; (10006bdc <runtime_init+0xcc>)
10006b2c:	42b5      	cmp	r5, r6
10006b2e:	d208      	bcs.n	10006b42 <runtime_init+0x32>
10006b30:	3e01      	subs	r6, #1
10006b32:	1b76      	subs	r6, r6, r5
10006b34:	08b6      	lsrs	r6, r6, #2
10006b36:	cd08      	ldmia	r5!, {r3}
10006b38:	4798      	blx	r3
10006b3a:	0023      	movs	r3, r4
10006b3c:	3401      	adds	r4, #1
10006b3e:	42b3      	cmp	r3, r6
10006b40:	d1f9      	bne.n	10006b36 <runtime_init+0x26>
10006b42:	f7fe f9cb 	bl	10004edc <clocks_init>
10006b46:	4a26      	ldr	r2, [pc, #152]	; (10006be0 <runtime_init+0xd0>)
10006b48:	4b21      	ldr	r3, [pc, #132]	; (10006bd0 <runtime_init+0xc0>)
10006b4a:	601a      	str	r2, [r3, #0]
10006b4c:	4a21      	ldr	r2, [pc, #132]	; (10006bd4 <runtime_init+0xc4>)
10006b4e:	6893      	ldr	r3, [r2, #8]
10006b50:	43db      	mvns	r3, r3
10006b52:	01db      	lsls	r3, r3, #7
10006b54:	09dd      	lsrs	r5, r3, #7
10006b56:	2b00      	cmp	r3, #0
10006b58:	d1f9      	bne.n	10006b4e <runtime_init+0x3e>
10006b5a:	2240      	movs	r2, #64	; 0x40
10006b5c:	4b21      	ldr	r3, [pc, #132]	; (10006be4 <runtime_init+0xd4>)
10006b5e:	4c22      	ldr	r4, [pc, #136]	; (10006be8 <runtime_init+0xd8>)
10006b60:	4e22      	ldr	r6, [pc, #136]	; (10006bec <runtime_init+0xdc>)
10006b62:	679a      	str	r2, [r3, #120]	; 0x78
10006b64:	675a      	str	r2, [r3, #116]	; 0x74
10006b66:	671a      	str	r2, [r3, #112]	; 0x70
10006b68:	66da      	str	r2, [r3, #108]	; 0x6c
10006b6a:	42b4      	cmp	r4, r6
10006b6c:	d208      	bcs.n	10006b80 <runtime_init+0x70>
10006b6e:	6823      	ldr	r3, [r4, #0]
10006b70:	0020      	movs	r0, r4
10006b72:	2b00      	cmp	r3, #0
10006b74:	d020      	beq.n	10006bb8 <runtime_init+0xa8>
10006b76:	3408      	adds	r4, #8
10006b78:	f7ff fdf4 	bl	10006764 <recursive_mutex_init>
10006b7c:	42b4      	cmp	r4, r6
10006b7e:	d3f6      	bcc.n	10006b6e <runtime_init+0x5e>
10006b80:	4e1b      	ldr	r6, [pc, #108]	; (10006bf0 <runtime_init+0xe0>)
10006b82:	4c1c      	ldr	r4, [pc, #112]	; (10006bf4 <runtime_init+0xe4>)
10006b84:	22c0      	movs	r2, #192	; 0xc0
10006b86:	68a1      	ldr	r1, [r4, #8]
10006b88:	0030      	movs	r0, r6
10006b8a:	f002 fa7f 	bl	1000908c <__wrap___aeabi_memcpy>
10006b8e:	60a6      	str	r6, [r4, #8]
10006b90:	f7fe fb80 	bl	10005294 <spin_locks_reset>
10006b94:	f7fe fe7e 	bl	10005894 <irq_init_priorities>
10006b98:	f7ff f8d2 	bl	10005d40 <alarm_pool_init_default>
10006b9c:	4c16      	ldr	r4, [pc, #88]	; (10006bf8 <runtime_init+0xe8>)
10006b9e:	4e17      	ldr	r6, [pc, #92]	; (10006bfc <runtime_init+0xec>)
10006ba0:	42b4      	cmp	r4, r6
10006ba2:	d208      	bcs.n	10006bb6 <runtime_init+0xa6>
10006ba4:	3e01      	subs	r6, #1
10006ba6:	1b36      	subs	r6, r6, r4
10006ba8:	08b6      	lsrs	r6, r6, #2
10006baa:	cc08      	ldmia	r4!, {r3}
10006bac:	4798      	blx	r3
10006bae:	002b      	movs	r3, r5
10006bb0:	3501      	adds	r5, #1
10006bb2:	429e      	cmp	r6, r3
10006bb4:	d1f9      	bne.n	10006baa <runtime_init+0x9a>
10006bb6:	bd70      	pop	{r4, r5, r6, pc}
10006bb8:	3408      	adds	r4, #8
10006bba:	f7ff fdc5 	bl	10006748 <mutex_init>
10006bbe:	42b4      	cmp	r4, r6
10006bc0:	d3d5      	bcc.n	10006b6e <runtime_init+0x5e>
10006bc2:	e7dd      	b.n	10006b80 <runtime_init+0x70>
10006bc4:	4000e000 	.word	0x4000e000
10006bc8:	fefbcdbf 	.word	0xfefbcdbf
10006bcc:	003c7ffe 	.word	0x003c7ffe
10006bd0:	4000f000 	.word	0x4000f000
10006bd4:	4000c000 	.word	0x4000c000
10006bd8:	200004f8 	.word	0x200004f8
10006bdc:	20000508 	.word	0x20000508
10006be0:	01ffffff 	.word	0x01ffffff
10006be4:	4001f000 	.word	0x4001f000
10006be8:	200004f0 	.word	0x200004f0
10006bec:	200004f8 	.word	0x200004f8
10006bf0:	20000000 	.word	0x20000000
10006bf4:	e000ed00 	.word	0xe000ed00
10006bf8:	20000508 	.word	0x20000508
10006bfc:	20000514 	.word	0x20000514

10006c00 <exit>:
10006c00:	be00      	bkpt	0x0000
10006c02:	e7fd      	b.n	10006c00 <exit>

10006c04 <panic>:
10006c04:	b40f      	push	{r0, r1, r2, r3}
10006c06:	b500      	push	{lr}
10006c08:	4808      	ldr	r0, [pc, #32]	; (10006c2c <panic+0x28>)
10006c0a:	b083      	sub	sp, #12
10006c0c:	f002 fba6 	bl	1000935c <__wrap_puts>
10006c10:	9b04      	ldr	r3, [sp, #16]
10006c12:	2b00      	cmp	r3, #0
10006c14:	d007      	beq.n	10006c26 <panic+0x22>
10006c16:	a905      	add	r1, sp, #20
10006c18:	0018      	movs	r0, r3
10006c1a:	9101      	str	r1, [sp, #4]
10006c1c:	f001 fada 	bl	100081d4 <weak_raw_vprintf>
10006c20:	4803      	ldr	r0, [pc, #12]	; (10006c30 <panic+0x2c>)
10006c22:	f002 fb9b 	bl	1000935c <__wrap_puts>
10006c26:	be00      	bkpt	0x0000
10006c28:	e7fd      	b.n	10006c26 <panic+0x22>
10006c2a:	46c0      	nop			; (mov r8, r8)
10006c2c:	1000d24c 	.word	0x1000d24c
10006c30:	1000c3cc 	.word	0x1000c3cc

10006c34 <hard_assertion_failure>:
10006c34:	b510      	push	{r4, lr}
10006c36:	4801      	ldr	r0, [pc, #4]	; (10006c3c <hard_assertion_failure+0x8>)
10006c38:	f7ff ffe4 	bl	10006c04 <panic>
10006c3c:	1000d25c 	.word	0x1000d25c

10006c40 <_out_null>:
10006c40:	4770      	bx	lr
10006c42:	46c0      	nop			; (mov r8, r8)

10006c44 <_out_rev>:
10006c44:	b5f8      	push	{r3, r4, r5, r6, r7, lr}
10006c46:	4657      	mov	r7, sl
10006c48:	464e      	mov	r6, r9
10006c4a:	4645      	mov	r5, r8
10006c4c:	46de      	mov	lr, fp
10006c4e:	b5e0      	push	{r5, r6, r7, lr}
10006c50:	4699      	mov	r9, r3
10006c52:	9b0a      	ldr	r3, [sp, #40]	; 0x28
10006c54:	0007      	movs	r7, r0
10006c56:	469a      	mov	sl, r3
10006c58:	9b0d      	ldr	r3, [sp, #52]	; 0x34
10006c5a:	4688      	mov	r8, r1
10006c5c:	4693      	mov	fp, r2
10006c5e:	0015      	movs	r5, r2
10006c60:	9e0b      	ldr	r6, [sp, #44]	; 0x2c
10006c62:	079b      	lsls	r3, r3, #30
10006c64:	d110      	bne.n	10006c88 <_out_rev+0x44>
10006c66:	9b0c      	ldr	r3, [sp, #48]	; 0x30
10006c68:	429e      	cmp	r6, r3
10006c6a:	d20d      	bcs.n	10006c88 <_out_rev+0x44>
10006c6c:	1b9d      	subs	r5, r3, r6
10006c6e:	0014      	movs	r4, r2
10006c70:	000e      	movs	r6, r1
10006c72:	445d      	add	r5, fp
10006c74:	0022      	movs	r2, r4
10006c76:	464b      	mov	r3, r9
10006c78:	3401      	adds	r4, #1
10006c7a:	0031      	movs	r1, r6
10006c7c:	2020      	movs	r0, #32
10006c7e:	47b8      	blx	r7
10006c80:	42a5      	cmp	r5, r4
10006c82:	d1f7      	bne.n	10006c74 <_out_rev+0x30>
10006c84:	46b0      	mov	r8, r6
10006c86:	9e0b      	ldr	r6, [sp, #44]	; 0x2c
10006c88:	2e00      	cmp	r6, #0
10006c8a:	d027      	beq.n	10006cdc <_out_rev+0x98>
10006c8c:	4644      	mov	r4, r8
10006c8e:	1975      	adds	r5, r6, r5
10006c90:	4653      	mov	r3, sl
10006c92:	1baa      	subs	r2, r5, r6
10006c94:	3e01      	subs	r6, #1
10006c96:	5d98      	ldrb	r0, [r3, r6]
10006c98:	0021      	movs	r1, r4
10006c9a:	464b      	mov	r3, r9
10006c9c:	47b8      	blx	r7
10006c9e:	2e00      	cmp	r6, #0
10006ca0:	d1f6      	bne.n	10006c90 <_out_rev+0x4c>
10006ca2:	0023      	movs	r3, r4
10006ca4:	002c      	movs	r4, r5
10006ca6:	4698      	mov	r8, r3
10006ca8:	9b0d      	ldr	r3, [sp, #52]	; 0x34
10006caa:	079b      	lsls	r3, r3, #30
10006cac:	d50f      	bpl.n	10006cce <_out_rev+0x8a>
10006cae:	465b      	mov	r3, fp
10006cb0:	1ae5      	subs	r5, r4, r3
10006cb2:	9b0c      	ldr	r3, [sp, #48]	; 0x30
10006cb4:	42ab      	cmp	r3, r5
10006cb6:	d90a      	bls.n	10006cce <_out_rev+0x8a>
10006cb8:	4646      	mov	r6, r8
10006cba:	4698      	mov	r8, r3
10006cbc:	0022      	movs	r2, r4
10006cbe:	464b      	mov	r3, r9
10006cc0:	0031      	movs	r1, r6
10006cc2:	2020      	movs	r0, #32
10006cc4:	3501      	adds	r5, #1
10006cc6:	47b8      	blx	r7
10006cc8:	3401      	adds	r4, #1
10006cca:	45a8      	cmp	r8, r5
10006ccc:	d8f6      	bhi.n	10006cbc <_out_rev+0x78>
10006cce:	0020      	movs	r0, r4
10006cd0:	bcf0      	pop	{r4, r5, r6, r7}
10006cd2:	46bb      	mov	fp, r7
10006cd4:	46b2      	mov	sl, r6
10006cd6:	46a9      	mov	r9, r5
10006cd8:	46a0      	mov	r8, r4
10006cda:	bdf8      	pop	{r3, r4, r5, r6, r7, pc}
10006cdc:	002c      	movs	r4, r5
10006cde:	e7e3      	b.n	10006ca8 <_out_rev+0x64>

10006ce0 <_ntoa_format>:
10006ce0:	b5f0      	push	{r4, r5, r6, r7, lr}
10006ce2:	464f      	mov	r7, r9
10006ce4:	4646      	mov	r6, r8
10006ce6:	46d6      	mov	lr, sl
10006ce8:	b5c0      	push	{r6, r7, lr}
10006cea:	b084      	sub	sp, #16
10006cec:	4698      	mov	r8, r3
10006cee:	ab0e      	add	r3, sp, #56	; 0x38
10006cf0:	781b      	ldrb	r3, [r3, #0]
10006cf2:	9f12      	ldr	r7, [sp, #72]	; 0x48
10006cf4:	4699      	mov	r9, r3
10006cf6:	4694      	mov	ip, r2
10006cf8:	9c0d      	ldr	r4, [sp, #52]	; 0x34
10006cfa:	9b10      	ldr	r3, [sp, #64]	; 0x40
10006cfc:	9e11      	ldr	r6, [sp, #68]	; 0x44
10006cfe:	07ba      	lsls	r2, r7, #30
10006d00:	d425      	bmi.n	10006d4e <_ntoa_format+0x6e>
10006d02:	2e00      	cmp	r6, #0
10006d04:	d14b      	bne.n	10006d9e <_ntoa_format+0xbe>
10006d06:	429c      	cmp	r4, r3
10006d08:	d300      	bcc.n	10006d0c <_ntoa_format+0x2c>
10006d0a:	e0bf      	b.n	10006e8c <_ntoa_format+0x1ac>
10006d0c:	2201      	movs	r2, #1
10006d0e:	403a      	ands	r2, r7
10006d10:	4692      	mov	sl, r2
10006d12:	2c1f      	cmp	r4, #31
10006d14:	d900      	bls.n	10006d18 <_ntoa_format+0x38>
10006d16:	e0b8      	b.n	10006e8a <_ntoa_format+0x1aa>
10006d18:	9a0c      	ldr	r2, [sp, #48]	; 0x30
10006d1a:	1e55      	subs	r5, r2, #1
10006d1c:	2230      	movs	r2, #48	; 0x30
10006d1e:	e001      	b.n	10006d24 <_ntoa_format+0x44>
10006d20:	2c20      	cmp	r4, #32
10006d22:	d003      	beq.n	10006d2c <_ntoa_format+0x4c>
10006d24:	3401      	adds	r4, #1
10006d26:	552a      	strb	r2, [r5, r4]
10006d28:	42a3      	cmp	r3, r4
10006d2a:	d8f9      	bhi.n	10006d20 <_ntoa_format+0x40>
10006d2c:	4652      	mov	r2, sl
10006d2e:	2a00      	cmp	r2, #0
10006d30:	d00d      	beq.n	10006d4e <_ntoa_format+0x6e>
10006d32:	42a6      	cmp	r6, r4
10006d34:	d90b      	bls.n	10006d4e <_ntoa_format+0x6e>
10006d36:	2c20      	cmp	r4, #32
10006d38:	d044      	beq.n	10006dc4 <_ntoa_format+0xe4>
10006d3a:	9a0c      	ldr	r2, [sp, #48]	; 0x30
10006d3c:	1e55      	subs	r5, r2, #1
10006d3e:	2230      	movs	r2, #48	; 0x30
10006d40:	e001      	b.n	10006d46 <_ntoa_format+0x66>
10006d42:	2c20      	cmp	r4, #32
10006d44:	d03e      	beq.n	10006dc4 <_ntoa_format+0xe4>
10006d46:	3401      	adds	r4, #1
10006d48:	552a      	strb	r2, [r5, r4]
10006d4a:	42b4      	cmp	r4, r6
10006d4c:	d1f9      	bne.n	10006d42 <_ntoa_format+0x62>
10006d4e:	06fa      	lsls	r2, r7, #27
10006d50:	d54d      	bpl.n	10006dee <_ntoa_format+0x10e>
10006d52:	057a      	lsls	r2, r7, #21
10006d54:	d43f      	bmi.n	10006dd6 <_ntoa_format+0xf6>
10006d56:	2c00      	cmp	r4, #0
10006d58:	d139      	bne.n	10006dce <_ntoa_format+0xee>
10006d5a:	9b0f      	ldr	r3, [sp, #60]	; 0x3c
10006d5c:	2b10      	cmp	r3, #16
10006d5e:	d100      	bne.n	10006d62 <_ntoa_format+0x82>
10006d60:	e079      	b.n	10006e56 <_ntoa_format+0x176>
10006d62:	9b0f      	ldr	r3, [sp, #60]	; 0x3c
10006d64:	2b02      	cmp	r3, #2
10006d66:	d100      	bne.n	10006d6a <_ntoa_format+0x8a>
10006d68:	e08a      	b.n	10006e80 <_ntoa_format+0x1a0>
10006d6a:	2330      	movs	r3, #48	; 0x30
10006d6c:	9a0c      	ldr	r2, [sp, #48]	; 0x30
10006d6e:	2401      	movs	r4, #1
10006d70:	7013      	strb	r3, [r2, #0]
10006d72:	464b      	mov	r3, r9
10006d74:	2b00      	cmp	r3, #0
10006d76:	d03f      	beq.n	10006df8 <_ntoa_format+0x118>
10006d78:	232d      	movs	r3, #45	; 0x2d
10006d7a:	9a0c      	ldr	r2, [sp, #48]	; 0x30
10006d7c:	5513      	strb	r3, [r2, r4]
10006d7e:	3401      	adds	r4, #1
10006d80:	9b0c      	ldr	r3, [sp, #48]	; 0x30
10006d82:	4662      	mov	r2, ip
10006d84:	9300      	str	r3, [sp, #0]
10006d86:	9703      	str	r7, [sp, #12]
10006d88:	4643      	mov	r3, r8
10006d8a:	9602      	str	r6, [sp, #8]
10006d8c:	9401      	str	r4, [sp, #4]
10006d8e:	f7ff ff59 	bl	10006c44 <_out_rev>
10006d92:	b004      	add	sp, #16
10006d94:	bce0      	pop	{r5, r6, r7}
10006d96:	46ba      	mov	sl, r7
10006d98:	46b1      	mov	r9, r6
10006d9a:	46a8      	mov	r8, r5
10006d9c:	bdf0      	pop	{r4, r5, r6, r7, pc}
10006d9e:	2201      	movs	r2, #1
10006da0:	0015      	movs	r5, r2
10006da2:	403d      	ands	r5, r7
10006da4:	46aa      	mov	sl, r5
10006da6:	423a      	tst	r2, r7
10006da8:	d02f      	beq.n	10006e0a <_ntoa_format+0x12a>
10006daa:	464a      	mov	r2, r9
10006dac:	2a00      	cmp	r2, #0
10006dae:	d102      	bne.n	10006db6 <_ntoa_format+0xd6>
10006db0:	320c      	adds	r2, #12
10006db2:	423a      	tst	r2, r7
10006db4:	d000      	beq.n	10006db8 <_ntoa_format+0xd8>
10006db6:	3e01      	subs	r6, #1
10006db8:	429c      	cmp	r4, r3
10006dba:	d2ba      	bcs.n	10006d32 <_ntoa_format+0x52>
10006dbc:	2c1f      	cmp	r4, #31
10006dbe:	d9ab      	bls.n	10006d18 <_ntoa_format+0x38>
10006dc0:	2e20      	cmp	r6, #32
10006dc2:	d927      	bls.n	10006e14 <_ntoa_format+0x134>
10006dc4:	2420      	movs	r4, #32
10006dc6:	06fa      	lsls	r2, r7, #27
10006dc8:	d5da      	bpl.n	10006d80 <_ntoa_format+0xa0>
10006dca:	057a      	lsls	r2, r7, #21
10006dcc:	d403      	bmi.n	10006dd6 <_ntoa_format+0xf6>
10006dce:	42a3      	cmp	r3, r4
10006dd0:	d02d      	beq.n	10006e2e <_ntoa_format+0x14e>
10006dd2:	42a6      	cmp	r6, r4
10006dd4:	d02b      	beq.n	10006e2e <_ntoa_format+0x14e>
10006dd6:	9b0f      	ldr	r3, [sp, #60]	; 0x3c
10006dd8:	2b10      	cmp	r3, #16
10006dda:	d032      	beq.n	10006e42 <_ntoa_format+0x162>
10006ddc:	2b02      	cmp	r3, #2
10006dde:	d020      	beq.n	10006e22 <_ntoa_format+0x142>
10006de0:	2c20      	cmp	r4, #32
10006de2:	d0cd      	beq.n	10006d80 <_ntoa_format+0xa0>
10006de4:	2230      	movs	r2, #48	; 0x30
10006de6:	9b0c      	ldr	r3, [sp, #48]	; 0x30
10006de8:	191b      	adds	r3, r3, r4
10006dea:	701a      	strb	r2, [r3, #0]
10006dec:	3401      	adds	r4, #1
10006dee:	2c20      	cmp	r4, #32
10006df0:	d0c6      	beq.n	10006d80 <_ntoa_format+0xa0>
10006df2:	464b      	mov	r3, r9
10006df4:	2b00      	cmp	r3, #0
10006df6:	d1bf      	bne.n	10006d78 <_ntoa_format+0x98>
10006df8:	077b      	lsls	r3, r7, #29
10006dfa:	d40d      	bmi.n	10006e18 <_ntoa_format+0x138>
10006dfc:	073b      	lsls	r3, r7, #28
10006dfe:	d5bf      	bpl.n	10006d80 <_ntoa_format+0xa0>
10006e00:	2320      	movs	r3, #32
10006e02:	9a0c      	ldr	r2, [sp, #48]	; 0x30
10006e04:	5513      	strb	r3, [r2, r4]
10006e06:	3401      	adds	r4, #1
10006e08:	e7ba      	b.n	10006d80 <_ntoa_format+0xa0>
10006e0a:	429c      	cmp	r4, r3
10006e0c:	d29f      	bcs.n	10006d4e <_ntoa_format+0x6e>
10006e0e:	2c1f      	cmp	r4, #31
10006e10:	d800      	bhi.n	10006e14 <_ntoa_format+0x134>
10006e12:	e781      	b.n	10006d18 <_ntoa_format+0x38>
10006e14:	2420      	movs	r4, #32
10006e16:	e79a      	b.n	10006d4e <_ntoa_format+0x6e>
10006e18:	232b      	movs	r3, #43	; 0x2b
10006e1a:	9a0c      	ldr	r2, [sp, #48]	; 0x30
10006e1c:	5513      	strb	r3, [r2, r4]
10006e1e:	3401      	adds	r4, #1
10006e20:	e7ae      	b.n	10006d80 <_ntoa_format+0xa0>
10006e22:	2c20      	cmp	r4, #32
10006e24:	d0ac      	beq.n	10006d80 <_ntoa_format+0xa0>
10006e26:	9b0c      	ldr	r3, [sp, #48]	; 0x30
10006e28:	191b      	adds	r3, r3, r4
10006e2a:	3401      	adds	r4, #1
10006e2c:	e03a      	b.n	10006ea4 <_ntoa_format+0x1c4>
10006e2e:	1e63      	subs	r3, r4, #1
10006e30:	2c01      	cmp	r4, #1
10006e32:	d092      	beq.n	10006d5a <_ntoa_format+0x7a>
10006e34:	9a0f      	ldr	r2, [sp, #60]	; 0x3c
10006e36:	2a10      	cmp	r2, #16
10006e38:	d02a      	beq.n	10006e90 <_ntoa_format+0x1b0>
10006e3a:	2a02      	cmp	r2, #2
10006e3c:	d02f      	beq.n	10006e9e <_ntoa_format+0x1be>
10006e3e:	001c      	movs	r4, r3
10006e40:	e7d0      	b.n	10006de4 <_ntoa_format+0x104>
10006e42:	06bb      	lsls	r3, r7, #26
10006e44:	d40e      	bmi.n	10006e64 <_ntoa_format+0x184>
10006e46:	2c20      	cmp	r4, #32
10006e48:	d09a      	beq.n	10006d80 <_ntoa_format+0xa0>
10006e4a:	9b0c      	ldr	r3, [sp, #48]	; 0x30
10006e4c:	191a      	adds	r2, r3, r4
10006e4e:	3401      	adds	r4, #1
10006e50:	2378      	movs	r3, #120	; 0x78
10006e52:	7013      	strb	r3, [r2, #0]
10006e54:	e7c4      	b.n	10006de0 <_ntoa_format+0x100>
10006e56:	06bb      	lsls	r3, r7, #26
10006e58:	d40d      	bmi.n	10006e76 <_ntoa_format+0x196>
10006e5a:	2378      	movs	r3, #120	; 0x78
10006e5c:	9a0c      	ldr	r2, [sp, #48]	; 0x30
10006e5e:	2401      	movs	r4, #1
10006e60:	7013      	strb	r3, [r2, #0]
10006e62:	e7bf      	b.n	10006de4 <_ntoa_format+0x104>
10006e64:	2c20      	cmp	r4, #32
10006e66:	d100      	bne.n	10006e6a <_ntoa_format+0x18a>
10006e68:	e78a      	b.n	10006d80 <_ntoa_format+0xa0>
10006e6a:	2258      	movs	r2, #88	; 0x58
10006e6c:	9b0c      	ldr	r3, [sp, #48]	; 0x30
10006e6e:	191b      	adds	r3, r3, r4
10006e70:	701a      	strb	r2, [r3, #0]
10006e72:	3401      	adds	r4, #1
10006e74:	e7b4      	b.n	10006de0 <_ntoa_format+0x100>
10006e76:	2358      	movs	r3, #88	; 0x58
10006e78:	9a0c      	ldr	r2, [sp, #48]	; 0x30
10006e7a:	2401      	movs	r4, #1
10006e7c:	7013      	strb	r3, [r2, #0]
10006e7e:	e7b1      	b.n	10006de4 <_ntoa_format+0x104>
10006e80:	9a0c      	ldr	r2, [sp, #48]	; 0x30
10006e82:	3360      	adds	r3, #96	; 0x60
10006e84:	2401      	movs	r4, #1
10006e86:	7013      	strb	r3, [r2, #0]
10006e88:	e7ac      	b.n	10006de4 <_ntoa_format+0x104>
10006e8a:	2420      	movs	r4, #32
10006e8c:	2600      	movs	r6, #0
10006e8e:	e75e      	b.n	10006d4e <_ntoa_format+0x6e>
10006e90:	3c02      	subs	r4, #2
10006e92:	06ba      	lsls	r2, r7, #26
10006e94:	d4e9      	bmi.n	10006e6a <_ntoa_format+0x18a>
10006e96:	9a0c      	ldr	r2, [sp, #48]	; 0x30
10006e98:	1912      	adds	r2, r2, r4
10006e9a:	001c      	movs	r4, r3
10006e9c:	e7d8      	b.n	10006e50 <_ntoa_format+0x170>
10006e9e:	9a0c      	ldr	r2, [sp, #48]	; 0x30
10006ea0:	4692      	mov	sl, r2
10006ea2:	4453      	add	r3, sl
10006ea4:	2262      	movs	r2, #98	; 0x62
10006ea6:	701a      	strb	r2, [r3, #0]
10006ea8:	e79a      	b.n	10006de0 <_ntoa_format+0x100>
10006eaa:	46c0      	nop			; (mov r8, r8)

10006eac <_out_char>:
10006eac:	b510      	push	{r4, lr}
10006eae:	2800      	cmp	r0, #0
10006eb0:	d100      	bne.n	10006eb4 <_out_char+0x8>
10006eb2:	bd10      	pop	{r4, pc}
10006eb4:	f002 fa02 	bl	100092bc <__wrap_putchar>
10006eb8:	e7fb      	b.n	10006eb2 <_out_char+0x6>
10006eba:	46c0      	nop			; (mov r8, r8)

10006ebc <_out_fct>:
10006ebc:	000b      	movs	r3, r1
10006ebe:	b510      	push	{r4, lr}
10006ec0:	2800      	cmp	r0, #0
10006ec2:	d002      	beq.n	10006eca <_out_fct+0xe>
10006ec4:	6849      	ldr	r1, [r1, #4]
10006ec6:	681b      	ldr	r3, [r3, #0]
10006ec8:	4798      	blx	r3
10006eca:	bd10      	pop	{r4, pc}

10006ecc <_etoa>:
10006ecc:	b5f0      	push	{r4, r5, r6, r7, lr}
10006ece:	46de      	mov	lr, fp
10006ed0:	4657      	mov	r7, sl
10006ed2:	464e      	mov	r6, r9
10006ed4:	4645      	mov	r5, r8
10006ed6:	b5e0      	push	{r5, r6, r7, lr}
10006ed8:	b09b      	sub	sp, #108	; 0x6c
10006eda:	469b      	mov	fp, r3
10006edc:	9b24      	ldr	r3, [sp, #144]	; 0x90
10006ede:	4689      	mov	r9, r1
10006ee0:	4698      	mov	r8, r3
10006ee2:	9b25      	ldr	r3, [sp, #148]	; 0x94
10006ee4:	900b      	str	r0, [sp, #44]	; 0x2c
10006ee6:	920c      	str	r2, [sp, #48]	; 0x30
10006ee8:	4640      	mov	r0, r8
10006eea:	4642      	mov	r2, r8
10006eec:	0019      	movs	r1, r3
10006eee:	469a      	mov	sl, r3
10006ef0:	f001 fcbb 	bl	1000886a <__wrap___aeabi_dcmpun>
10006ef4:	2800      	cmp	r0, #0
10006ef6:	d000      	beq.n	10006efa <_etoa+0x2e>
10006ef8:	e0d8      	b.n	100070ac <_etoa+0x1e0>
10006efa:	2201      	movs	r2, #1
10006efc:	4640      	mov	r0, r8
10006efe:	4651      	mov	r1, sl
10006f00:	4b77      	ldr	r3, [pc, #476]	; (100070e0 <_etoa+0x214>)
10006f02:	4252      	negs	r2, r2
10006f04:	f001 fcac 	bl	10008860 <__wrap___aeabi_dcmpgt>
10006f08:	2800      	cmp	r0, #0
10006f0a:	d000      	beq.n	10006f0e <_etoa+0x42>
10006f0c:	e0ce      	b.n	100070ac <_etoa+0x1e0>
10006f0e:	2201      	movs	r2, #1
10006f10:	4640      	mov	r0, r8
10006f12:	4651      	mov	r1, sl
10006f14:	4b73      	ldr	r3, [pc, #460]	; (100070e4 <_etoa+0x218>)
10006f16:	4252      	negs	r2, r2
10006f18:	f001 fc8c 	bl	10008834 <__wrap___aeabi_dcmplt>
10006f1c:	2800      	cmp	r0, #0
10006f1e:	d000      	beq.n	10006f22 <_etoa+0x56>
10006f20:	e0c4      	b.n	100070ac <_etoa+0x1e0>
10006f22:	2200      	movs	r2, #0
10006f24:	2300      	movs	r3, #0
10006f26:	4640      	mov	r0, r8
10006f28:	4651      	mov	r1, sl
10006f2a:	f001 fc83 	bl	10008834 <__wrap___aeabi_dcmplt>
10006f2e:	2800      	cmp	r0, #0
10006f30:	d000      	beq.n	10006f34 <_etoa+0x68>
10006f32:	e1b9      	b.n	100072a8 <_etoa+0x3dc>
10006f34:	4642      	mov	r2, r8
10006f36:	4653      	mov	r3, sl
10006f38:	920a      	str	r2, [sp, #40]	; 0x28
10006f3a:	9309      	str	r3, [sp, #36]	; 0x24
10006f3c:	2380      	movs	r3, #128	; 0x80
10006f3e:	9a28      	ldr	r2, [sp, #160]	; 0xa0
10006f40:	00db      	lsls	r3, r3, #3
10006f42:	401a      	ands	r2, r3
10006f44:	920e      	str	r2, [sp, #56]	; 0x38
10006f46:	9a28      	ldr	r2, [sp, #160]	; 0xa0
10006f48:	421a      	tst	r2, r3
10006f4a:	d101      	bne.n	10006f50 <_etoa+0x84>
10006f4c:	2306      	movs	r3, #6
10006f4e:	9326      	str	r3, [sp, #152]	; 0x98
10006f50:	9a0a      	ldr	r2, [sp, #40]	; 0x28
10006f52:	9b09      	ldr	r3, [sp, #36]	; 0x24
10006f54:	0016      	movs	r6, r2
10006f56:	4313      	orrs	r3, r2
10006f58:	d000      	beq.n	10006f5c <_etoa+0x90>
10006f5a:	e0c7      	b.n	100070ec <_etoa+0x220>
10006f5c:	9b28      	ldr	r3, [sp, #160]	; 0xa0
10006f5e:	2500      	movs	r5, #0
10006f60:	2600      	movs	r6, #0
10006f62:	051b      	lsls	r3, r3, #20
10006f64:	d400      	bmi.n	10006f68 <_etoa+0x9c>
10006f66:	e19b      	b.n	100072a0 <_etoa+0x3d4>
10006f68:	2300      	movs	r3, #0
10006f6a:	930d      	str	r3, [sp, #52]	; 0x34
10006f6c:	9a26      	ldr	r2, [sp, #152]	; 0x98
10006f6e:	9b0d      	ldr	r3, [sp, #52]	; 0x34
10006f70:	429a      	cmp	r2, r3
10006f72:	dc00      	bgt.n	10006f76 <_etoa+0xaa>
10006f74:	e19f      	b.n	100072b6 <_etoa+0x3ea>
10006f76:	1ad0      	subs	r0, r2, r3
10006f78:	1e43      	subs	r3, r0, #1
10006f7a:	9326      	str	r3, [sp, #152]	; 0x98
10006f7c:	2380      	movs	r3, #128	; 0x80
10006f7e:	9a28      	ldr	r2, [sp, #160]	; 0xa0
10006f80:	00db      	lsls	r3, r3, #3
10006f82:	431a      	orrs	r2, r3
10006f84:	2300      	movs	r3, #0
10006f86:	2700      	movs	r7, #0
10006f88:	9228      	str	r2, [sp, #160]	; 0xa0
10006f8a:	930d      	str	r3, [sp, #52]	; 0x34
10006f8c:	9b27      	ldr	r3, [sp, #156]	; 0x9c
10006f8e:	2400      	movs	r4, #0
10006f90:	42bb      	cmp	r3, r7
10006f92:	d900      	bls.n	10006f96 <_etoa+0xca>
10006f94:	1bdc      	subs	r4, r3, r7
10006f96:	2302      	movs	r3, #2
10006f98:	9a28      	ldr	r2, [sp, #160]	; 0xa0
10006f9a:	401a      	ands	r2, r3
10006f9c:	920e      	str	r2, [sp, #56]	; 0x38
10006f9e:	9a28      	ldr	r2, [sp, #160]	; 0xa0
10006fa0:	4213      	tst	r3, r2
10006fa2:	d003      	beq.n	10006fac <_etoa+0xe0>
10006fa4:	427b      	negs	r3, r7
10006fa6:	417b      	adcs	r3, r7
10006fa8:	425b      	negs	r3, r3
10006faa:	401c      	ands	r4, r3
10006fac:	9b0d      	ldr	r3, [sp, #52]	; 0x34
10006fae:	2b00      	cmp	r3, #0
10006fb0:	d007      	beq.n	10006fc2 <_etoa+0xf6>
10006fb2:	980a      	ldr	r0, [sp, #40]	; 0x28
10006fb4:	9909      	ldr	r1, [sp, #36]	; 0x24
10006fb6:	002a      	movs	r2, r5
10006fb8:	0033      	movs	r3, r6
10006fba:	f001 fbda 	bl	10008772 <__wrap___aeabi_ddiv>
10006fbe:	900a      	str	r0, [sp, #40]	; 0x28
10006fc0:	9109      	str	r1, [sp, #36]	; 0x24
10006fc2:	2200      	movs	r2, #0
10006fc4:	2300      	movs	r3, #0
10006fc6:	4640      	mov	r0, r8
10006fc8:	4651      	mov	r1, sl
10006fca:	f001 fc33 	bl	10008834 <__wrap___aeabi_dcmplt>
10006fce:	2800      	cmp	r0, #0
10006fd0:	d005      	beq.n	10006fde <_etoa+0x112>
10006fd2:	2080      	movs	r0, #128	; 0x80
10006fd4:	0600      	lsls	r0, r0, #24
10006fd6:	4684      	mov	ip, r0
10006fd8:	9909      	ldr	r1, [sp, #36]	; 0x24
10006fda:	4461      	add	r1, ip
10006fdc:	9109      	str	r1, [sp, #36]	; 0x24
10006fde:	9a28      	ldr	r2, [sp, #160]	; 0xa0
10006fe0:	4b41      	ldr	r3, [pc, #260]	; (100070e8 <_etoa+0x21c>)
10006fe2:	9d0b      	ldr	r5, [sp, #44]	; 0x2c
10006fe4:	4013      	ands	r3, r2
10006fe6:	9304      	str	r3, [sp, #16]
10006fe8:	9b26      	ldr	r3, [sp, #152]	; 0x98
10006fea:	9a0a      	ldr	r2, [sp, #40]	; 0x28
10006fec:	9302      	str	r3, [sp, #8]
10006fee:	9b09      	ldr	r3, [sp, #36]	; 0x24
10006ff0:	9403      	str	r4, [sp, #12]
10006ff2:	9200      	str	r2, [sp, #0]
10006ff4:	9301      	str	r3, [sp, #4]
10006ff6:	4649      	mov	r1, r9
10006ff8:	465b      	mov	r3, fp
10006ffa:	0028      	movs	r0, r5
10006ffc:	9a0c      	ldr	r2, [sp, #48]	; 0x30
10006ffe:	f000 f98b 	bl	10007318 <_ftoa>
10007002:	0004      	movs	r4, r0
10007004:	2f00      	cmp	r7, #0
10007006:	d062      	beq.n	100070ce <_etoa+0x202>
10007008:	9b28      	ldr	r3, [sp, #160]	; 0xa0
1000700a:	0022      	movs	r2, r4
1000700c:	0698      	lsls	r0, r3, #26
1000700e:	231f      	movs	r3, #31
10007010:	17c0      	asrs	r0, r0, #31
10007012:	4398      	bics	r0, r3
10007014:	1c63      	adds	r3, r4, #1
10007016:	4698      	mov	r8, r3
10007018:	4649      	mov	r1, r9
1000701a:	465b      	mov	r3, fp
1000701c:	3065      	adds	r0, #101	; 0x65
1000701e:	47a8      	blx	r5
10007020:	9b0d      	ldr	r3, [sp, #52]	; 0x34
10007022:	2500      	movs	r5, #0
10007024:	17da      	asrs	r2, r3, #31
10007026:	189c      	adds	r4, r3, r2
10007028:	0fdb      	lsrs	r3, r3, #31
1000702a:	469a      	mov	sl, r3
1000702c:	4054      	eors	r4, r2
1000702e:	3f01      	subs	r7, #1
10007030:	e001      	b.n	10007036 <_etoa+0x16a>
10007032:	2d20      	cmp	r5, #32
10007034:	d013      	beq.n	1000705e <_etoa+0x192>
10007036:	aa0a      	add	r2, sp, #40	; 0x28
10007038:	4694      	mov	ip, r2
1000703a:	231f      	movs	r3, #31
1000703c:	0020      	movs	r0, r4
1000703e:	4463      	add	r3, ip
10007040:	210a      	movs	r1, #10
10007042:	3501      	adds	r5, #1
10007044:	195e      	adds	r6, r3, r5
10007046:	f001 f93f 	bl	100082c8 <__wrap___aeabi_uidiv>
1000704a:	3130      	adds	r1, #48	; 0x30
1000704c:	7031      	strb	r1, [r6, #0]
1000704e:	0020      	movs	r0, r4
10007050:	210a      	movs	r1, #10
10007052:	f001 f939 	bl	100082c8 <__wrap___aeabi_uidiv>
10007056:	0026      	movs	r6, r4
10007058:	0004      	movs	r4, r0
1000705a:	2e09      	cmp	r6, #9
1000705c:	d8e9      	bhi.n	10007032 <_etoa+0x166>
1000705e:	2305      	movs	r3, #5
10007060:	9306      	str	r3, [sp, #24]
10007062:	2300      	movs	r3, #0
10007064:	9304      	str	r3, [sp, #16]
10007066:	330a      	adds	r3, #10
10007068:	9303      	str	r3, [sp, #12]
1000706a:	4653      	mov	r3, sl
1000706c:	9705      	str	r7, [sp, #20]
1000706e:	9f0b      	ldr	r7, [sp, #44]	; 0x2c
10007070:	9302      	str	r3, [sp, #8]
10007072:	ab12      	add	r3, sp, #72	; 0x48
10007074:	9300      	str	r3, [sp, #0]
10007076:	4642      	mov	r2, r8
10007078:	465b      	mov	r3, fp
1000707a:	4649      	mov	r1, r9
1000707c:	0038      	movs	r0, r7
1000707e:	9501      	str	r5, [sp, #4]
10007080:	f7ff fe2e 	bl	10006ce0 <_ntoa_format>
10007084:	9b0e      	ldr	r3, [sp, #56]	; 0x38
10007086:	0004      	movs	r4, r0
10007088:	2b00      	cmp	r3, #0
1000708a:	d020      	beq.n	100070ce <_etoa+0x202>
1000708c:	9b0c      	ldr	r3, [sp, #48]	; 0x30
1000708e:	1ac5      	subs	r5, r0, r3
10007090:	9b27      	ldr	r3, [sp, #156]	; 0x9c
10007092:	42ab      	cmp	r3, r5
10007094:	d91b      	bls.n	100070ce <_etoa+0x202>
10007096:	001e      	movs	r6, r3
10007098:	0022      	movs	r2, r4
1000709a:	465b      	mov	r3, fp
1000709c:	4649      	mov	r1, r9
1000709e:	2020      	movs	r0, #32
100070a0:	3501      	adds	r5, #1
100070a2:	47b8      	blx	r7
100070a4:	3401      	adds	r4, #1
100070a6:	42ae      	cmp	r6, r5
100070a8:	d8f6      	bhi.n	10007098 <_etoa+0x1cc>
100070aa:	e010      	b.n	100070ce <_etoa+0x202>
100070ac:	9b28      	ldr	r3, [sp, #160]	; 0xa0
100070ae:	4642      	mov	r2, r8
100070b0:	9304      	str	r3, [sp, #16]
100070b2:	9b27      	ldr	r3, [sp, #156]	; 0x9c
100070b4:	4649      	mov	r1, r9
100070b6:	9303      	str	r3, [sp, #12]
100070b8:	9b26      	ldr	r3, [sp, #152]	; 0x98
100070ba:	980b      	ldr	r0, [sp, #44]	; 0x2c
100070bc:	9302      	str	r3, [sp, #8]
100070be:	4653      	mov	r3, sl
100070c0:	9200      	str	r2, [sp, #0]
100070c2:	9301      	str	r3, [sp, #4]
100070c4:	465b      	mov	r3, fp
100070c6:	9a0c      	ldr	r2, [sp, #48]	; 0x30
100070c8:	f000 f926 	bl	10007318 <_ftoa>
100070cc:	0004      	movs	r4, r0
100070ce:	0020      	movs	r0, r4
100070d0:	b01b      	add	sp, #108	; 0x6c
100070d2:	bcf0      	pop	{r4, r5, r6, r7}
100070d4:	46bb      	mov	fp, r7
100070d6:	46b2      	mov	sl, r6
100070d8:	46a9      	mov	r9, r5
100070da:	46a0      	mov	r8, r4
100070dc:	bdf0      	pop	{r4, r5, r6, r7, pc}
100070de:	46c0      	nop			; (mov r8, r8)
100070e0:	7fefffff 	.word	0x7fefffff
100070e4:	ffefffff 	.word	0xffefffff
100070e8:	fffff7ff 	.word	0xfffff7ff
100070ec:	4b73      	ldr	r3, [pc, #460]	; (100072bc <_etoa+0x3f0>)
100070ee:	9f09      	ldr	r7, [sp, #36]	; 0x24
100070f0:	469c      	mov	ip, r3
100070f2:	0078      	lsls	r0, r7, #1
100070f4:	0d40      	lsrs	r0, r0, #21
100070f6:	4460      	add	r0, ip
100070f8:	f001 fbca 	bl	10008890 <__wrap___aeabi_i2d>
100070fc:	4a70      	ldr	r2, [pc, #448]	; (100072c0 <_etoa+0x3f4>)
100070fe:	4b71      	ldr	r3, [pc, #452]	; (100072c4 <_etoa+0x3f8>)
10007100:	f001 fb55 	bl	100087ae <__wrap___aeabi_dmul>
10007104:	4a70      	ldr	r2, [pc, #448]	; (100072c8 <_etoa+0x3fc>)
10007106:	4b71      	ldr	r3, [pc, #452]	; (100072cc <_etoa+0x400>)
10007108:	f001 fb2a 	bl	10008760 <__wrap___aeabi_dadd>
1000710c:	033b      	lsls	r3, r7, #12
1000710e:	4a70      	ldr	r2, [pc, #448]	; (100072d0 <_etoa+0x404>)
10007110:	0b1b      	lsrs	r3, r3, #12
10007112:	431a      	orrs	r2, r3
10007114:	0004      	movs	r4, r0
10007116:	000d      	movs	r5, r1
10007118:	0030      	movs	r0, r6
1000711a:	0011      	movs	r1, r2
1000711c:	4b6d      	ldr	r3, [pc, #436]	; (100072d4 <_etoa+0x408>)
1000711e:	2200      	movs	r2, #0
10007120:	f001 fb15 	bl	1000874e <__wrap___aeabi_dsub>
10007124:	4a6c      	ldr	r2, [pc, #432]	; (100072d8 <_etoa+0x40c>)
10007126:	4b6d      	ldr	r3, [pc, #436]	; (100072dc <_etoa+0x410>)
10007128:	f001 fb41 	bl	100087ae <__wrap___aeabi_dmul>
1000712c:	0002      	movs	r2, r0
1000712e:	000b      	movs	r3, r1
10007130:	0020      	movs	r0, r4
10007132:	0029      	movs	r1, r5
10007134:	f001 fb14 	bl	10008760 <__wrap___aeabi_dadd>
10007138:	f001 fbc2 	bl	100088c0 <__wrap___aeabi_d2iz>
1000713c:	900d      	str	r0, [sp, #52]	; 0x34
1000713e:	f001 fba7 	bl	10008890 <__wrap___aeabi_i2d>
10007142:	4a67      	ldr	r2, [pc, #412]	; (100072e0 <_etoa+0x414>)
10007144:	4b67      	ldr	r3, [pc, #412]	; (100072e4 <_etoa+0x418>)
10007146:	0004      	movs	r4, r0
10007148:	000d      	movs	r5, r1
1000714a:	f001 fb30 	bl	100087ae <__wrap___aeabi_dmul>
1000714e:	2200      	movs	r2, #0
10007150:	4b65      	ldr	r3, [pc, #404]	; (100072e8 <_etoa+0x41c>)
10007152:	f001 fb05 	bl	10008760 <__wrap___aeabi_dadd>
10007156:	f001 fbb3 	bl	100088c0 <__wrap___aeabi_d2iz>
1000715a:	4a64      	ldr	r2, [pc, #400]	; (100072ec <_etoa+0x420>)
1000715c:	0006      	movs	r6, r0
1000715e:	4b64      	ldr	r3, [pc, #400]	; (100072f0 <_etoa+0x424>)
10007160:	0020      	movs	r0, r4
10007162:	0029      	movs	r1, r5
10007164:	f001 fb23 	bl	100087ae <__wrap___aeabi_dmul>
10007168:	0004      	movs	r4, r0
1000716a:	0030      	movs	r0, r6
1000716c:	000d      	movs	r5, r1
1000716e:	960f      	str	r6, [sp, #60]	; 0x3c
10007170:	f001 fb8e 	bl	10008890 <__wrap___aeabi_i2d>
10007174:	4a5f      	ldr	r2, [pc, #380]	; (100072f4 <_etoa+0x428>)
10007176:	4b60      	ldr	r3, [pc, #384]	; (100072f8 <_etoa+0x42c>)
10007178:	f001 fb19 	bl	100087ae <__wrap___aeabi_dmul>
1000717c:	0002      	movs	r2, r0
1000717e:	000b      	movs	r3, r1
10007180:	0020      	movs	r0, r4
10007182:	0029      	movs	r1, r5
10007184:	f001 fae3 	bl	1000874e <__wrap___aeabi_dsub>
10007188:	0002      	movs	r2, r0
1000718a:	000b      	movs	r3, r1
1000718c:	0006      	movs	r6, r0
1000718e:	000f      	movs	r7, r1
10007190:	f001 fb0d 	bl	100087ae <__wrap___aeabi_dmul>
10007194:	0032      	movs	r2, r6
10007196:	0004      	movs	r4, r0
10007198:	000d      	movs	r5, r1
1000719a:	003b      	movs	r3, r7
1000719c:	0030      	movs	r0, r6
1000719e:	0039      	movs	r1, r7
100071a0:	f001 fade 	bl	10008760 <__wrap___aeabi_dadd>
100071a4:	2200      	movs	r2, #0
100071a6:	9010      	str	r0, [sp, #64]	; 0x40
100071a8:	9111      	str	r1, [sp, #68]	; 0x44
100071aa:	4b54      	ldr	r3, [pc, #336]	; (100072fc <_etoa+0x430>)
100071ac:	0020      	movs	r0, r4
100071ae:	0029      	movs	r1, r5
100071b0:	f001 fadf 	bl	10008772 <__wrap___aeabi_ddiv>
100071b4:	2200      	movs	r2, #0
100071b6:	4b52      	ldr	r3, [pc, #328]	; (10007300 <_etoa+0x434>)
100071b8:	f001 fad2 	bl	10008760 <__wrap___aeabi_dadd>
100071bc:	0002      	movs	r2, r0
100071be:	000b      	movs	r3, r1
100071c0:	0020      	movs	r0, r4
100071c2:	0029      	movs	r1, r5
100071c4:	f001 fad5 	bl	10008772 <__wrap___aeabi_ddiv>
100071c8:	2200      	movs	r2, #0
100071ca:	4b4e      	ldr	r3, [pc, #312]	; (10007304 <_etoa+0x438>)
100071cc:	f001 fac8 	bl	10008760 <__wrap___aeabi_dadd>
100071d0:	0002      	movs	r2, r0
100071d2:	000b      	movs	r3, r1
100071d4:	0020      	movs	r0, r4
100071d6:	0029      	movs	r1, r5
100071d8:	f001 facb 	bl	10008772 <__wrap___aeabi_ddiv>
100071dc:	000d      	movs	r5, r1
100071de:	2180      	movs	r1, #128	; 0x80
100071e0:	0004      	movs	r4, r0
100071e2:	0032      	movs	r2, r6
100071e4:	003b      	movs	r3, r7
100071e6:	2000      	movs	r0, #0
100071e8:	05c9      	lsls	r1, r1, #23
100071ea:	f001 fab0 	bl	1000874e <__wrap___aeabi_dsub>
100071ee:	0002      	movs	r2, r0
100071f0:	000b      	movs	r3, r1
100071f2:	0020      	movs	r0, r4
100071f4:	0029      	movs	r1, r5
100071f6:	f001 fab3 	bl	10008760 <__wrap___aeabi_dadd>
100071fa:	0002      	movs	r2, r0
100071fc:	000b      	movs	r3, r1
100071fe:	9810      	ldr	r0, [sp, #64]	; 0x40
10007200:	9911      	ldr	r1, [sp, #68]	; 0x44
10007202:	f001 fab6 	bl	10008772 <__wrap___aeabi_ddiv>
10007206:	2200      	movs	r2, #0
10007208:	4b31      	ldr	r3, [pc, #196]	; (100072d0 <_etoa+0x404>)
1000720a:	f001 faa9 	bl	10008760 <__wrap___aeabi_dadd>
1000720e:	4b3e      	ldr	r3, [pc, #248]	; (10007308 <_etoa+0x43c>)
10007210:	9c0f      	ldr	r4, [sp, #60]	; 0x3c
10007212:	469c      	mov	ip, r3
10007214:	4464      	add	r4, ip
10007216:	2200      	movs	r2, #0
10007218:	0523      	lsls	r3, r4, #20
1000721a:	f001 fac8 	bl	100087ae <__wrap___aeabi_dmul>
1000721e:	0005      	movs	r5, r0
10007220:	000e      	movs	r6, r1
10007222:	0002      	movs	r2, r0
10007224:	000b      	movs	r3, r1
10007226:	980a      	ldr	r0, [sp, #40]	; 0x28
10007228:	9909      	ldr	r1, [sp, #36]	; 0x24
1000722a:	f001 fb03 	bl	10008834 <__wrap___aeabi_dcmplt>
1000722e:	2800      	cmp	r0, #0
10007230:	d00a      	beq.n	10007248 <_etoa+0x37c>
10007232:	9b0d      	ldr	r3, [sp, #52]	; 0x34
10007234:	0028      	movs	r0, r5
10007236:	3b01      	subs	r3, #1
10007238:	0031      	movs	r1, r6
1000723a:	930d      	str	r3, [sp, #52]	; 0x34
1000723c:	2200      	movs	r2, #0
1000723e:	4b30      	ldr	r3, [pc, #192]	; (10007300 <_etoa+0x434>)
10007240:	f001 fa97 	bl	10008772 <__wrap___aeabi_ddiv>
10007244:	0005      	movs	r5, r0
10007246:	000e      	movs	r6, r1
10007248:	27c6      	movs	r7, #198	; 0xc6
1000724a:	990d      	ldr	r1, [sp, #52]	; 0x34
1000724c:	002b      	movs	r3, r5
1000724e:	3163      	adds	r1, #99	; 0x63
10007250:	428f      	cmp	r7, r1
10007252:	41bf      	sbcs	r7, r7
10007254:	9928      	ldr	r1, [sp, #160]	; 0xa0
10007256:	427f      	negs	r7, r7
10007258:	3704      	adds	r7, #4
1000725a:	0509      	lsls	r1, r1, #20
1000725c:	d400      	bmi.n	10007260 <_etoa+0x394>
1000725e:	e695      	b.n	10006f8c <_etoa+0xc0>
10007260:	4333      	orrs	r3, r6
10007262:	d100      	bne.n	10007266 <_etoa+0x39a>
10007264:	e682      	b.n	10006f6c <_etoa+0xa0>
10007266:	9c09      	ldr	r4, [sp, #36]	; 0x24
10007268:	4a28      	ldr	r2, [pc, #160]	; (1000730c <_etoa+0x440>)
1000726a:	0021      	movs	r1, r4
1000726c:	4b28      	ldr	r3, [pc, #160]	; (10007310 <_etoa+0x444>)
1000726e:	980a      	ldr	r0, [sp, #40]	; 0x28
10007270:	f001 faee 	bl	10008850 <__wrap___aeabi_dcmpge>
10007274:	2800      	cmp	r0, #0
10007276:	d008      	beq.n	1000728a <_etoa+0x3be>
10007278:	2200      	movs	r2, #0
1000727a:	0021      	movs	r1, r4
1000727c:	4b25      	ldr	r3, [pc, #148]	; (10007314 <_etoa+0x448>)
1000727e:	980a      	ldr	r0, [sp, #40]	; 0x28
10007280:	f001 fad8 	bl	10008834 <__wrap___aeabi_dcmplt>
10007284:	2800      	cmp	r0, #0
10007286:	d000      	beq.n	1000728a <_etoa+0x3be>
10007288:	e670      	b.n	10006f6c <_etoa+0xa0>
1000728a:	9b26      	ldr	r3, [sp, #152]	; 0x98
1000728c:	2b00      	cmp	r3, #0
1000728e:	d100      	bne.n	10007292 <_etoa+0x3c6>
10007290:	e67c      	b.n	10006f8c <_etoa+0xc0>
10007292:	9b0e      	ldr	r3, [sp, #56]	; 0x38
10007294:	1e5a      	subs	r2, r3, #1
10007296:	4193      	sbcs	r3, r2
10007298:	9a26      	ldr	r2, [sp, #152]	; 0x98
1000729a:	1ad3      	subs	r3, r2, r3
1000729c:	9326      	str	r3, [sp, #152]	; 0x98
1000729e:	e675      	b.n	10006f8c <_etoa+0xc0>
100072a0:	2300      	movs	r3, #0
100072a2:	2704      	movs	r7, #4
100072a4:	930d      	str	r3, [sp, #52]	; 0x34
100072a6:	e671      	b.n	10006f8c <_etoa+0xc0>
100072a8:	4643      	mov	r3, r8
100072aa:	930a      	str	r3, [sp, #40]	; 0x28
100072ac:	2380      	movs	r3, #128	; 0x80
100072ae:	061b      	lsls	r3, r3, #24
100072b0:	4453      	add	r3, sl
100072b2:	9309      	str	r3, [sp, #36]	; 0x24
100072b4:	e642      	b.n	10006f3c <_etoa+0x70>
100072b6:	2300      	movs	r3, #0
100072b8:	9326      	str	r3, [sp, #152]	; 0x98
100072ba:	e65f      	b.n	10006f7c <_etoa+0xb0>
100072bc:	fffffc01 	.word	0xfffffc01
100072c0:	509f79fb 	.word	0x509f79fb
100072c4:	3fd34413 	.word	0x3fd34413
100072c8:	8b60c8b3 	.word	0x8b60c8b3
100072cc:	3fc68a28 	.word	0x3fc68a28
100072d0:	3ff00000 	.word	0x3ff00000
100072d4:	3ff80000 	.word	0x3ff80000
100072d8:	636f4361 	.word	0x636f4361
100072dc:	3fd287a7 	.word	0x3fd287a7
100072e0:	0979a371 	.word	0x0979a371
100072e4:	400a934f 	.word	0x400a934f
100072e8:	3fe00000 	.word	0x3fe00000
100072ec:	bbb55516 	.word	0xbbb55516
100072f0:	40026bb1 	.word	0x40026bb1
100072f4:	fefa39ef 	.word	0xfefa39ef
100072f8:	3fe62e42 	.word	0x3fe62e42
100072fc:	402c0000 	.word	0x402c0000
10007300:	40240000 	.word	0x40240000
10007304:	40180000 	.word	0x40180000
10007308:	000003ff 	.word	0x000003ff
1000730c:	eb1c432d 	.word	0xeb1c432d
10007310:	3f1a36e2 	.word	0x3f1a36e2
10007314:	412e8480 	.word	0x412e8480

10007318 <_ftoa>:
10007318:	b5f0      	push	{r4, r5, r6, r7, lr}
1000731a:	464e      	mov	r6, r9
1000731c:	46de      	mov	lr, fp
1000731e:	4657      	mov	r7, sl
10007320:	4645      	mov	r5, r8
10007322:	b5e0      	push	{r5, r6, r7, lr}
10007324:	b097      	sub	sp, #92	; 0x5c
10007326:	4699      	mov	r9, r3
10007328:	9e20      	ldr	r6, [sp, #128]	; 0x80
1000732a:	9f21      	ldr	r7, [sp, #132]	; 0x84
1000732c:	9b22      	ldr	r3, [sp, #136]	; 0x88
1000732e:	4683      	mov	fp, r0
10007330:	4698      	mov	r8, r3
10007332:	9107      	str	r1, [sp, #28]
10007334:	920c      	str	r2, [sp, #48]	; 0x30
10007336:	003b      	movs	r3, r7
10007338:	0032      	movs	r2, r6
1000733a:	0030      	movs	r0, r6
1000733c:	0039      	movs	r1, r7
1000733e:	f001 fa94 	bl	1000886a <__wrap___aeabi_dcmpun>
10007342:	2800      	cmp	r0, #0
10007344:	d000      	beq.n	10007348 <_ftoa+0x30>
10007346:	e1a9      	b.n	1000769c <_ftoa+0x384>
10007348:	2201      	movs	r2, #1
1000734a:	0030      	movs	r0, r6
1000734c:	0039      	movs	r1, r7
1000734e:	4bca      	ldr	r3, [pc, #808]	; (10007678 <_ftoa+0x360>)
10007350:	4252      	negs	r2, r2
10007352:	f001 fa6f 	bl	10008834 <__wrap___aeabi_dcmplt>
10007356:	2800      	cmp	r0, #0
10007358:	d000      	beq.n	1000735c <_ftoa+0x44>
1000735a:	e0e1      	b.n	10007520 <_ftoa+0x208>
1000735c:	2201      	movs	r2, #1
1000735e:	0030      	movs	r0, r6
10007360:	0039      	movs	r1, r7
10007362:	4bc6      	ldr	r3, [pc, #792]	; (1000767c <_ftoa+0x364>)
10007364:	4252      	negs	r2, r2
10007366:	f001 fa7b 	bl	10008860 <__wrap___aeabi_dcmpgt>
1000736a:	2800      	cmp	r0, #0
1000736c:	d000      	beq.n	10007370 <_ftoa+0x58>
1000736e:	e0b7      	b.n	100074e0 <_ftoa+0x1c8>
10007370:	2200      	movs	r2, #0
10007372:	0030      	movs	r0, r6
10007374:	0039      	movs	r1, r7
10007376:	4bc2      	ldr	r3, [pc, #776]	; (10007680 <_ftoa+0x368>)
10007378:	f001 fa72 	bl	10008860 <__wrap___aeabi_dcmpgt>
1000737c:	2800      	cmp	r0, #0
1000737e:	d000      	beq.n	10007382 <_ftoa+0x6a>
10007380:	e099      	b.n	100074b6 <_ftoa+0x19e>
10007382:	2200      	movs	r2, #0
10007384:	0030      	movs	r0, r6
10007386:	0039      	movs	r1, r7
10007388:	4bbe      	ldr	r3, [pc, #760]	; (10007684 <_ftoa+0x36c>)
1000738a:	f001 fa53 	bl	10008834 <__wrap___aeabi_dcmplt>
1000738e:	2800      	cmp	r0, #0
10007390:	d000      	beq.n	10007394 <_ftoa+0x7c>
10007392:	e090      	b.n	100074b6 <_ftoa+0x19e>
10007394:	2200      	movs	r2, #0
10007396:	2300      	movs	r3, #0
10007398:	0030      	movs	r0, r6
1000739a:	0039      	movs	r1, r7
1000739c:	f001 fa4a 	bl	10008834 <__wrap___aeabi_dcmplt>
100073a0:	2800      	cmp	r0, #0
100073a2:	d000      	beq.n	100073a6 <_ftoa+0x8e>
100073a4:	e0b1      	b.n	1000750a <_ftoa+0x1f2>
100073a6:	2300      	movs	r3, #0
100073a8:	930d      	str	r3, [sp, #52]	; 0x34
100073aa:	9b24      	ldr	r3, [sp, #144]	; 0x90
100073ac:	055b      	lsls	r3, r3, #21
100073ae:	d401      	bmi.n	100073b4 <_ftoa+0x9c>
100073b0:	2306      	movs	r3, #6
100073b2:	4698      	mov	r8, r3
100073b4:	ab08      	add	r3, sp, #32
100073b6:	469c      	mov	ip, r3
100073b8:	2217      	movs	r2, #23
100073ba:	2400      	movs	r4, #0
100073bc:	2330      	movs	r3, #48	; 0x30
100073be:	4641      	mov	r1, r8
100073c0:	4462      	add	r2, ip
100073c2:	e004      	b.n	100073ce <_ftoa+0xb6>
100073c4:	3401      	adds	r4, #1
100073c6:	5513      	strb	r3, [r2, r4]
100073c8:	3901      	subs	r1, #1
100073ca:	2c20      	cmp	r4, #32
100073cc:	d001      	beq.n	100073d2 <_ftoa+0xba>
100073ce:	2909      	cmp	r1, #9
100073d0:	d8f8      	bhi.n	100073c4 <_ftoa+0xac>
100073d2:	4688      	mov	r8, r1
100073d4:	0030      	movs	r0, r6
100073d6:	0039      	movs	r1, r7
100073d8:	f001 fa72 	bl	100088c0 <__wrap___aeabi_d2iz>
100073dc:	4643      	mov	r3, r8
100073de:	00da      	lsls	r2, r3, #3
100073e0:	4ba9      	ldr	r3, [pc, #676]	; (10007688 <_ftoa+0x370>)
100073e2:	0005      	movs	r5, r0
100073e4:	189b      	adds	r3, r3, r2
100073e6:	681a      	ldr	r2, [r3, #0]
100073e8:	685b      	ldr	r3, [r3, #4]
100073ea:	9208      	str	r2, [sp, #32]
100073ec:	9309      	str	r3, [sp, #36]	; 0x24
100073ee:	f001 fa4f 	bl	10008890 <__wrap___aeabi_i2d>
100073f2:	0002      	movs	r2, r0
100073f4:	000b      	movs	r3, r1
100073f6:	0030      	movs	r0, r6
100073f8:	0039      	movs	r1, r7
100073fa:	f001 f9a8 	bl	1000874e <__wrap___aeabi_dsub>
100073fe:	9a08      	ldr	r2, [sp, #32]
10007400:	9b09      	ldr	r3, [sp, #36]	; 0x24
10007402:	f001 f9d4 	bl	100087ae <__wrap___aeabi_dmul>
10007406:	900a      	str	r0, [sp, #40]	; 0x28
10007408:	910b      	str	r1, [sp, #44]	; 0x2c
1000740a:	f001 fa7d 	bl	10008908 <__wrap___aeabi_d2uiz>
1000740e:	4682      	mov	sl, r0
10007410:	f001 fa3a 	bl	10008888 <__wrap___aeabi_ui2d>
10007414:	0002      	movs	r2, r0
10007416:	000b      	movs	r3, r1
10007418:	980a      	ldr	r0, [sp, #40]	; 0x28
1000741a:	990b      	ldr	r1, [sp, #44]	; 0x2c
1000741c:	f001 f997 	bl	1000874e <__wrap___aeabi_dsub>
10007420:	2200      	movs	r2, #0
10007422:	4b9a      	ldr	r3, [pc, #616]	; (1000768c <_ftoa+0x374>)
10007424:	900a      	str	r0, [sp, #40]	; 0x28
10007426:	910b      	str	r1, [sp, #44]	; 0x2c
10007428:	f001 fa1a 	bl	10008860 <__wrap___aeabi_dcmpgt>
1000742c:	2800      	cmp	r0, #0
1000742e:	d100      	bne.n	10007432 <_ftoa+0x11a>
10007430:	e0c0      	b.n	100075b4 <_ftoa+0x29c>
10007432:	2301      	movs	r3, #1
10007434:	469c      	mov	ip, r3
10007436:	44e2      	add	sl, ip
10007438:	4650      	mov	r0, sl
1000743a:	f001 fa25 	bl	10008888 <__wrap___aeabi_ui2d>
1000743e:	0002      	movs	r2, r0
10007440:	000b      	movs	r3, r1
10007442:	9808      	ldr	r0, [sp, #32]
10007444:	9909      	ldr	r1, [sp, #36]	; 0x24
10007446:	f001 f9fb 	bl	10008840 <__wrap___aeabi_dcmple>
1000744a:	2800      	cmp	r0, #0
1000744c:	d002      	beq.n	10007454 <_ftoa+0x13c>
1000744e:	2300      	movs	r3, #0
10007450:	469a      	mov	sl, r3
10007452:	3501      	adds	r5, #1
10007454:	4643      	mov	r3, r8
10007456:	2b00      	cmp	r3, #0
10007458:	d06a      	beq.n	10007530 <_ftoa+0x218>
1000745a:	ab08      	add	r3, sp, #32
1000745c:	2617      	movs	r6, #23
1000745e:	469c      	mov	ip, r3
10007460:	9508      	str	r5, [sp, #32]
10007462:	4466      	add	r6, ip
10007464:	4655      	mov	r5, sl
10007466:	e014      	b.n	10007492 <_ftoa+0x17a>
10007468:	2301      	movs	r3, #1
1000746a:	425b      	negs	r3, r3
1000746c:	4443      	add	r3, r8
1000746e:	210a      	movs	r1, #10
10007470:	0028      	movs	r0, r5
10007472:	469a      	mov	sl, r3
10007474:	f000 ff28 	bl	100082c8 <__wrap___aeabi_uidiv>
10007478:	3401      	adds	r4, #1
1000747a:	3130      	adds	r1, #48	; 0x30
1000747c:	1937      	adds	r7, r6, r4
1000747e:	7039      	strb	r1, [r7, #0]
10007480:	0028      	movs	r0, r5
10007482:	210a      	movs	r1, #10
10007484:	f000 ff20 	bl	100082c8 <__wrap___aeabi_uidiv>
10007488:	2d09      	cmp	r5, #9
1000748a:	d800      	bhi.n	1000748e <_ftoa+0x176>
1000748c:	e0d0      	b.n	10007630 <_ftoa+0x318>
1000748e:	46d0      	mov	r8, sl
10007490:	0005      	movs	r5, r0
10007492:	2c20      	cmp	r4, #32
10007494:	d1e8      	bne.n	10007468 <_ftoa+0x150>
10007496:	ab0e      	add	r3, sp, #56	; 0x38
10007498:	4698      	mov	r8, r3
1000749a:	2303      	movs	r3, #3
1000749c:	9a24      	ldr	r2, [sp, #144]	; 0x90
1000749e:	4013      	ands	r3, r2
100074a0:	2b01      	cmp	r3, #1
100074a2:	d100      	bne.n	100074a6 <_ftoa+0x18e>
100074a4:	e096      	b.n	100075d4 <_ftoa+0x2bc>
100074a6:	2320      	movs	r3, #32
100074a8:	9a24      	ldr	r2, [sp, #144]	; 0x90
100074aa:	9301      	str	r3, [sp, #4]
100074ac:	9203      	str	r2, [sp, #12]
100074ae:	9a23      	ldr	r2, [sp, #140]	; 0x8c
100074b0:	4643      	mov	r3, r8
100074b2:	9202      	str	r2, [sp, #8]
100074b4:	e01e      	b.n	100074f4 <_ftoa+0x1dc>
100074b6:	9b24      	ldr	r3, [sp, #144]	; 0x90
100074b8:	4658      	mov	r0, fp
100074ba:	9304      	str	r3, [sp, #16]
100074bc:	9b23      	ldr	r3, [sp, #140]	; 0x8c
100074be:	9600      	str	r6, [sp, #0]
100074c0:	9701      	str	r7, [sp, #4]
100074c2:	9303      	str	r3, [sp, #12]
100074c4:	4643      	mov	r3, r8
100074c6:	9a0c      	ldr	r2, [sp, #48]	; 0x30
100074c8:	9302      	str	r3, [sp, #8]
100074ca:	9907      	ldr	r1, [sp, #28]
100074cc:	464b      	mov	r3, r9
100074ce:	f7ff fcfd 	bl	10006ecc <_etoa>
100074d2:	b017      	add	sp, #92	; 0x5c
100074d4:	bcf0      	pop	{r4, r5, r6, r7}
100074d6:	46bb      	mov	fp, r7
100074d8:	46b2      	mov	sl, r6
100074da:	46a9      	mov	r9, r5
100074dc:	46a0      	mov	r8, r4
100074de:	bdf0      	pop	{r4, r5, r6, r7, pc}
100074e0:	9b24      	ldr	r3, [sp, #144]	; 0x90
100074e2:	075b      	lsls	r3, r3, #29
100074e4:	d40e      	bmi.n	10007504 <_ftoa+0x1ec>
100074e6:	2203      	movs	r2, #3
100074e8:	4b69      	ldr	r3, [pc, #420]	; (10007690 <_ftoa+0x378>)
100074ea:	9924      	ldr	r1, [sp, #144]	; 0x90
100074ec:	9201      	str	r2, [sp, #4]
100074ee:	9103      	str	r1, [sp, #12]
100074f0:	9923      	ldr	r1, [sp, #140]	; 0x8c
100074f2:	9102      	str	r1, [sp, #8]
100074f4:	9300      	str	r3, [sp, #0]
100074f6:	4658      	mov	r0, fp
100074f8:	464b      	mov	r3, r9
100074fa:	9a0c      	ldr	r2, [sp, #48]	; 0x30
100074fc:	9907      	ldr	r1, [sp, #28]
100074fe:	f7ff fba1 	bl	10006c44 <_out_rev>
10007502:	e7e6      	b.n	100074d2 <_ftoa+0x1ba>
10007504:	2204      	movs	r2, #4
10007506:	4b63      	ldr	r3, [pc, #396]	; (10007694 <_ftoa+0x37c>)
10007508:	e7ef      	b.n	100074ea <_ftoa+0x1d2>
1000750a:	003b      	movs	r3, r7
1000750c:	0032      	movs	r2, r6
1000750e:	2000      	movs	r0, #0
10007510:	2100      	movs	r1, #0
10007512:	f001 f91c 	bl	1000874e <__wrap___aeabi_dsub>
10007516:	2301      	movs	r3, #1
10007518:	0006      	movs	r6, r0
1000751a:	000f      	movs	r7, r1
1000751c:	930d      	str	r3, [sp, #52]	; 0x34
1000751e:	e744      	b.n	100073aa <_ftoa+0x92>
10007520:	9b24      	ldr	r3, [sp, #144]	; 0x90
10007522:	9303      	str	r3, [sp, #12]
10007524:	9b23      	ldr	r3, [sp, #140]	; 0x8c
10007526:	9302      	str	r3, [sp, #8]
10007528:	2304      	movs	r3, #4
1000752a:	9301      	str	r3, [sp, #4]
1000752c:	4b5a      	ldr	r3, [pc, #360]	; (10007698 <_ftoa+0x380>)
1000752e:	e7e1      	b.n	100074f4 <_ftoa+0x1dc>
10007530:	0028      	movs	r0, r5
10007532:	f001 f9ad 	bl	10008890 <__wrap___aeabi_i2d>
10007536:	0002      	movs	r2, r0
10007538:	000b      	movs	r3, r1
1000753a:	0030      	movs	r0, r6
1000753c:	0039      	movs	r1, r7
1000753e:	f001 f906 	bl	1000874e <__wrap___aeabi_dsub>
10007542:	4b52      	ldr	r3, [pc, #328]	; (1000768c <_ftoa+0x374>)
10007544:	2200      	movs	r2, #0
10007546:	0006      	movs	r6, r0
10007548:	000f      	movs	r7, r1
1000754a:	f001 f973 	bl	10008834 <__wrap___aeabi_dcmplt>
1000754e:	ab0e      	add	r3, sp, #56	; 0x38
10007550:	4698      	mov	r8, r3
10007552:	2800      	cmp	r0, #0
10007554:	d10a      	bne.n	1000756c <_ftoa+0x254>
10007556:	2200      	movs	r2, #0
10007558:	0030      	movs	r0, r6
1000755a:	0039      	movs	r1, r7
1000755c:	4b4b      	ldr	r3, [pc, #300]	; (1000768c <_ftoa+0x374>)
1000755e:	f001 f97f 	bl	10008860 <__wrap___aeabi_dcmpgt>
10007562:	2800      	cmp	r0, #0
10007564:	d102      	bne.n	1000756c <_ftoa+0x254>
10007566:	07eb      	lsls	r3, r5, #31
10007568:	d500      	bpl.n	1000756c <_ftoa+0x254>
1000756a:	3501      	adds	r5, #1
1000756c:	2c20      	cmp	r4, #32
1000756e:	d094      	beq.n	1000749a <_ftoa+0x182>
10007570:	aa08      	add	r2, sp, #32
10007572:	4694      	mov	ip, r2
10007574:	2317      	movs	r3, #23
10007576:	0028      	movs	r0, r5
10007578:	4463      	add	r3, ip
1000757a:	210a      	movs	r1, #10
1000757c:	3401      	adds	r4, #1
1000757e:	191e      	adds	r6, r3, r4
10007580:	f000 fe7a 	bl	10008278 <__wrap___aeabi_idiv>
10007584:	3130      	adds	r1, #48	; 0x30
10007586:	0028      	movs	r0, r5
10007588:	7031      	strb	r1, [r6, #0]
1000758a:	210a      	movs	r1, #10
1000758c:	f000 fe74 	bl	10008278 <__wrap___aeabi_idiv>
10007590:	1e05      	subs	r5, r0, #0
10007592:	d1eb      	bne.n	1000756c <_ftoa+0x254>
10007594:	2303      	movs	r3, #3
10007596:	9a24      	ldr	r2, [sp, #144]	; 0x90
10007598:	4013      	ands	r3, r2
1000759a:	2b01      	cmp	r3, #1
1000759c:	d01b      	beq.n	100075d6 <_ftoa+0x2be>
1000759e:	2c20      	cmp	r4, #32
100075a0:	d100      	bne.n	100075a4 <_ftoa+0x28c>
100075a2:	e780      	b.n	100074a6 <_ftoa+0x18e>
100075a4:	9b0d      	ldr	r3, [sp, #52]	; 0x34
100075a6:	2b00      	cmp	r3, #0
100075a8:	d035      	beq.n	10007616 <_ftoa+0x2fe>
100075aa:	222d      	movs	r2, #45	; 0x2d
100075ac:	4641      	mov	r1, r8
100075ae:	1c63      	adds	r3, r4, #1
100075b0:	550a      	strb	r2, [r1, r4]
100075b2:	e779      	b.n	100074a8 <_ftoa+0x190>
100075b4:	2200      	movs	r2, #0
100075b6:	980a      	ldr	r0, [sp, #40]	; 0x28
100075b8:	990b      	ldr	r1, [sp, #44]	; 0x2c
100075ba:	4b34      	ldr	r3, [pc, #208]	; (1000768c <_ftoa+0x374>)
100075bc:	f001 f93a 	bl	10008834 <__wrap___aeabi_dcmplt>
100075c0:	2800      	cmp	r0, #0
100075c2:	d000      	beq.n	100075c6 <_ftoa+0x2ae>
100075c4:	e746      	b.n	10007454 <_ftoa+0x13c>
100075c6:	4653      	mov	r3, sl
100075c8:	2b00      	cmp	r3, #0
100075ca:	d151      	bne.n	10007670 <_ftoa+0x358>
100075cc:	2301      	movs	r3, #1
100075ce:	469c      	mov	ip, r3
100075d0:	44e2      	add	sl, ip
100075d2:	e73f      	b.n	10007454 <_ftoa+0x13c>
100075d4:	2420      	movs	r4, #32
100075d6:	9b23      	ldr	r3, [sp, #140]	; 0x8c
100075d8:	2b00      	cmp	r3, #0
100075da:	d0e0      	beq.n	1000759e <_ftoa+0x286>
100075dc:	9b0d      	ldr	r3, [sp, #52]	; 0x34
100075de:	2b00      	cmp	r3, #0
100075e0:	d103      	bne.n	100075ea <_ftoa+0x2d2>
100075e2:	9a24      	ldr	r2, [sp, #144]	; 0x90
100075e4:	330c      	adds	r3, #12
100075e6:	4213      	tst	r3, r2
100075e8:	d002      	beq.n	100075f0 <_ftoa+0x2d8>
100075ea:	9b23      	ldr	r3, [sp, #140]	; 0x8c
100075ec:	3b01      	subs	r3, #1
100075ee:	9323      	str	r3, [sp, #140]	; 0x8c
100075f0:	9b23      	ldr	r3, [sp, #140]	; 0x8c
100075f2:	42a3      	cmp	r3, r4
100075f4:	d9d3      	bls.n	1000759e <_ftoa+0x286>
100075f6:	ab08      	add	r3, sp, #32
100075f8:	469c      	mov	ip, r3
100075fa:	2217      	movs	r2, #23
100075fc:	2330      	movs	r3, #48	; 0x30
100075fe:	4462      	add	r2, ip
10007600:	2c20      	cmp	r4, #32
10007602:	d100      	bne.n	10007606 <_ftoa+0x2ee>
10007604:	e74f      	b.n	100074a6 <_ftoa+0x18e>
10007606:	9923      	ldr	r1, [sp, #140]	; 0x8c
10007608:	3401      	adds	r4, #1
1000760a:	5513      	strb	r3, [r2, r4]
1000760c:	428c      	cmp	r4, r1
1000760e:	d0c6      	beq.n	1000759e <_ftoa+0x286>
10007610:	2c20      	cmp	r4, #32
10007612:	d1f8      	bne.n	10007606 <_ftoa+0x2ee>
10007614:	e747      	b.n	100074a6 <_ftoa+0x18e>
10007616:	9b24      	ldr	r3, [sp, #144]	; 0x90
10007618:	075b      	lsls	r3, r3, #29
1000761a:	d424      	bmi.n	10007666 <_ftoa+0x34e>
1000761c:	9a24      	ldr	r2, [sp, #144]	; 0x90
1000761e:	0023      	movs	r3, r4
10007620:	0712      	lsls	r2, r2, #28
10007622:	d400      	bmi.n	10007626 <_ftoa+0x30e>
10007624:	e740      	b.n	100074a8 <_ftoa+0x190>
10007626:	2220      	movs	r2, #32
10007628:	4641      	mov	r1, r8
1000762a:	3301      	adds	r3, #1
1000762c:	550a      	strb	r2, [r1, r4]
1000762e:	e73b      	b.n	100074a8 <_ftoa+0x190>
10007630:	4657      	mov	r7, sl
10007632:	9d08      	ldr	r5, [sp, #32]
10007634:	2c20      	cmp	r4, #32
10007636:	d100      	bne.n	1000763a <_ftoa+0x322>
10007638:	e72d      	b.n	10007496 <_ftoa+0x17e>
1000763a:	0022      	movs	r2, r4
1000763c:	2130      	movs	r1, #48	; 0x30
1000763e:	4640      	mov	r0, r8
10007640:	2f00      	cmp	r7, #0
10007642:	d009      	beq.n	10007658 <_ftoa+0x340>
10007644:	3201      	adds	r2, #1
10007646:	54b1      	strb	r1, [r6, r2]
10007648:	2a20      	cmp	r2, #32
1000764a:	d100      	bne.n	1000764e <_ftoa+0x336>
1000764c:	e723      	b.n	10007496 <_ftoa+0x17e>
1000764e:	43d3      	mvns	r3, r2
10007650:	191b      	adds	r3, r3, r4
10007652:	181b      	adds	r3, r3, r0
10007654:	2b00      	cmp	r3, #0
10007656:	d1f5      	bne.n	10007644 <_ftoa+0x32c>
10007658:	ab0e      	add	r3, sp, #56	; 0x38
1000765a:	4698      	mov	r8, r3
1000765c:	232e      	movs	r3, #46	; 0x2e
1000765e:	4641      	mov	r1, r8
10007660:	1c54      	adds	r4, r2, #1
10007662:	548b      	strb	r3, [r1, r2]
10007664:	e782      	b.n	1000756c <_ftoa+0x254>
10007666:	222b      	movs	r2, #43	; 0x2b
10007668:	4641      	mov	r1, r8
1000766a:	1c63      	adds	r3, r4, #1
1000766c:	550a      	strb	r2, [r1, r4]
1000766e:	e71b      	b.n	100074a8 <_ftoa+0x190>
10007670:	07db      	lsls	r3, r3, #31
10007672:	d400      	bmi.n	10007676 <_ftoa+0x35e>
10007674:	e6ee      	b.n	10007454 <_ftoa+0x13c>
10007676:	e7a9      	b.n	100075cc <_ftoa+0x2b4>
10007678:	ffefffff 	.word	0xffefffff
1000767c:	7fefffff 	.word	0x7fefffff
10007680:	41cdcd65 	.word	0x41cdcd65
10007684:	c1cdcd65 	.word	0xc1cdcd65
10007688:	1000d460 	.word	0x1000d460
1000768c:	3fe00000 	.word	0x3fe00000
10007690:	1000d268 	.word	0x1000d268
10007694:	1000d26c 	.word	0x1000d26c
10007698:	1000d278 	.word	0x1000d278
1000769c:	9b24      	ldr	r3, [sp, #144]	; 0x90
1000769e:	9303      	str	r3, [sp, #12]
100076a0:	9b23      	ldr	r3, [sp, #140]	; 0x8c
100076a2:	9302      	str	r3, [sp, #8]
100076a4:	2303      	movs	r3, #3
100076a6:	9301      	str	r3, [sp, #4]
100076a8:	4b00      	ldr	r3, [pc, #0]	; (100076ac <_ftoa+0x394>)
100076aa:	e723      	b.n	100074f4 <_ftoa+0x1dc>
100076ac:	1000d274 	.word	0x1000d274

100076b0 <_vsnprintf>:
100076b0:	b5f0      	push	{r4, r5, r6, r7, lr}
100076b2:	46de      	mov	lr, fp
100076b4:	464e      	mov	r6, r9
100076b6:	4657      	mov	r7, sl
100076b8:	4645      	mov	r5, r8
100076ba:	b5e0      	push	{r5, r6, r7, lr}
100076bc:	b09f      	sub	sp, #124	; 0x7c
100076be:	001c      	movs	r4, r3
100076c0:	9b28      	ldr	r3, [sp, #160]	; 0xa0
100076c2:	4691      	mov	r9, r2
100076c4:	9309      	str	r3, [sp, #36]	; 0x24
100076c6:	4ac9      	ldr	r2, [pc, #804]	; (100079ec <_vsnprintf+0x33c>)
100076c8:	4bc9      	ldr	r3, [pc, #804]	; (100079f0 <_vsnprintf+0x340>)
100076ca:	468b      	mov	fp, r1
100076cc:	9008      	str	r0, [sp, #32]
100076ce:	601a      	str	r2, [r3, #0]
100076d0:	2900      	cmp	r1, #0
100076d2:	d100      	bne.n	100076d6 <_vsnprintf+0x26>
100076d4:	e218      	b.n	10007b08 <_vsnprintf+0x458>
100076d6:	2300      	movs	r3, #0
100076d8:	7820      	ldrb	r0, [r4, #0]
100076da:	469a      	mov	sl, r3
100076dc:	2800      	cmp	r0, #0
100076de:	d100      	bne.n	100076e2 <_vsnprintf+0x32>
100076e0:	e21a      	b.n	10007b18 <_vsnprintf+0x468>
100076e2:	0026      	movs	r6, r4
100076e4:	001d      	movs	r5, r3
100076e6:	465c      	mov	r4, fp
100076e8:	e00a      	b.n	10007700 <_vsnprintf+0x50>
100076ea:	002a      	movs	r2, r5
100076ec:	1c6f      	adds	r7, r5, #1
100076ee:	464b      	mov	r3, r9
100076f0:	9d08      	ldr	r5, [sp, #32]
100076f2:	0021      	movs	r1, r4
100076f4:	47a8      	blx	r5
100076f6:	003d      	movs	r5, r7
100076f8:	3601      	adds	r6, #1
100076fa:	7830      	ldrb	r0, [r6, #0]
100076fc:	2800      	cmp	r0, #0
100076fe:	d070      	beq.n	100077e2 <_vsnprintf+0x132>
10007700:	2825      	cmp	r0, #37	; 0x25
10007702:	d1f2      	bne.n	100076ea <_vsnprintf+0x3a>
10007704:	2310      	movs	r3, #16
10007706:	469b      	mov	fp, r3
10007708:	3b08      	subs	r3, #8
1000770a:	469a      	mov	sl, r3
1000770c:	3b04      	subs	r3, #4
1000770e:	4698      	mov	r8, r3
10007710:	3b02      	subs	r3, #2
10007712:	2100      	movs	r1, #0
10007714:	469c      	mov	ip, r3
10007716:	1c72      	adds	r2, r6, #1
10007718:	7810      	ldrb	r0, [r2, #0]
1000771a:	0016      	movs	r6, r2
1000771c:	0003      	movs	r3, r0
1000771e:	3b20      	subs	r3, #32
10007720:	b2db      	uxtb	r3, r3
10007722:	2b10      	cmp	r3, #16
10007724:	d803      	bhi.n	1000772e <_vsnprintf+0x7e>
10007726:	4fb3      	ldr	r7, [pc, #716]	; (100079f4 <_vsnprintf+0x344>)
10007728:	009b      	lsls	r3, r3, #2
1000772a:	58fb      	ldr	r3, [r7, r3]
1000772c:	469f      	mov	pc, r3
1000772e:	0003      	movs	r3, r0
10007730:	3b30      	subs	r3, #48	; 0x30
10007732:	2b09      	cmp	r3, #9
10007734:	d932      	bls.n	1000779c <_vsnprintf+0xec>
10007736:	2300      	movs	r3, #0
10007738:	930a      	str	r3, [sp, #40]	; 0x28
1000773a:	282a      	cmp	r0, #42	; 0x2a
1000773c:	d068      	beq.n	10007810 <_vsnprintf+0x160>
1000773e:	2300      	movs	r3, #0
10007740:	4698      	mov	r8, r3
10007742:	282e      	cmp	r0, #46	; 0x2e
10007744:	d03e      	beq.n	100077c4 <_vsnprintf+0x114>
10007746:	0003      	movs	r3, r0
10007748:	3b68      	subs	r3, #104	; 0x68
1000774a:	b2db      	uxtb	r3, r3
1000774c:	2b12      	cmp	r3, #18
1000774e:	d81c      	bhi.n	1000778a <_vsnprintf+0xda>
10007750:	4aa9      	ldr	r2, [pc, #676]	; (100079f8 <_vsnprintf+0x348>)
10007752:	009b      	lsls	r3, r3, #2
10007754:	58d3      	ldr	r3, [r2, r3]
10007756:	469f      	mov	pc, r3
10007758:	2301      	movs	r3, #1
1000775a:	3201      	adds	r2, #1
1000775c:	4319      	orrs	r1, r3
1000775e:	e7db      	b.n	10007718 <_vsnprintf+0x68>
10007760:	4663      	mov	r3, ip
10007762:	3201      	adds	r2, #1
10007764:	4319      	orrs	r1, r3
10007766:	e7d7      	b.n	10007718 <_vsnprintf+0x68>
10007768:	4643      	mov	r3, r8
1000776a:	3201      	adds	r2, #1
1000776c:	4319      	orrs	r1, r3
1000776e:	e7d3      	b.n	10007718 <_vsnprintf+0x68>
10007770:	465b      	mov	r3, fp
10007772:	3201      	adds	r2, #1
10007774:	4319      	orrs	r1, r3
10007776:	e7cf      	b.n	10007718 <_vsnprintf+0x68>
10007778:	4653      	mov	r3, sl
1000777a:	3201      	adds	r2, #1
1000777c:	4319      	orrs	r1, r3
1000777e:	e7cb      	b.n	10007718 <_vsnprintf+0x68>
10007780:	2380      	movs	r3, #128	; 0x80
10007782:	005b      	lsls	r3, r3, #1
10007784:	7870      	ldrb	r0, [r6, #1]
10007786:	4319      	orrs	r1, r3
10007788:	3601      	adds	r6, #1
1000778a:	0003      	movs	r3, r0
1000778c:	3b25      	subs	r3, #37	; 0x25
1000778e:	b2db      	uxtb	r3, r3
10007790:	2b53      	cmp	r3, #83	; 0x53
10007792:	d8aa      	bhi.n	100076ea <_vsnprintf+0x3a>
10007794:	4a99      	ldr	r2, [pc, #612]	; (100079fc <_vsnprintf+0x34c>)
10007796:	009b      	lsls	r3, r3, #2
10007798:	58d3      	ldr	r3, [r2, r3]
1000779a:	469f      	mov	pc, r3
1000779c:	2700      	movs	r7, #0
1000779e:	0003      	movs	r3, r0
100077a0:	00b8      	lsls	r0, r7, #2
100077a2:	19c0      	adds	r0, r0, r7
100077a4:	3601      	adds	r6, #1
100077a6:	0040      	lsls	r0, r0, #1
100077a8:	18c0      	adds	r0, r0, r3
100077aa:	7833      	ldrb	r3, [r6, #0]
100077ac:	3830      	subs	r0, #48	; 0x30
100077ae:	001a      	movs	r2, r3
100077b0:	3a30      	subs	r2, #48	; 0x30
100077b2:	0007      	movs	r7, r0
100077b4:	2a09      	cmp	r2, #9
100077b6:	d9f3      	bls.n	100077a0 <_vsnprintf+0xf0>
100077b8:	900a      	str	r0, [sp, #40]	; 0x28
100077ba:	0018      	movs	r0, r3
100077bc:	2300      	movs	r3, #0
100077be:	4698      	mov	r8, r3
100077c0:	282e      	cmp	r0, #46	; 0x2e
100077c2:	d1c0      	bne.n	10007746 <_vsnprintf+0x96>
100077c4:	2380      	movs	r3, #128	; 0x80
100077c6:	7870      	ldrb	r0, [r6, #1]
100077c8:	00db      	lsls	r3, r3, #3
100077ca:	4319      	orrs	r1, r3
100077cc:	0003      	movs	r3, r0
100077ce:	3b30      	subs	r3, #48	; 0x30
100077d0:	1c72      	adds	r2, r6, #1
100077d2:	2b09      	cmp	r3, #9
100077d4:	d800      	bhi.n	100077d8 <_vsnprintf+0x128>
100077d6:	e1a1      	b.n	10007b1c <_vsnprintf+0x46c>
100077d8:	282a      	cmp	r0, #42	; 0x2a
100077da:	d100      	bne.n	100077de <_vsnprintf+0x12e>
100077dc:	e1b2      	b.n	10007b44 <_vsnprintf+0x494>
100077de:	0016      	movs	r6, r2
100077e0:	e7b1      	b.n	10007746 <_vsnprintf+0x96>
100077e2:	46a3      	mov	fp, r4
100077e4:	46aa      	mov	sl, r5
100077e6:	002c      	movs	r4, r5
100077e8:	45d1      	cmp	r9, sl
100077ea:	d803      	bhi.n	100077f4 <_vsnprintf+0x144>
100077ec:	2301      	movs	r3, #1
100077ee:	425b      	negs	r3, r3
100077f0:	444b      	add	r3, r9
100077f2:	469a      	mov	sl, r3
100077f4:	464b      	mov	r3, r9
100077f6:	4652      	mov	r2, sl
100077f8:	4659      	mov	r1, fp
100077fa:	2000      	movs	r0, #0
100077fc:	9d08      	ldr	r5, [sp, #32]
100077fe:	47a8      	blx	r5
10007800:	0020      	movs	r0, r4
10007802:	b01f      	add	sp, #124	; 0x7c
10007804:	bcf0      	pop	{r4, r5, r6, r7}
10007806:	46bb      	mov	fp, r7
10007808:	46b2      	mov	sl, r6
1000780a:	46a9      	mov	r9, r5
1000780c:	46a0      	mov	r8, r4
1000780e:	bdf0      	pop	{r4, r5, r6, r7, pc}
10007810:	9b09      	ldr	r3, [sp, #36]	; 0x24
10007812:	cb40      	ldmia	r3!, {r6}
10007814:	960a      	str	r6, [sp, #40]	; 0x28
10007816:	2e00      	cmp	r6, #0
10007818:	db03      	blt.n	10007822 <_vsnprintf+0x172>
1000781a:	7850      	ldrb	r0, [r2, #1]
1000781c:	9309      	str	r3, [sp, #36]	; 0x24
1000781e:	1c56      	adds	r6, r2, #1
10007820:	e78d      	b.n	1000773e <_vsnprintf+0x8e>
10007822:	3828      	subs	r0, #40	; 0x28
10007824:	4301      	orrs	r1, r0
10007826:	4270      	negs	r0, r6
10007828:	900a      	str	r0, [sp, #40]	; 0x28
1000782a:	9309      	str	r3, [sp, #36]	; 0x24
1000782c:	7850      	ldrb	r0, [r2, #1]
1000782e:	1c56      	adds	r6, r2, #1
10007830:	e785      	b.n	1000773e <_vsnprintf+0x8e>
10007832:	2878      	cmp	r0, #120	; 0x78
10007834:	d100      	bne.n	10007838 <_vsnprintf+0x188>
10007836:	e1df      	b.n	10007bf8 <_vsnprintf+0x548>
10007838:	2858      	cmp	r0, #88	; 0x58
1000783a:	d100      	bne.n	1000783e <_vsnprintf+0x18e>
1000783c:	e24c      	b.n	10007cd8 <_vsnprintf+0x628>
1000783e:	286f      	cmp	r0, #111	; 0x6f
10007840:	d100      	bne.n	10007844 <_vsnprintf+0x194>
10007842:	e34f      	b.n	10007ee4 <_vsnprintf+0x834>
10007844:	2862      	cmp	r0, #98	; 0x62
10007846:	d101      	bne.n	1000784c <_vsnprintf+0x19c>
10007848:	f000 fc30 	bl	100080ac <_vsnprintf+0x9fc>
1000784c:	2310      	movs	r3, #16
1000784e:	000a      	movs	r2, r1
10007850:	439a      	bics	r2, r3
10007852:	920b      	str	r2, [sp, #44]	; 0x2c
10007854:	2869      	cmp	r0, #105	; 0x69
10007856:	d001      	beq.n	1000785c <_vsnprintf+0x1ac>
10007858:	f000 fca9 	bl	100081ae <_vsnprintf+0xafe>
1000785c:	230a      	movs	r3, #10
1000785e:	930c      	str	r3, [sp, #48]	; 0x30
10007860:	054b      	lsls	r3, r1, #21
10007862:	d500      	bpl.n	10007866 <_vsnprintf+0x1b6>
10007864:	e1d0      	b.n	10007c08 <_vsnprintf+0x558>
10007866:	9a0b      	ldr	r2, [sp, #44]	; 0x2c
10007868:	2380      	movs	r3, #128	; 0x80
1000786a:	0011      	movs	r1, r2
1000786c:	009b      	lsls	r3, r3, #2
1000786e:	4019      	ands	r1, r3
10007870:	468b      	mov	fp, r1
10007872:	421a      	tst	r2, r3
10007874:	d000      	beq.n	10007878 <_vsnprintf+0x1c8>
10007876:	e2a1      	b.n	10007dbc <_vsnprintf+0x70c>
10007878:	2380      	movs	r3, #128	; 0x80
1000787a:	0011      	movs	r1, r2
1000787c:	005b      	lsls	r3, r3, #1
1000787e:	4019      	ands	r1, r3
10007880:	468a      	mov	sl, r1
10007882:	421a      	tst	r2, r3
10007884:	d000      	beq.n	10007888 <_vsnprintf+0x1d8>
10007886:	e3b6      	b.n	10007ff6 <_vsnprintf+0x946>
10007888:	0013      	movs	r3, r2
1000788a:	065b      	lsls	r3, r3, #25
1000788c:	d500      	bpl.n	10007890 <_vsnprintf+0x1e0>
1000788e:	e2ed      	b.n	10007e6c <_vsnprintf+0x7bc>
10007890:	0013      	movs	r3, r2
10007892:	9909      	ldr	r1, [sp, #36]	; 0x24
10007894:	061b      	lsls	r3, r3, #24
10007896:	d401      	bmi.n	1000789c <_vsnprintf+0x1ec>
10007898:	f000 fc76 	bl	10008188 <_vsnprintf+0xad8>
1000789c:	c908      	ldmia	r1!, {r3}
1000789e:	b21b      	sxth	r3, r3
100078a0:	17d8      	asrs	r0, r3, #31
100078a2:	181a      	adds	r2, r3, r0
100078a4:	4042      	eors	r2, r0
100078a6:	b292      	uxth	r2, r2
100078a8:	9109      	str	r1, [sp, #36]	; 0x24
100078aa:	4693      	mov	fp, r2
100078ac:	0fda      	lsrs	r2, r3, #31
100078ae:	9212      	str	r2, [sp, #72]	; 0x48
100078b0:	2b00      	cmp	r3, #0
100078b2:	d109      	bne.n	100078c8 <_vsnprintf+0x218>
100078b4:	2380      	movs	r3, #128	; 0x80
100078b6:	2210      	movs	r2, #16
100078b8:	990b      	ldr	r1, [sp, #44]	; 0x2c
100078ba:	00db      	lsls	r3, r3, #3
100078bc:	400b      	ands	r3, r1
100078be:	4391      	bics	r1, r2
100078c0:	910b      	str	r1, [sp, #44]	; 0x2c
100078c2:	2b00      	cmp	r3, #0
100078c4:	d000      	beq.n	100078c8 <_vsnprintf+0x218>
100078c6:	e2e4      	b.n	10007e92 <_vsnprintf+0x7e2>
100078c8:	9a0b      	ldr	r2, [sp, #44]	; 0x2c
100078ca:	2361      	movs	r3, #97	; 0x61
100078cc:	0692      	lsls	r2, r2, #26
100078ce:	d500      	bpl.n	100078d2 <_vsnprintf+0x222>
100078d0:	2341      	movs	r3, #65	; 0x41
100078d2:	a90e      	add	r1, sp, #56	; 0x38
100078d4:	221f      	movs	r2, #31
100078d6:	468c      	mov	ip, r1
100078d8:	b2db      	uxtb	r3, r3
100078da:	4462      	add	r2, ip
100078dc:	3b0a      	subs	r3, #10
100078de:	465f      	mov	r7, fp
100078e0:	9513      	str	r5, [sp, #76]	; 0x4c
100078e2:	46a3      	mov	fp, r4
100078e4:	4655      	mov	r5, sl
100078e6:	9c0c      	ldr	r4, [sp, #48]	; 0x30
100078e8:	46b2      	mov	sl, r6
100078ea:	930d      	str	r3, [sp, #52]	; 0x34
100078ec:	0016      	movs	r6, r2
100078ee:	e00a      	b.n	10007906 <_vsnprintf+0x256>
100078f0:	3330      	adds	r3, #48	; 0x30
100078f2:	b2db      	uxtb	r3, r3
100078f4:	3501      	adds	r5, #1
100078f6:	5573      	strb	r3, [r6, r5]
100078f8:	42a7      	cmp	r7, r4
100078fa:	d200      	bcs.n	100078fe <_vsnprintf+0x24e>
100078fc:	e2ed      	b.n	10007eda <_vsnprintf+0x82a>
100078fe:	2d20      	cmp	r5, #32
10007900:	d100      	bne.n	10007904 <_vsnprintf+0x254>
10007902:	e2ea      	b.n	10007eda <_vsnprintf+0x82a>
10007904:	0007      	movs	r7, r0
10007906:	0021      	movs	r1, r4
10007908:	0038      	movs	r0, r7
1000790a:	f000 fcdd 	bl	100082c8 <__wrap___aeabi_uidiv>
1000790e:	b2cb      	uxtb	r3, r1
10007910:	2909      	cmp	r1, #9
10007912:	d9ed      	bls.n	100078f0 <_vsnprintf+0x240>
10007914:	9a0d      	ldr	r2, [sp, #52]	; 0x34
10007916:	4694      	mov	ip, r2
10007918:	4463      	add	r3, ip
1000791a:	b2db      	uxtb	r3, r3
1000791c:	e7ea      	b.n	100078f4 <_vsnprintf+0x244>
1000791e:	2380      	movs	r3, #128	; 0x80
10007920:	009b      	lsls	r3, r3, #2
10007922:	7870      	ldrb	r0, [r6, #1]
10007924:	4319      	orrs	r1, r3
10007926:	3601      	adds	r6, #1
10007928:	e72f      	b.n	1000778a <_vsnprintf+0xda>
1000792a:	7870      	ldrb	r0, [r6, #1]
1000792c:	2868      	cmp	r0, #104	; 0x68
1000792e:	d100      	bne.n	10007932 <_vsnprintf+0x282>
10007930:	e1cd      	b.n	10007cce <_vsnprintf+0x61e>
10007932:	2380      	movs	r3, #128	; 0x80
10007934:	3601      	adds	r6, #1
10007936:	4319      	orrs	r1, r3
10007938:	e727      	b.n	1000778a <_vsnprintf+0xda>
1000793a:	7870      	ldrb	r0, [r6, #1]
1000793c:	286c      	cmp	r0, #108	; 0x6c
1000793e:	d100      	bne.n	10007942 <_vsnprintf+0x292>
10007940:	e1bf      	b.n	10007cc2 <_vsnprintf+0x612>
10007942:	2380      	movs	r3, #128	; 0x80
10007944:	005b      	lsls	r3, r3, #1
10007946:	4319      	orrs	r1, r3
10007948:	3601      	adds	r6, #1
1000794a:	e71e      	b.n	1000778a <_vsnprintf+0xda>
1000794c:	2846      	cmp	r0, #70	; 0x46
1000794e:	d100      	bne.n	10007952 <_vsnprintf+0x2a2>
10007950:	e19b      	b.n	10007c8a <_vsnprintf+0x5da>
10007952:	2207      	movs	r2, #7
10007954:	9b09      	ldr	r3, [sp, #36]	; 0x24
10007956:	9104      	str	r1, [sp, #16]
10007958:	3307      	adds	r3, #7
1000795a:	4393      	bics	r3, r2
1000795c:	9a0a      	ldr	r2, [sp, #40]	; 0x28
1000795e:	0019      	movs	r1, r3
10007960:	9203      	str	r2, [sp, #12]
10007962:	4642      	mov	r2, r8
10007964:	9202      	str	r2, [sp, #8]
10007966:	c90c      	ldmia	r1!, {r2, r3}
10007968:	9808      	ldr	r0, [sp, #32]
1000796a:	9200      	str	r2, [sp, #0]
1000796c:	9301      	str	r3, [sp, #4]
1000796e:	9109      	str	r1, [sp, #36]	; 0x24
10007970:	002a      	movs	r2, r5
10007972:	464b      	mov	r3, r9
10007974:	0021      	movs	r1, r4
10007976:	f7ff fccf 	bl	10007318 <_ftoa>
1000797a:	3601      	adds	r6, #1
1000797c:	0005      	movs	r5, r0
1000797e:	e6bc      	b.n	100076fa <_vsnprintf+0x4a>
10007980:	002a      	movs	r2, r5
10007982:	1c6f      	adds	r7, r5, #1
10007984:	464b      	mov	r3, r9
10007986:	9d08      	ldr	r5, [sp, #32]
10007988:	0021      	movs	r1, r4
1000798a:	2025      	movs	r0, #37	; 0x25
1000798c:	47a8      	blx	r5
1000798e:	3601      	adds	r6, #1
10007990:	003d      	movs	r5, r7
10007992:	e6b2      	b.n	100076fa <_vsnprintf+0x4a>
10007994:	078b      	lsls	r3, r1, #30
10007996:	d400      	bmi.n	1000799a <_vsnprintf+0x2ea>
10007998:	e1ad      	b.n	10007cf6 <_vsnprintf+0x646>
1000799a:	9b09      	ldr	r3, [sp, #36]	; 0x24
1000799c:	002a      	movs	r2, r5
1000799e:	469a      	mov	sl, r3
100079a0:	1c6b      	adds	r3, r5, #1
100079a2:	4698      	mov	r8, r3
100079a4:	4653      	mov	r3, sl
100079a6:	cb01      	ldmia	r3!, {r0}
100079a8:	0021      	movs	r1, r4
100079aa:	469a      	mov	sl, r3
100079ac:	9f08      	ldr	r7, [sp, #32]
100079ae:	464b      	mov	r3, r9
100079b0:	b2c0      	uxtb	r0, r0
100079b2:	47b8      	blx	r7
100079b4:	9b0a      	ldr	r3, [sp, #40]	; 0x28
100079b6:	469c      	mov	ip, r3
100079b8:	4465      	add	r5, ip
100079ba:	2b01      	cmp	r3, #1
100079bc:	d800      	bhi.n	100079c0 <_vsnprintf+0x310>
100079be:	e286      	b.n	10007ece <_vsnprintf+0x81e>
100079c0:	9b08      	ldr	r3, [sp, #32]
100079c2:	4647      	mov	r7, r8
100079c4:	46b0      	mov	r8, r6
100079c6:	0026      	movs	r6, r4
100079c8:	464c      	mov	r4, r9
100079ca:	4699      	mov	r9, r3
100079cc:	003a      	movs	r2, r7
100079ce:	0023      	movs	r3, r4
100079d0:	3701      	adds	r7, #1
100079d2:	0031      	movs	r1, r6
100079d4:	2020      	movs	r0, #32
100079d6:	47c8      	blx	r9
100079d8:	42af      	cmp	r7, r5
100079da:	d1f7      	bne.n	100079cc <_vsnprintf+0x31c>
100079dc:	46a1      	mov	r9, r4
100079de:	4653      	mov	r3, sl
100079e0:	0034      	movs	r4, r6
100079e2:	4646      	mov	r6, r8
100079e4:	9309      	str	r3, [sp, #36]	; 0x24
100079e6:	3601      	adds	r6, #1
100079e8:	e687      	b.n	100076fa <_vsnprintf+0x4a>
100079ea:	46c0      	nop			; (mov r8, r8)
100079ec:	100076b1 	.word	0x100076b1
100079f0:	2000162c 	.word	0x2000162c
100079f4:	1000d280 	.word	0x1000d280
100079f8:	1000d2c4 	.word	0x1000d2c4
100079fc:	1000d310 	.word	0x1000d310
10007a00:	9b09      	ldr	r3, [sp, #36]	; 0x24
10007a02:	cb04      	ldmia	r3!, {r2}
10007a04:	469b      	mov	fp, r3
10007a06:	4643      	mov	r3, r8
10007a08:	9209      	str	r2, [sp, #36]	; 0x24
10007a0a:	2b00      	cmp	r3, #0
10007a0c:	d100      	bne.n	10007a10 <_vsnprintf+0x360>
10007a0e:	e0c6      	b.n	10007b9e <_vsnprintf+0x4ee>
10007a10:	7813      	ldrb	r3, [r2, #0]
10007a12:	469c      	mov	ip, r3
10007a14:	2b00      	cmp	r3, #0
10007a16:	d100      	bne.n	10007a1a <_vsnprintf+0x36a>
10007a18:	e3bd      	b.n	10008196 <_vsnprintf+0xae6>
10007a1a:	4643      	mov	r3, r8
10007a1c:	3b01      	subs	r3, #1
10007a1e:	9a09      	ldr	r2, [sp, #36]	; 0x24
10007a20:	3301      	adds	r3, #1
10007a22:	18d0      	adds	r0, r2, r3
10007a24:	9f0a      	ldr	r7, [sp, #40]	; 0x28
10007a26:	0013      	movs	r3, r2
10007a28:	e001      	b.n	10007a2e <_vsnprintf+0x37e>
10007a2a:	4283      	cmp	r3, r0
10007a2c:	d003      	beq.n	10007a36 <_vsnprintf+0x386>
10007a2e:	785a      	ldrb	r2, [r3, #1]
10007a30:	3301      	adds	r3, #1
10007a32:	2a00      	cmp	r2, #0
10007a34:	d1f9      	bne.n	10007a2a <_vsnprintf+0x37a>
10007a36:	9a09      	ldr	r2, [sp, #36]	; 0x24
10007a38:	970a      	str	r7, [sp, #40]	; 0x28
10007a3a:	1a9b      	subs	r3, r3, r2
10007a3c:	930b      	str	r3, [sp, #44]	; 0x2c
10007a3e:	2380      	movs	r3, #128	; 0x80
10007a40:	000a      	movs	r2, r1
10007a42:	00db      	lsls	r3, r3, #3
10007a44:	401a      	ands	r2, r3
10007a46:	920c      	str	r2, [sp, #48]	; 0x30
10007a48:	4219      	tst	r1, r3
10007a4a:	d004      	beq.n	10007a56 <_vsnprintf+0x3a6>
10007a4c:	9b0b      	ldr	r3, [sp, #44]	; 0x2c
10007a4e:	4543      	cmp	r3, r8
10007a50:	d901      	bls.n	10007a56 <_vsnprintf+0x3a6>
10007a52:	4643      	mov	r3, r8
10007a54:	930b      	str	r3, [sp, #44]	; 0x2c
10007a56:	2302      	movs	r3, #2
10007a58:	001a      	movs	r2, r3
10007a5a:	400a      	ands	r2, r1
10007a5c:	920d      	str	r2, [sp, #52]	; 0x34
10007a5e:	420b      	tst	r3, r1
10007a60:	d100      	bne.n	10007a64 <_vsnprintf+0x3b4>
10007a62:	e187      	b.n	10007d74 <_vsnprintf+0x6c4>
10007a64:	4660      	mov	r0, ip
10007a66:	2800      	cmp	r0, #0
10007a68:	d100      	bne.n	10007a6c <_vsnprintf+0x3bc>
10007a6a:	e168      	b.n	10007d3e <_vsnprintf+0x68e>
10007a6c:	9b0c      	ldr	r3, [sp, #48]	; 0x30
10007a6e:	2b00      	cmp	r3, #0
10007a70:	d100      	bne.n	10007a74 <_vsnprintf+0x3c4>
10007a72:	e10d      	b.n	10007c90 <_vsnprintf+0x5e0>
10007a74:	44a8      	add	r8, r5
10007a76:	46c2      	mov	sl, r8
10007a78:	9b09      	ldr	r3, [sp, #36]	; 0x24
10007a7a:	4657      	mov	r7, sl
10007a7c:	1b5b      	subs	r3, r3, r5
10007a7e:	4698      	mov	r8, r3
10007a80:	9b08      	ldr	r3, [sp, #32]
10007a82:	46b2      	mov	sl, r6
10007a84:	002a      	movs	r2, r5
10007a86:	0026      	movs	r6, r4
10007a88:	464c      	mov	r4, r9
10007a8a:	4699      	mov	r9, r3
10007a8c:	e009      	b.n	10007aa2 <_vsnprintf+0x3f2>
10007a8e:	0023      	movs	r3, r4
10007a90:	0031      	movs	r1, r6
10007a92:	1c55      	adds	r5, r2, #1
10007a94:	47c8      	blx	r9
10007a96:	4643      	mov	r3, r8
10007a98:	5d58      	ldrb	r0, [r3, r5]
10007a9a:	2800      	cmp	r0, #0
10007a9c:	d100      	bne.n	10007aa0 <_vsnprintf+0x3f0>
10007a9e:	e126      	b.n	10007cee <_vsnprintf+0x63e>
10007aa0:	002a      	movs	r2, r5
10007aa2:	4297      	cmp	r7, r2
10007aa4:	d1f3      	bne.n	10007a8e <_vsnprintf+0x3de>
10007aa6:	46a1      	mov	r9, r4
10007aa8:	003d      	movs	r5, r7
10007aaa:	0034      	movs	r4, r6
10007aac:	4656      	mov	r6, sl
10007aae:	9b0d      	ldr	r3, [sp, #52]	; 0x34
10007ab0:	2b00      	cmp	r3, #0
10007ab2:	d000      	beq.n	10007ab6 <_vsnprintf+0x406>
10007ab4:	e143      	b.n	10007d3e <_vsnprintf+0x68e>
10007ab6:	465b      	mov	r3, fp
10007ab8:	3601      	adds	r6, #1
10007aba:	9309      	str	r3, [sp, #36]	; 0x24
10007abc:	e61d      	b.n	100076fa <_vsnprintf+0x4a>
10007abe:	9b09      	ldr	r3, [sp, #36]	; 0x24
10007ac0:	001a      	movs	r2, r3
10007ac2:	ca08      	ldmia	r2!, {r3}
10007ac4:	4692      	mov	sl, r2
10007ac6:	2b00      	cmp	r3, #0
10007ac8:	d048      	beq.n	10007b5c <_vsnprintf+0x4ac>
10007aca:	2221      	movs	r2, #33	; 0x21
10007acc:	4311      	orrs	r1, r2
10007ace:	468b      	mov	fp, r1
10007ad0:	a80e      	add	r0, sp, #56	; 0x38
10007ad2:	4684      	mov	ip, r0
10007ad4:	211f      	movs	r1, #31
10007ad6:	4461      	add	r1, ip
10007ad8:	9509      	str	r5, [sp, #36]	; 0x24
10007ada:	2200      	movs	r2, #0
10007adc:	270f      	movs	r7, #15
10007ade:	46a4      	mov	ip, r4
10007ae0:	000d      	movs	r5, r1
10007ae2:	e002      	b.n	10007aea <_vsnprintf+0x43a>
10007ae4:	2a20      	cmp	r2, #32
10007ae6:	d00c      	beq.n	10007b02 <_vsnprintf+0x452>
10007ae8:	000b      	movs	r3, r1
10007aea:	003c      	movs	r4, r7
10007aec:	401c      	ands	r4, r3
10007aee:	0020      	movs	r0, r4
10007af0:	3037      	adds	r0, #55	; 0x37
10007af2:	2c09      	cmp	r4, #9
10007af4:	d800      	bhi.n	10007af8 <_vsnprintf+0x448>
10007af6:	3807      	subs	r0, #7
10007af8:	3201      	adds	r2, #1
10007afa:	54a8      	strb	r0, [r5, r2]
10007afc:	0919      	lsrs	r1, r3, #4
10007afe:	2b0f      	cmp	r3, #15
10007b00:	d8f0      	bhi.n	10007ae4 <_vsnprintf+0x434>
10007b02:	4664      	mov	r4, ip
10007b04:	9d09      	ldr	r5, [sp, #36]	; 0x24
10007b06:	e032      	b.n	10007b6e <_vsnprintf+0x4be>
10007b08:	4bdc      	ldr	r3, [pc, #880]	; (10007e7c <_vsnprintf+0x7cc>)
10007b0a:	7820      	ldrb	r0, [r4, #0]
10007b0c:	9308      	str	r3, [sp, #32]
10007b0e:	2300      	movs	r3, #0
10007b10:	469a      	mov	sl, r3
10007b12:	2800      	cmp	r0, #0
10007b14:	d000      	beq.n	10007b18 <_vsnprintf+0x468>
10007b16:	e5e4      	b.n	100076e2 <_vsnprintf+0x32>
10007b18:	2400      	movs	r4, #0
10007b1a:	e665      	b.n	100077e8 <_vsnprintf+0x138>
10007b1c:	4643      	mov	r3, r8
10007b1e:	0006      	movs	r6, r0
10007b20:	9f0a      	ldr	r7, [sp, #40]	; 0x28
10007b22:	0098      	lsls	r0, r3, #2
10007b24:	18c0      	adds	r0, r0, r3
10007b26:	3201      	adds	r2, #1
10007b28:	0040      	lsls	r0, r0, #1
10007b2a:	1980      	adds	r0, r0, r6
10007b2c:	7816      	ldrb	r6, [r2, #0]
10007b2e:	0003      	movs	r3, r0
10007b30:	0030      	movs	r0, r6
10007b32:	3830      	subs	r0, #48	; 0x30
10007b34:	3b30      	subs	r3, #48	; 0x30
10007b36:	2809      	cmp	r0, #9
10007b38:	d9f3      	bls.n	10007b22 <_vsnprintf+0x472>
10007b3a:	0030      	movs	r0, r6
10007b3c:	4698      	mov	r8, r3
10007b3e:	0016      	movs	r6, r2
10007b40:	970a      	str	r7, [sp, #40]	; 0x28
10007b42:	e600      	b.n	10007746 <_vsnprintf+0x96>
10007b44:	9b09      	ldr	r3, [sp, #36]	; 0x24
10007b46:	3602      	adds	r6, #2
10007b48:	cb04      	ldmia	r3!, {r2}
10007b4a:	4690      	mov	r8, r2
10007b4c:	43d2      	mvns	r2, r2
10007b4e:	4640      	mov	r0, r8
10007b50:	17d2      	asrs	r2, r2, #31
10007b52:	4010      	ands	r0, r2
10007b54:	4680      	mov	r8, r0
10007b56:	9309      	str	r3, [sp, #36]	; 0x24
10007b58:	7830      	ldrb	r0, [r6, #0]
10007b5a:	e5f4      	b.n	10007746 <_vsnprintf+0x96>
10007b5c:	2210      	movs	r2, #16
10007b5e:	0008      	movs	r0, r1
10007b60:	4390      	bics	r0, r2
10007b62:	3211      	adds	r2, #17
10007b64:	4310      	orrs	r0, r2
10007b66:	4683      	mov	fp, r0
10007b68:	2200      	movs	r2, #0
10007b6a:	0549      	lsls	r1, r1, #21
10007b6c:	d5b0      	bpl.n	10007ad0 <_vsnprintf+0x420>
10007b6e:	465b      	mov	r3, fp
10007b70:	9306      	str	r3, [sp, #24]
10007b72:	2308      	movs	r3, #8
10007b74:	9305      	str	r3, [sp, #20]
10007b76:	4643      	mov	r3, r8
10007b78:	9304      	str	r3, [sp, #16]
10007b7a:	2310      	movs	r3, #16
10007b7c:	9303      	str	r3, [sp, #12]
10007b7e:	2300      	movs	r3, #0
10007b80:	9302      	str	r3, [sp, #8]
10007b82:	ab16      	add	r3, sp, #88	; 0x58
10007b84:	9201      	str	r2, [sp, #4]
10007b86:	9300      	str	r3, [sp, #0]
10007b88:	002a      	movs	r2, r5
10007b8a:	464b      	mov	r3, r9
10007b8c:	0021      	movs	r1, r4
10007b8e:	9808      	ldr	r0, [sp, #32]
10007b90:	f7ff f8a6 	bl	10006ce0 <_ntoa_format>
10007b94:	4653      	mov	r3, sl
10007b96:	0005      	movs	r5, r0
10007b98:	3601      	adds	r6, #1
10007b9a:	9309      	str	r3, [sp, #36]	; 0x24
10007b9c:	e5ad      	b.n	100076fa <_vsnprintf+0x4a>
10007b9e:	7813      	ldrb	r3, [r2, #0]
10007ba0:	469c      	mov	ip, r3
10007ba2:	2b00      	cmp	r3, #0
10007ba4:	d100      	bne.n	10007ba8 <_vsnprintf+0x4f8>
10007ba6:	e2f7      	b.n	10008198 <_vsnprintf+0xae8>
10007ba8:	2302      	movs	r3, #2
10007baa:	425b      	negs	r3, r3
10007bac:	e737      	b.n	10007a1e <_vsnprintf+0x36e>
10007bae:	2320      	movs	r3, #32
10007bb0:	0002      	movs	r2, r0
10007bb2:	439a      	bics	r2, r3
10007bb4:	2a47      	cmp	r2, #71	; 0x47
10007bb6:	d104      	bne.n	10007bc2 <_vsnprintf+0x512>
10007bb8:	2380      	movs	r3, #128	; 0x80
10007bba:	011b      	lsls	r3, r3, #4
10007bbc:	4319      	orrs	r1, r3
10007bbe:	2302      	movs	r3, #2
10007bc0:	4398      	bics	r0, r3
10007bc2:	2845      	cmp	r0, #69	; 0x45
10007bc4:	d101      	bne.n	10007bca <_vsnprintf+0x51a>
10007bc6:	2320      	movs	r3, #32
10007bc8:	4319      	orrs	r1, r3
10007bca:	2207      	movs	r2, #7
10007bcc:	9b09      	ldr	r3, [sp, #36]	; 0x24
10007bce:	9104      	str	r1, [sp, #16]
10007bd0:	3307      	adds	r3, #7
10007bd2:	4393      	bics	r3, r2
10007bd4:	9a0a      	ldr	r2, [sp, #40]	; 0x28
10007bd6:	0019      	movs	r1, r3
10007bd8:	9203      	str	r2, [sp, #12]
10007bda:	4642      	mov	r2, r8
10007bdc:	9202      	str	r2, [sp, #8]
10007bde:	c90c      	ldmia	r1!, {r2, r3}
10007be0:	9808      	ldr	r0, [sp, #32]
10007be2:	9200      	str	r2, [sp, #0]
10007be4:	9301      	str	r3, [sp, #4]
10007be6:	9109      	str	r1, [sp, #36]	; 0x24
10007be8:	002a      	movs	r2, r5
10007bea:	464b      	mov	r3, r9
10007bec:	0021      	movs	r1, r4
10007bee:	f7ff f96d 	bl	10006ecc <_etoa>
10007bf2:	3601      	adds	r6, #1
10007bf4:	0005      	movs	r5, r0
10007bf6:	e580      	b.n	100076fa <_vsnprintf+0x4a>
10007bf8:	2310      	movs	r3, #16
10007bfa:	930c      	str	r3, [sp, #48]	; 0x30
10007bfc:	230c      	movs	r3, #12
10007bfe:	000a      	movs	r2, r1
10007c00:	439a      	bics	r2, r3
10007c02:	920b      	str	r2, [sp, #44]	; 0x2c
10007c04:	054b      	lsls	r3, r1, #21
10007c06:	d503      	bpl.n	10007c10 <_vsnprintf+0x560>
10007c08:	2301      	movs	r3, #1
10007c0a:	9a0b      	ldr	r2, [sp, #44]	; 0x2c
10007c0c:	439a      	bics	r2, r3
10007c0e:	920b      	str	r2, [sp, #44]	; 0x2c
10007c10:	2869      	cmp	r0, #105	; 0x69
10007c12:	d100      	bne.n	10007c16 <_vsnprintf+0x566>
10007c14:	e627      	b.n	10007866 <_vsnprintf+0x1b6>
10007c16:	2864      	cmp	r0, #100	; 0x64
10007c18:	d100      	bne.n	10007c1c <_vsnprintf+0x56c>
10007c1a:	e624      	b.n	10007866 <_vsnprintf+0x1b6>
10007c1c:	9a0b      	ldr	r2, [sp, #44]	; 0x2c
10007c1e:	2380      	movs	r3, #128	; 0x80
10007c20:	0011      	movs	r1, r2
10007c22:	009b      	lsls	r3, r3, #2
10007c24:	4019      	ands	r1, r3
10007c26:	468b      	mov	fp, r1
10007c28:	421a      	tst	r2, r3
10007c2a:	d000      	beq.n	10007c2e <_vsnprintf+0x57e>
10007c2c:	e166      	b.n	10007efc <_vsnprintf+0x84c>
10007c2e:	2380      	movs	r3, #128	; 0x80
10007c30:	0011      	movs	r1, r2
10007c32:	005b      	lsls	r3, r3, #1
10007c34:	4019      	ands	r1, r3
10007c36:	468a      	mov	sl, r1
10007c38:	421a      	tst	r2, r3
10007c3a:	d000      	beq.n	10007c3e <_vsnprintf+0x58e>
10007c3c:	e239      	b.n	100080b2 <_vsnprintf+0xa02>
10007c3e:	0013      	movs	r3, r2
10007c40:	065b      	lsls	r3, r3, #25
10007c42:	d500      	bpl.n	10007c46 <_vsnprintf+0x596>
10007c44:	e13c      	b.n	10007ec0 <_vsnprintf+0x810>
10007c46:	0013      	movs	r3, r2
10007c48:	061b      	lsls	r3, r3, #24
10007c4a:	d400      	bmi.n	10007c4e <_vsnprintf+0x59e>
10007c4c:	e2a6      	b.n	1000819c <_vsnprintf+0xaec>
10007c4e:	9b09      	ldr	r3, [sp, #36]	; 0x24
10007c50:	cb04      	ldmia	r3!, {r2}
10007c52:	0412      	lsls	r2, r2, #16
10007c54:	0c12      	lsrs	r2, r2, #16
10007c56:	4693      	mov	fp, r2
10007c58:	9309      	str	r3, [sp, #36]	; 0x24
10007c5a:	465b      	mov	r3, fp
10007c5c:	2b00      	cmp	r3, #0
10007c5e:	d000      	beq.n	10007c62 <_vsnprintf+0x5b2>
10007c60:	e19a      	b.n	10007f98 <_vsnprintf+0x8e8>
10007c62:	9a0b      	ldr	r2, [sp, #44]	; 0x2c
10007c64:	3310      	adds	r3, #16
10007c66:	0011      	movs	r1, r2
10007c68:	4399      	bics	r1, r3
10007c6a:	910b      	str	r1, [sp, #44]	; 0x2c
10007c6c:	0552      	lsls	r2, r2, #21
10007c6e:	d400      	bmi.n	10007c72 <_vsnprintf+0x5c2>
10007c70:	e192      	b.n	10007f98 <_vsnprintf+0x8e8>
10007c72:	2300      	movs	r3, #0
10007c74:	469a      	mov	sl, r3
10007c76:	9b0b      	ldr	r3, [sp, #44]	; 0x2c
10007c78:	9306      	str	r3, [sp, #24]
10007c7a:	9b0a      	ldr	r3, [sp, #40]	; 0x28
10007c7c:	9305      	str	r3, [sp, #20]
10007c7e:	4643      	mov	r3, r8
10007c80:	9304      	str	r3, [sp, #16]
10007c82:	9b0c      	ldr	r3, [sp, #48]	; 0x30
10007c84:	9303      	str	r3, [sp, #12]
10007c86:	2300      	movs	r3, #0
10007c88:	e10c      	b.n	10007ea4 <_vsnprintf+0x7f4>
10007c8a:	2320      	movs	r3, #32
10007c8c:	4319      	orrs	r1, r3
10007c8e:	e660      	b.n	10007952 <_vsnprintf+0x2a2>
10007c90:	9b09      	ldr	r3, [sp, #36]	; 0x24
10007c92:	9a0a      	ldr	r2, [sp, #40]	; 0x28
10007c94:	1b5b      	subs	r3, r3, r5
10007c96:	4698      	mov	r8, r3
10007c98:	464b      	mov	r3, r9
10007c9a:	4691      	mov	r9, r2
10007c9c:	001f      	movs	r7, r3
10007c9e:	46b2      	mov	sl, r6
10007ca0:	0026      	movs	r6, r4
10007ca2:	9c08      	ldr	r4, [sp, #32]
10007ca4:	002a      	movs	r2, r5
10007ca6:	003b      	movs	r3, r7
10007ca8:	0031      	movs	r1, r6
10007caa:	47a0      	blx	r4
10007cac:	4643      	mov	r3, r8
10007cae:	3501      	adds	r5, #1
10007cb0:	5d58      	ldrb	r0, [r3, r5]
10007cb2:	2800      	cmp	r0, #0
10007cb4:	d1f6      	bne.n	10007ca4 <_vsnprintf+0x5f4>
10007cb6:	464a      	mov	r2, r9
10007cb8:	0034      	movs	r4, r6
10007cba:	46b9      	mov	r9, r7
10007cbc:	4656      	mov	r6, sl
10007cbe:	920a      	str	r2, [sp, #40]	; 0x28
10007cc0:	e6f5      	b.n	10007aae <_vsnprintf+0x3fe>
10007cc2:	23c0      	movs	r3, #192	; 0xc0
10007cc4:	009b      	lsls	r3, r3, #2
10007cc6:	78b0      	ldrb	r0, [r6, #2]
10007cc8:	4319      	orrs	r1, r3
10007cca:	3602      	adds	r6, #2
10007ccc:	e55d      	b.n	1000778a <_vsnprintf+0xda>
10007cce:	23c0      	movs	r3, #192	; 0xc0
10007cd0:	78b0      	ldrb	r0, [r6, #2]
10007cd2:	4319      	orrs	r1, r3
10007cd4:	3602      	adds	r6, #2
10007cd6:	e558      	b.n	1000778a <_vsnprintf+0xda>
10007cd8:	230c      	movs	r3, #12
10007cda:	000a      	movs	r2, r1
10007cdc:	439a      	bics	r2, r3
10007cde:	3314      	adds	r3, #20
10007ce0:	431a      	orrs	r2, r3
10007ce2:	3b10      	subs	r3, #16
10007ce4:	920b      	str	r2, [sp, #44]	; 0x2c
10007ce6:	930c      	str	r3, [sp, #48]	; 0x30
10007ce8:	054b      	lsls	r3, r1, #21
10007cea:	d48d      	bmi.n	10007c08 <_vsnprintf+0x558>
10007cec:	e796      	b.n	10007c1c <_vsnprintf+0x56c>
10007cee:	46a1      	mov	r9, r4
10007cf0:	0034      	movs	r4, r6
10007cf2:	4656      	mov	r6, sl
10007cf4:	e6db      	b.n	10007aae <_vsnprintf+0x3fe>
10007cf6:	9a0a      	ldr	r2, [sp, #40]	; 0x28
10007cf8:	2a01      	cmp	r2, #1
10007cfa:	d800      	bhi.n	10007cfe <_vsnprintf+0x64e>
10007cfc:	e253      	b.n	100081a6 <_vsnprintf+0xaf6>
10007cfe:	1e6b      	subs	r3, r5, #1
10007d00:	189f      	adds	r7, r3, r2
10007d02:	9b08      	ldr	r3, [sp, #32]
10007d04:	46b0      	mov	r8, r6
10007d06:	0026      	movs	r6, r4
10007d08:	464c      	mov	r4, r9
10007d0a:	4699      	mov	r9, r3
10007d0c:	002a      	movs	r2, r5
10007d0e:	0023      	movs	r3, r4
10007d10:	3501      	adds	r5, #1
10007d12:	0031      	movs	r1, r6
10007d14:	2020      	movs	r0, #32
10007d16:	47c8      	blx	r9
10007d18:	42bd      	cmp	r5, r7
10007d1a:	d1f7      	bne.n	10007d0c <_vsnprintf+0x65c>
10007d1c:	46a1      	mov	r9, r4
10007d1e:	0034      	movs	r4, r6
10007d20:	4646      	mov	r6, r8
10007d22:	9b09      	ldr	r3, [sp, #36]	; 0x24
10007d24:	003a      	movs	r2, r7
10007d26:	cb01      	ldmia	r3!, {r0}
10007d28:	0021      	movs	r1, r4
10007d2a:	4698      	mov	r8, r3
10007d2c:	1c7d      	adds	r5, r7, #1
10007d2e:	464b      	mov	r3, r9
10007d30:	9f08      	ldr	r7, [sp, #32]
10007d32:	b2c0      	uxtb	r0, r0
10007d34:	47b8      	blx	r7
10007d36:	4643      	mov	r3, r8
10007d38:	3601      	adds	r6, #1
10007d3a:	9309      	str	r3, [sp, #36]	; 0x24
10007d3c:	e4dd      	b.n	100076fa <_vsnprintf+0x4a>
10007d3e:	9b0b      	ldr	r3, [sp, #44]	; 0x2c
10007d40:	9a0a      	ldr	r2, [sp, #40]	; 0x28
10007d42:	46a8      	mov	r8, r5
10007d44:	429a      	cmp	r2, r3
10007d46:	d800      	bhi.n	10007d4a <_vsnprintf+0x69a>
10007d48:	e6b5      	b.n	10007ab6 <_vsnprintf+0x406>
10007d4a:	4694      	mov	ip, r2
10007d4c:	4465      	add	r5, ip
10007d4e:	1aed      	subs	r5, r5, r3
10007d50:	9b08      	ldr	r3, [sp, #32]
10007d52:	4647      	mov	r7, r8
10007d54:	46b0      	mov	r8, r6
10007d56:	0026      	movs	r6, r4
10007d58:	464c      	mov	r4, r9
10007d5a:	4699      	mov	r9, r3
10007d5c:	003a      	movs	r2, r7
10007d5e:	0023      	movs	r3, r4
10007d60:	3701      	adds	r7, #1
10007d62:	0031      	movs	r1, r6
10007d64:	2020      	movs	r0, #32
10007d66:	47c8      	blx	r9
10007d68:	42af      	cmp	r7, r5
10007d6a:	d1f7      	bne.n	10007d5c <_vsnprintf+0x6ac>
10007d6c:	46a1      	mov	r9, r4
10007d6e:	0034      	movs	r4, r6
10007d70:	4646      	mov	r6, r8
10007d72:	e6a0      	b.n	10007ab6 <_vsnprintf+0x406>
10007d74:	9a0b      	ldr	r2, [sp, #44]	; 0x2c
10007d76:	990a      	ldr	r1, [sp, #40]	; 0x28
10007d78:	1c53      	adds	r3, r2, #1
10007d7a:	4291      	cmp	r1, r2
10007d7c:	d800      	bhi.n	10007d80 <_vsnprintf+0x6d0>
10007d7e:	e214      	b.n	100081aa <_vsnprintf+0xafa>
10007d80:	194b      	adds	r3, r1, r5
10007d82:	1a9b      	subs	r3, r3, r2
10007d84:	001f      	movs	r7, r3
10007d86:	9b08      	ldr	r3, [sp, #32]
10007d88:	46b2      	mov	sl, r6
10007d8a:	0026      	movs	r6, r4
10007d8c:	464c      	mov	r4, r9
10007d8e:	4699      	mov	r9, r3
10007d90:	002a      	movs	r2, r5
10007d92:	0023      	movs	r3, r4
10007d94:	3501      	adds	r5, #1
10007d96:	0031      	movs	r1, r6
10007d98:	2020      	movs	r0, #32
10007d9a:	47c8      	blx	r9
10007d9c:	42bd      	cmp	r5, r7
10007d9e:	d1f7      	bne.n	10007d90 <_vsnprintf+0x6e0>
10007da0:	9b0a      	ldr	r3, [sp, #40]	; 0x28
10007da2:	46a1      	mov	r9, r4
10007da4:	3301      	adds	r3, #1
10007da6:	930b      	str	r3, [sp, #44]	; 0x2c
10007da8:	9b09      	ldr	r3, [sp, #36]	; 0x24
10007daa:	0034      	movs	r4, r6
10007dac:	781b      	ldrb	r3, [r3, #0]
10007dae:	4656      	mov	r6, sl
10007db0:	469c      	mov	ip, r3
10007db2:	4660      	mov	r0, ip
10007db4:	2800      	cmp	r0, #0
10007db6:	d000      	beq.n	10007dba <_vsnprintf+0x70a>
10007db8:	e658      	b.n	10007a6c <_vsnprintf+0x3bc>
10007dba:	e67c      	b.n	10007ab6 <_vsnprintf+0x406>
10007dbc:	2207      	movs	r2, #7
10007dbe:	9b09      	ldr	r3, [sp, #36]	; 0x24
10007dc0:	3307      	adds	r3, #7
10007dc2:	4393      	bics	r3, r2
10007dc4:	3201      	adds	r2, #1
10007dc6:	4694      	mov	ip, r2
10007dc8:	449c      	add	ip, r3
10007dca:	4662      	mov	r2, ip
10007dcc:	685f      	ldr	r7, [r3, #4]
10007dce:	9209      	str	r2, [sp, #36]	; 0x24
10007dd0:	681a      	ldr	r2, [r3, #0]
10007dd2:	17fb      	asrs	r3, r7, #31
10007dd4:	9310      	str	r3, [sp, #64]	; 0x40
10007dd6:	9311      	str	r3, [sp, #68]	; 0x44
10007dd8:	9810      	ldr	r0, [sp, #64]	; 0x40
10007dda:	9911      	ldr	r1, [sp, #68]	; 0x44
10007ddc:	0003      	movs	r3, r0
10007dde:	4053      	eors	r3, r2
10007de0:	930e      	str	r3, [sp, #56]	; 0x38
10007de2:	000b      	movs	r3, r1
10007de4:	407b      	eors	r3, r7
10007de6:	930f      	str	r3, [sp, #60]	; 0x3c
10007de8:	4694      	mov	ip, r2
10007dea:	9a0e      	ldr	r2, [sp, #56]	; 0x38
10007dec:	9b0f      	ldr	r3, [sp, #60]	; 0x3c
10007dee:	1a12      	subs	r2, r2, r0
10007df0:	418b      	sbcs	r3, r1
10007df2:	920e      	str	r2, [sp, #56]	; 0x38
10007df4:	930f      	str	r3, [sp, #60]	; 0x3c
10007df6:	0ffb      	lsrs	r3, r7, #31
10007df8:	4662      	mov	r2, ip
10007dfa:	9312      	str	r3, [sp, #72]	; 0x48
10007dfc:	2300      	movs	r3, #0
10007dfe:	433a      	orrs	r2, r7
10007e00:	469b      	mov	fp, r3
10007e02:	d03d      	beq.n	10007e80 <_vsnprintf+0x7d0>
10007e04:	9a0b      	ldr	r2, [sp, #44]	; 0x2c
10007e06:	2361      	movs	r3, #97	; 0x61
10007e08:	0692      	lsls	r2, r2, #26
10007e0a:	d500      	bpl.n	10007e0e <_vsnprintf+0x75e>
10007e0c:	2341      	movs	r3, #65	; 0x41
10007e0e:	2200      	movs	r2, #0
10007e10:	b2db      	uxtb	r3, r3
10007e12:	a90e      	add	r1, sp, #56	; 0x38
10007e14:	3b0a      	subs	r3, #10
10007e16:	468c      	mov	ip, r1
10007e18:	4692      	mov	sl, r2
10007e1a:	930d      	str	r3, [sp, #52]	; 0x34
10007e1c:	4643      	mov	r3, r8
10007e1e:	321f      	adds	r2, #31
10007e20:	4462      	add	r2, ip
10007e22:	9513      	str	r5, [sp, #76]	; 0x4c
10007e24:	9615      	str	r6, [sp, #84]	; 0x54
10007e26:	4655      	mov	r5, sl
10007e28:	9e0e      	ldr	r6, [sp, #56]	; 0x38
10007e2a:	9f0f      	ldr	r7, [sp, #60]	; 0x3c
10007e2c:	46a2      	mov	sl, r4
10007e2e:	4690      	mov	r8, r2
10007e30:	9c0c      	ldr	r4, [sp, #48]	; 0x30
10007e32:	9314      	str	r3, [sp, #80]	; 0x50
10007e34:	e00c      	b.n	10007e50 <_vsnprintf+0x7a0>
10007e36:	3230      	adds	r2, #48	; 0x30
10007e38:	b2d2      	uxtb	r2, r2
10007e3a:	4643      	mov	r3, r8
10007e3c:	3501      	adds	r5, #1
10007e3e:	555a      	strb	r2, [r3, r5]
10007e40:	45bb      	cmp	fp, r7
10007e42:	d100      	bne.n	10007e46 <_vsnprintf+0x796>
10007e44:	e18a      	b.n	1000815c <_vsnprintf+0xaac>
10007e46:	2d20      	cmp	r5, #32
10007e48:	d100      	bne.n	10007e4c <_vsnprintf+0x79c>
10007e4a:	e18a      	b.n	10008162 <_vsnprintf+0xab2>
10007e4c:	0006      	movs	r6, r0
10007e4e:	000f      	movs	r7, r1
10007e50:	0022      	movs	r2, r4
10007e52:	2300      	movs	r3, #0
10007e54:	0030      	movs	r0, r6
10007e56:	0039      	movs	r1, r7
10007e58:	f000 fa78 	bl	1000834c <__wrap___aeabi_uldivmod>
10007e5c:	b2d2      	uxtb	r2, r2
10007e5e:	2a09      	cmp	r2, #9
10007e60:	d9e9      	bls.n	10007e36 <_vsnprintf+0x786>
10007e62:	9b0d      	ldr	r3, [sp, #52]	; 0x34
10007e64:	469c      	mov	ip, r3
10007e66:	4462      	add	r2, ip
10007e68:	b2d2      	uxtb	r2, r2
10007e6a:	e7e6      	b.n	10007e3a <_vsnprintf+0x78a>
10007e6c:	23ff      	movs	r3, #255	; 0xff
10007e6e:	9909      	ldr	r1, [sp, #36]	; 0x24
10007e70:	c904      	ldmia	r1!, {r2}
10007e72:	4013      	ands	r3, r2
10007e74:	001a      	movs	r2, r3
10007e76:	9109      	str	r1, [sp, #36]	; 0x24
10007e78:	e517      	b.n	100078aa <_vsnprintf+0x1fa>
10007e7a:	46c0      	nop			; (mov r8, r8)
10007e7c:	10006c41 	.word	0x10006c41
10007e80:	9a0b      	ldr	r2, [sp, #44]	; 0x2c
10007e82:	3310      	adds	r3, #16
10007e84:	0011      	movs	r1, r2
10007e86:	4399      	bics	r1, r3
10007e88:	910b      	str	r1, [sp, #44]	; 0x2c
10007e8a:	0552      	lsls	r2, r2, #21
10007e8c:	d5ba      	bpl.n	10007e04 <_vsnprintf+0x754>
10007e8e:	2300      	movs	r3, #0
10007e90:	469a      	mov	sl, r3
10007e92:	9b0b      	ldr	r3, [sp, #44]	; 0x2c
10007e94:	9306      	str	r3, [sp, #24]
10007e96:	9b0a      	ldr	r3, [sp, #40]	; 0x28
10007e98:	9305      	str	r3, [sp, #20]
10007e9a:	4643      	mov	r3, r8
10007e9c:	9304      	str	r3, [sp, #16]
10007e9e:	9b0c      	ldr	r3, [sp, #48]	; 0x30
10007ea0:	9303      	str	r3, [sp, #12]
10007ea2:	9b12      	ldr	r3, [sp, #72]	; 0x48
10007ea4:	9302      	str	r3, [sp, #8]
10007ea6:	4653      	mov	r3, sl
10007ea8:	9301      	str	r3, [sp, #4]
10007eaa:	ab16      	add	r3, sp, #88	; 0x58
10007eac:	002a      	movs	r2, r5
10007eae:	9300      	str	r3, [sp, #0]
10007eb0:	0021      	movs	r1, r4
10007eb2:	464b      	mov	r3, r9
10007eb4:	9808      	ldr	r0, [sp, #32]
10007eb6:	f7fe ff13 	bl	10006ce0 <_ntoa_format>
10007eba:	3601      	adds	r6, #1
10007ebc:	0005      	movs	r5, r0
10007ebe:	e41c      	b.n	100076fa <_vsnprintf+0x4a>
10007ec0:	22ff      	movs	r2, #255	; 0xff
10007ec2:	9b09      	ldr	r3, [sp, #36]	; 0x24
10007ec4:	cb02      	ldmia	r3!, {r1}
10007ec6:	4011      	ands	r1, r2
10007ec8:	468b      	mov	fp, r1
10007eca:	9309      	str	r3, [sp, #36]	; 0x24
10007ecc:	e6c5      	b.n	10007c5a <_vsnprintf+0x5aa>
10007ece:	4653      	mov	r3, sl
10007ed0:	4645      	mov	r5, r8
10007ed2:	9309      	str	r3, [sp, #36]	; 0x24
10007ed4:	3601      	adds	r6, #1
10007ed6:	f7ff fc10 	bl	100076fa <_vsnprintf+0x4a>
10007eda:	4656      	mov	r6, sl
10007edc:	465c      	mov	r4, fp
10007ede:	46aa      	mov	sl, r5
10007ee0:	9d13      	ldr	r5, [sp, #76]	; 0x4c
10007ee2:	e7d6      	b.n	10007e92 <_vsnprintf+0x7e2>
10007ee4:	2308      	movs	r3, #8
10007ee6:	930c      	str	r3, [sp, #48]	; 0x30
10007ee8:	910b      	str	r1, [sp, #44]	; 0x2c
10007eea:	990b      	ldr	r1, [sp, #44]	; 0x2c
10007eec:	2864      	cmp	r0, #100	; 0x64
10007eee:	d000      	beq.n	10007ef2 <_vsnprintf+0x842>
10007ef0:	e684      	b.n	10007bfc <_vsnprintf+0x54c>
10007ef2:	9b0b      	ldr	r3, [sp, #44]	; 0x2c
10007ef4:	055b      	lsls	r3, r3, #21
10007ef6:	d500      	bpl.n	10007efa <_vsnprintf+0x84a>
10007ef8:	e686      	b.n	10007c08 <_vsnprintf+0x558>
10007efa:	e4b4      	b.n	10007866 <_vsnprintf+0x1b6>
10007efc:	2207      	movs	r2, #7
10007efe:	9b09      	ldr	r3, [sp, #36]	; 0x24
10007f00:	3307      	adds	r3, #7
10007f02:	4393      	bics	r3, r2
10007f04:	3201      	adds	r2, #1
10007f06:	4694      	mov	ip, r2
10007f08:	449c      	add	ip, r3
10007f0a:	4662      	mov	r2, ip
10007f0c:	9209      	str	r2, [sp, #36]	; 0x24
10007f0e:	681a      	ldr	r2, [r3, #0]
10007f10:	685b      	ldr	r3, [r3, #4]
10007f12:	0010      	movs	r0, r2
10007f14:	469b      	mov	fp, r3
10007f16:	0013      	movs	r3, r2
10007f18:	465a      	mov	r2, fp
10007f1a:	4313      	orrs	r3, r2
10007f1c:	d107      	bne.n	10007f2e <_vsnprintf+0x87e>
10007f1e:	9a0b      	ldr	r2, [sp, #44]	; 0x2c
10007f20:	3310      	adds	r3, #16
10007f22:	0011      	movs	r1, r2
10007f24:	4399      	bics	r1, r3
10007f26:	910b      	str	r1, [sp, #44]	; 0x2c
10007f28:	0552      	lsls	r2, r2, #21
10007f2a:	d500      	bpl.n	10007f2e <_vsnprintf+0x87e>
10007f2c:	e6a1      	b.n	10007c72 <_vsnprintf+0x5c2>
10007f2e:	9a0b      	ldr	r2, [sp, #44]	; 0x2c
10007f30:	2361      	movs	r3, #97	; 0x61
10007f32:	0692      	lsls	r2, r2, #26
10007f34:	d500      	bpl.n	10007f38 <_vsnprintf+0x888>
10007f36:	2341      	movs	r3, #65	; 0x41
10007f38:	2200      	movs	r2, #0
10007f3a:	b2db      	uxtb	r3, r3
10007f3c:	a90e      	add	r1, sp, #56	; 0x38
10007f3e:	3b0a      	subs	r3, #10
10007f40:	468c      	mov	ip, r1
10007f42:	4692      	mov	sl, r2
10007f44:	930d      	str	r3, [sp, #52]	; 0x34
10007f46:	4643      	mov	r3, r8
10007f48:	321f      	adds	r2, #31
10007f4a:	4462      	add	r2, ip
10007f4c:	465f      	mov	r7, fp
10007f4e:	9512      	str	r5, [sp, #72]	; 0x48
10007f50:	46a3      	mov	fp, r4
10007f52:	4655      	mov	r5, sl
10007f54:	0004      	movs	r4, r0
10007f56:	46b2      	mov	sl, r6
10007f58:	4690      	mov	r8, r2
10007f5a:	9e0c      	ldr	r6, [sp, #48]	; 0x30
10007f5c:	9313      	str	r3, [sp, #76]	; 0x4c
10007f5e:	e00d      	b.n	10007f7c <_vsnprintf+0x8cc>
10007f60:	3230      	adds	r2, #48	; 0x30
10007f62:	b2d2      	uxtb	r2, r2
10007f64:	4643      	mov	r3, r8
10007f66:	3501      	adds	r5, #1
10007f68:	555a      	strb	r2, [r3, r5]
10007f6a:	2300      	movs	r3, #0
10007f6c:	42bb      	cmp	r3, r7
10007f6e:	d100      	bne.n	10007f72 <_vsnprintf+0x8c2>
10007f70:	e100      	b.n	10008174 <_vsnprintf+0xac4>
10007f72:	2d20      	cmp	r5, #32
10007f74:	d100      	bne.n	10007f78 <_vsnprintf+0x8c8>
10007f76:	e100      	b.n	1000817a <_vsnprintf+0xaca>
10007f78:	0004      	movs	r4, r0
10007f7a:	000f      	movs	r7, r1
10007f7c:	0032      	movs	r2, r6
10007f7e:	2300      	movs	r3, #0
10007f80:	0020      	movs	r0, r4
10007f82:	0039      	movs	r1, r7
10007f84:	f000 f9e2 	bl	1000834c <__wrap___aeabi_uldivmod>
10007f88:	b2d2      	uxtb	r2, r2
10007f8a:	2a09      	cmp	r2, #9
10007f8c:	d9e8      	bls.n	10007f60 <_vsnprintf+0x8b0>
10007f8e:	9b0d      	ldr	r3, [sp, #52]	; 0x34
10007f90:	469c      	mov	ip, r3
10007f92:	4462      	add	r2, ip
10007f94:	b2d2      	uxtb	r2, r2
10007f96:	e7e5      	b.n	10007f64 <_vsnprintf+0x8b4>
10007f98:	9a0b      	ldr	r2, [sp, #44]	; 0x2c
10007f9a:	2361      	movs	r3, #97	; 0x61
10007f9c:	0692      	lsls	r2, r2, #26
10007f9e:	d500      	bpl.n	10007fa2 <_vsnprintf+0x8f2>
10007fa0:	2341      	movs	r3, #65	; 0x41
10007fa2:	b2db      	uxtb	r3, r3
10007fa4:	a90e      	add	r1, sp, #56	; 0x38
10007fa6:	3b0a      	subs	r3, #10
10007fa8:	221f      	movs	r2, #31
10007faa:	468c      	mov	ip, r1
10007fac:	930d      	str	r3, [sp, #52]	; 0x34
10007fae:	0023      	movs	r3, r4
10007fb0:	4462      	add	r2, ip
10007fb2:	465c      	mov	r4, fp
10007fb4:	9512      	str	r5, [sp, #72]	; 0x48
10007fb6:	0017      	movs	r7, r2
10007fb8:	4655      	mov	r5, sl
10007fba:	469b      	mov	fp, r3
10007fbc:	46b2      	mov	sl, r6
10007fbe:	9e0c      	ldr	r6, [sp, #48]	; 0x30
10007fc0:	e008      	b.n	10007fd4 <_vsnprintf+0x924>
10007fc2:	3330      	adds	r3, #48	; 0x30
10007fc4:	b2db      	uxtb	r3, r3
10007fc6:	3501      	adds	r5, #1
10007fc8:	557b      	strb	r3, [r7, r5]
10007fca:	42b4      	cmp	r4, r6
10007fcc:	d30e      	bcc.n	10007fec <_vsnprintf+0x93c>
10007fce:	2d20      	cmp	r5, #32
10007fd0:	d00c      	beq.n	10007fec <_vsnprintf+0x93c>
10007fd2:	0004      	movs	r4, r0
10007fd4:	0031      	movs	r1, r6
10007fd6:	0020      	movs	r0, r4
10007fd8:	f000 f976 	bl	100082c8 <__wrap___aeabi_uidiv>
10007fdc:	b2cb      	uxtb	r3, r1
10007fde:	2909      	cmp	r1, #9
10007fe0:	d9ef      	bls.n	10007fc2 <_vsnprintf+0x912>
10007fe2:	9a0d      	ldr	r2, [sp, #52]	; 0x34
10007fe4:	4694      	mov	ip, r2
10007fe6:	4463      	add	r3, ip
10007fe8:	b2db      	uxtb	r3, r3
10007fea:	e7ec      	b.n	10007fc6 <_vsnprintf+0x916>
10007fec:	4656      	mov	r6, sl
10007fee:	465c      	mov	r4, fp
10007ff0:	46aa      	mov	sl, r5
10007ff2:	9d12      	ldr	r5, [sp, #72]	; 0x48
10007ff4:	e63f      	b.n	10007c76 <_vsnprintf+0x5c6>
10007ff6:	9b09      	ldr	r3, [sp, #36]	; 0x24
10007ff8:	001a      	movs	r2, r3
10007ffa:	ca08      	ldmia	r2!, {r3}
10007ffc:	17d9      	asrs	r1, r3, #31
10007ffe:	9213      	str	r2, [sp, #76]	; 0x4c
10008000:	185a      	adds	r2, r3, r1
10008002:	404a      	eors	r2, r1
10008004:	4692      	mov	sl, r2
10008006:	0fda      	lsrs	r2, r3, #31
10008008:	9212      	str	r2, [sp, #72]	; 0x48
1000800a:	2b00      	cmp	r3, #0
1000800c:	d108      	bne.n	10008020 <_vsnprintf+0x970>
1000800e:	2380      	movs	r3, #128	; 0x80
10008010:	2210      	movs	r2, #16
10008012:	990b      	ldr	r1, [sp, #44]	; 0x2c
10008014:	00db      	lsls	r3, r3, #3
10008016:	400b      	ands	r3, r1
10008018:	4391      	bics	r1, r2
1000801a:	910b      	str	r1, [sp, #44]	; 0x2c
1000801c:	2b00      	cmp	r3, #0
1000801e:	d12b      	bne.n	10008078 <_vsnprintf+0x9c8>
10008020:	9a0b      	ldr	r2, [sp, #44]	; 0x2c
10008022:	2361      	movs	r3, #97	; 0x61
10008024:	0692      	lsls	r2, r2, #26
10008026:	d500      	bpl.n	1000802a <_vsnprintf+0x97a>
10008028:	2341      	movs	r3, #65	; 0x41
1000802a:	aa0e      	add	r2, sp, #56	; 0x38
1000802c:	271f      	movs	r7, #31
1000802e:	4694      	mov	ip, r2
10008030:	b2db      	uxtb	r3, r3
10008032:	3b0a      	subs	r3, #10
10008034:	950d      	str	r5, [sp, #52]	; 0x34
10008036:	4467      	add	r7, ip
10008038:	465d      	mov	r5, fp
1000803a:	9309      	str	r3, [sp, #36]	; 0x24
1000803c:	46a3      	mov	fp, r4
1000803e:	4654      	mov	r4, sl
10008040:	46b2      	mov	sl, r6
10008042:	9e0c      	ldr	r6, [sp, #48]	; 0x30
10008044:	e008      	b.n	10008058 <_vsnprintf+0x9a8>
10008046:	3330      	adds	r3, #48	; 0x30
10008048:	b2db      	uxtb	r3, r3
1000804a:	3501      	adds	r5, #1
1000804c:	557b      	strb	r3, [r7, r5]
1000804e:	42b4      	cmp	r4, r6
10008050:	d30e      	bcc.n	10008070 <_vsnprintf+0x9c0>
10008052:	2d20      	cmp	r5, #32
10008054:	d00c      	beq.n	10008070 <_vsnprintf+0x9c0>
10008056:	0004      	movs	r4, r0
10008058:	0031      	movs	r1, r6
1000805a:	0020      	movs	r0, r4
1000805c:	f000 f934 	bl	100082c8 <__wrap___aeabi_uidiv>
10008060:	b2cb      	uxtb	r3, r1
10008062:	2909      	cmp	r1, #9
10008064:	d9ef      	bls.n	10008046 <_vsnprintf+0x996>
10008066:	9a09      	ldr	r2, [sp, #36]	; 0x24
10008068:	4694      	mov	ip, r2
1000806a:	4463      	add	r3, ip
1000806c:	b2db      	uxtb	r3, r3
1000806e:	e7ec      	b.n	1000804a <_vsnprintf+0x99a>
10008070:	4656      	mov	r6, sl
10008072:	465c      	mov	r4, fp
10008074:	46ab      	mov	fp, r5
10008076:	9d0d      	ldr	r5, [sp, #52]	; 0x34
10008078:	9b0b      	ldr	r3, [sp, #44]	; 0x2c
1000807a:	002a      	movs	r2, r5
1000807c:	9306      	str	r3, [sp, #24]
1000807e:	9b0a      	ldr	r3, [sp, #40]	; 0x28
10008080:	0021      	movs	r1, r4
10008082:	9305      	str	r3, [sp, #20]
10008084:	4643      	mov	r3, r8
10008086:	9304      	str	r3, [sp, #16]
10008088:	9b0c      	ldr	r3, [sp, #48]	; 0x30
1000808a:	9808      	ldr	r0, [sp, #32]
1000808c:	9303      	str	r3, [sp, #12]
1000808e:	9b12      	ldr	r3, [sp, #72]	; 0x48
10008090:	3601      	adds	r6, #1
10008092:	9302      	str	r3, [sp, #8]
10008094:	465b      	mov	r3, fp
10008096:	9301      	str	r3, [sp, #4]
10008098:	ab16      	add	r3, sp, #88	; 0x58
1000809a:	9300      	str	r3, [sp, #0]
1000809c:	464b      	mov	r3, r9
1000809e:	f7fe fe1f 	bl	10006ce0 <_ntoa_format>
100080a2:	9b13      	ldr	r3, [sp, #76]	; 0x4c
100080a4:	0005      	movs	r5, r0
100080a6:	9309      	str	r3, [sp, #36]	; 0x24
100080a8:	f7ff fb27 	bl	100076fa <_vsnprintf+0x4a>
100080ac:	2302      	movs	r3, #2
100080ae:	930c      	str	r3, [sp, #48]	; 0x30
100080b0:	e71a      	b.n	10007ee8 <_vsnprintf+0x838>
100080b2:	9b09      	ldr	r3, [sp, #36]	; 0x24
100080b4:	cb04      	ldmia	r3!, {r2}
100080b6:	4692      	mov	sl, r2
100080b8:	9312      	str	r3, [sp, #72]	; 0x48
100080ba:	2a00      	cmp	r2, #0
100080bc:	d108      	bne.n	100080d0 <_vsnprintf+0xa20>
100080be:	2380      	movs	r3, #128	; 0x80
100080c0:	2210      	movs	r2, #16
100080c2:	990b      	ldr	r1, [sp, #44]	; 0x2c
100080c4:	00db      	lsls	r3, r3, #3
100080c6:	400b      	ands	r3, r1
100080c8:	4391      	bics	r1, r2
100080ca:	910b      	str	r1, [sp, #44]	; 0x2c
100080cc:	2b00      	cmp	r3, #0
100080ce:	d12b      	bne.n	10008128 <_vsnprintf+0xa78>
100080d0:	9a0b      	ldr	r2, [sp, #44]	; 0x2c
100080d2:	2361      	movs	r3, #97	; 0x61
100080d4:	0692      	lsls	r2, r2, #26
100080d6:	d500      	bpl.n	100080da <_vsnprintf+0xa2a>
100080d8:	2341      	movs	r3, #65	; 0x41
100080da:	aa0e      	add	r2, sp, #56	; 0x38
100080dc:	271f      	movs	r7, #31
100080de:	4694      	mov	ip, r2
100080e0:	b2db      	uxtb	r3, r3
100080e2:	3b0a      	subs	r3, #10
100080e4:	950d      	str	r5, [sp, #52]	; 0x34
100080e6:	4467      	add	r7, ip
100080e8:	465d      	mov	r5, fp
100080ea:	9309      	str	r3, [sp, #36]	; 0x24
100080ec:	46a3      	mov	fp, r4
100080ee:	4654      	mov	r4, sl
100080f0:	46b2      	mov	sl, r6
100080f2:	9e0c      	ldr	r6, [sp, #48]	; 0x30
100080f4:	e008      	b.n	10008108 <_vsnprintf+0xa58>
100080f6:	3330      	adds	r3, #48	; 0x30
100080f8:	b2db      	uxtb	r3, r3
100080fa:	3501      	adds	r5, #1
100080fc:	557b      	strb	r3, [r7, r5]
100080fe:	42b4      	cmp	r4, r6
10008100:	d30e      	bcc.n	10008120 <_vsnprintf+0xa70>
10008102:	2d20      	cmp	r5, #32
10008104:	d00c      	beq.n	10008120 <_vsnprintf+0xa70>
10008106:	0004      	movs	r4, r0
10008108:	0031      	movs	r1, r6
1000810a:	0020      	movs	r0, r4
1000810c:	f000 f8dc 	bl	100082c8 <__wrap___aeabi_uidiv>
10008110:	b2cb      	uxtb	r3, r1
10008112:	2909      	cmp	r1, #9
10008114:	d9ef      	bls.n	100080f6 <_vsnprintf+0xa46>
10008116:	9a09      	ldr	r2, [sp, #36]	; 0x24
10008118:	4694      	mov	ip, r2
1000811a:	4463      	add	r3, ip
1000811c:	b2db      	uxtb	r3, r3
1000811e:	e7ec      	b.n	100080fa <_vsnprintf+0xa4a>
10008120:	4656      	mov	r6, sl
10008122:	465c      	mov	r4, fp
10008124:	46ab      	mov	fp, r5
10008126:	9d0d      	ldr	r5, [sp, #52]	; 0x34
10008128:	9b0b      	ldr	r3, [sp, #44]	; 0x2c
1000812a:	002a      	movs	r2, r5
1000812c:	9306      	str	r3, [sp, #24]
1000812e:	9b0a      	ldr	r3, [sp, #40]	; 0x28
10008130:	0021      	movs	r1, r4
10008132:	9305      	str	r3, [sp, #20]
10008134:	4643      	mov	r3, r8
10008136:	9304      	str	r3, [sp, #16]
10008138:	9b0c      	ldr	r3, [sp, #48]	; 0x30
1000813a:	9808      	ldr	r0, [sp, #32]
1000813c:	9303      	str	r3, [sp, #12]
1000813e:	2300      	movs	r3, #0
10008140:	9302      	str	r3, [sp, #8]
10008142:	465b      	mov	r3, fp
10008144:	9301      	str	r3, [sp, #4]
10008146:	ab16      	add	r3, sp, #88	; 0x58
10008148:	9300      	str	r3, [sp, #0]
1000814a:	464b      	mov	r3, r9
1000814c:	f7fe fdc8 	bl	10006ce0 <_ntoa_format>
10008150:	9b12      	ldr	r3, [sp, #72]	; 0x48
10008152:	0005      	movs	r5, r0
10008154:	9309      	str	r3, [sp, #36]	; 0x24
10008156:	3601      	adds	r6, #1
10008158:	f7ff facf 	bl	100076fa <_vsnprintf+0x4a>
1000815c:	42b4      	cmp	r4, r6
1000815e:	d800      	bhi.n	10008162 <_vsnprintf+0xab2>
10008160:	e671      	b.n	10007e46 <_vsnprintf+0x796>
10008162:	9b14      	ldr	r3, [sp, #80]	; 0x50
10008164:	4654      	mov	r4, sl
10008166:	960e      	str	r6, [sp, #56]	; 0x38
10008168:	970f      	str	r7, [sp, #60]	; 0x3c
1000816a:	46aa      	mov	sl, r5
1000816c:	4698      	mov	r8, r3
1000816e:	9e15      	ldr	r6, [sp, #84]	; 0x54
10008170:	9d13      	ldr	r5, [sp, #76]	; 0x4c
10008172:	e68e      	b.n	10007e92 <_vsnprintf+0x7e2>
10008174:	42a6      	cmp	r6, r4
10008176:	d800      	bhi.n	1000817a <_vsnprintf+0xaca>
10008178:	e6fb      	b.n	10007f72 <_vsnprintf+0x8c2>
1000817a:	9b13      	ldr	r3, [sp, #76]	; 0x4c
1000817c:	4656      	mov	r6, sl
1000817e:	4698      	mov	r8, r3
10008180:	46aa      	mov	sl, r5
10008182:	465c      	mov	r4, fp
10008184:	9d12      	ldr	r5, [sp, #72]	; 0x48
10008186:	e576      	b.n	10007c76 <_vsnprintf+0x5c6>
10008188:	c908      	ldmia	r1!, {r3}
1000818a:	17d8      	asrs	r0, r3, #31
1000818c:	181a      	adds	r2, r3, r0
1000818e:	4042      	eors	r2, r0
10008190:	9109      	str	r1, [sp, #36]	; 0x24
10008192:	f7ff fb8a 	bl	100078aa <_vsnprintf+0x1fa>
10008196:	2300      	movs	r3, #0
10008198:	930b      	str	r3, [sp, #44]	; 0x2c
1000819a:	e450      	b.n	10007a3e <_vsnprintf+0x38e>
1000819c:	9b09      	ldr	r3, [sp, #36]	; 0x24
1000819e:	cb04      	ldmia	r3!, {r2}
100081a0:	4693      	mov	fp, r2
100081a2:	9309      	str	r3, [sp, #36]	; 0x24
100081a4:	e559      	b.n	10007c5a <_vsnprintf+0x5aa>
100081a6:	002f      	movs	r7, r5
100081a8:	e5bb      	b.n	10007d22 <_vsnprintf+0x672>
100081aa:	930b      	str	r3, [sp, #44]	; 0x2c
100081ac:	e601      	b.n	10007db2 <_vsnprintf+0x702>
100081ae:	3b06      	subs	r3, #6
100081b0:	930c      	str	r3, [sp, #48]	; 0x30
100081b2:	e69a      	b.n	10007eea <_vsnprintf+0x83a>

100081b4 <vfctprintf>:
100081b4:	b500      	push	{lr}
100081b6:	b085      	sub	sp, #20
100081b8:	9103      	str	r1, [sp, #12]
100081ba:	2101      	movs	r1, #1
100081bc:	9002      	str	r0, [sp, #8]
100081be:	9300      	str	r3, [sp, #0]
100081c0:	4803      	ldr	r0, [pc, #12]	; (100081d0 <vfctprintf+0x1c>)
100081c2:	0013      	movs	r3, r2
100081c4:	424a      	negs	r2, r1
100081c6:	a902      	add	r1, sp, #8
100081c8:	f7ff fa72 	bl	100076b0 <_vsnprintf>
100081cc:	b005      	add	sp, #20
100081ce:	bd00      	pop	{pc}
100081d0:	10006ebd 	.word	0x10006ebd

100081d4 <weak_raw_vprintf>:
100081d4:	b510      	push	{r4, lr}
100081d6:	4a09      	ldr	r2, [pc, #36]	; (100081fc <weak_raw_vprintf+0x28>)
100081d8:	0003      	movs	r3, r0
100081da:	6814      	ldr	r4, [r2, #0]
100081dc:	b084      	sub	sp, #16
100081de:	2c00      	cmp	r4, #0
100081e0:	d008      	beq.n	100081f4 <weak_raw_vprintf+0x20>
100081e2:	2201      	movs	r2, #1
100081e4:	9100      	str	r1, [sp, #0]
100081e6:	4806      	ldr	r0, [pc, #24]	; (10008200 <weak_raw_vprintf+0x2c>)
100081e8:	4252      	negs	r2, r2
100081ea:	a903      	add	r1, sp, #12
100081ec:	47a0      	blx	r4
100081ee:	2001      	movs	r0, #1
100081f0:	b004      	add	sp, #16
100081f2:	bd10      	pop	{r4, pc}
100081f4:	f001 f8b2 	bl	1000935c <__wrap_puts>
100081f8:	2000      	movs	r0, #0
100081fa:	e7f9      	b.n	100081f0 <weak_raw_vprintf+0x1c>
100081fc:	2000162c 	.word	0x2000162c
10008200:	10006ead 	.word	0x10006ead

10008204 <__aeabi_bits_init>:
10008204:	4801      	ldr	r0, [pc, #4]	; (1000820c <__aeabi_bits_init+0x8>)
10008206:	2104      	movs	r1, #4
10008208:	4b01      	ldr	r3, [pc, #4]	; (10008210 <__aeabi_bits_init+0xc>)
1000820a:	4718      	bx	r3
1000820c:	20000480 	.word	0x20000480
10008210:	10008235 	.word	0x10008235

10008214 <rom_func_lookup>:
10008214:	2314      	movs	r3, #20
10008216:	b510      	push	{r4, lr}
10008218:	0001      	movs	r1, r0
1000821a:	8818      	ldrh	r0, [r3, #0]
1000821c:	3304      	adds	r3, #4
1000821e:	881b      	ldrh	r3, [r3, #0]
10008220:	4798      	blx	r3
10008222:	bd10      	pop	{r4, pc}

10008224 <rom_data_lookup>:
10008224:	2316      	movs	r3, #22
10008226:	b510      	push	{r4, lr}
10008228:	0001      	movs	r1, r0
1000822a:	8818      	ldrh	r0, [r3, #0]
1000822c:	3302      	adds	r3, #2
1000822e:	881b      	ldrh	r3, [r3, #0]
10008230:	4798      	blx	r3
10008232:	bd10      	pop	{r4, pc}

10008234 <rom_funcs_lookup>:
10008234:	b5f8      	push	{r3, r4, r5, r6, r7, lr}
10008236:	4647      	mov	r7, r8
10008238:	46ce      	mov	lr, r9
1000823a:	b580      	push	{r7, lr}
1000823c:	1e0f      	subs	r7, r1, #0
1000823e:	d019      	beq.n	10008274 <rom_funcs_lookup+0x40>
10008240:	2314      	movs	r3, #20
10008242:	4699      	mov	r9, r3
10008244:	3304      	adds	r3, #4
10008246:	0004      	movs	r4, r0
10008248:	2500      	movs	r5, #0
1000824a:	2601      	movs	r6, #1
1000824c:	4698      	mov	r8, r3
1000824e:	464b      	mov	r3, r9
10008250:	8818      	ldrh	r0, [r3, #0]
10008252:	4643      	mov	r3, r8
10008254:	6821      	ldr	r1, [r4, #0]
10008256:	881b      	ldrh	r3, [r3, #0]
10008258:	4798      	blx	r3
1000825a:	c401      	stmia	r4!, {r0}
1000825c:	1e43      	subs	r3, r0, #1
1000825e:	4198      	sbcs	r0, r3
10008260:	3501      	adds	r5, #1
10008262:	4240      	negs	r0, r0
10008264:	4006      	ands	r6, r0
10008266:	42af      	cmp	r7, r5
10008268:	d1f1      	bne.n	1000824e <rom_funcs_lookup+0x1a>
1000826a:	0030      	movs	r0, r6
1000826c:	bcc0      	pop	{r6, r7}
1000826e:	46b9      	mov	r9, r7
10008270:	46b0      	mov	r8, r6
10008272:	bdf8      	pop	{r3, r4, r5, r6, r7, pc}
10008274:	2601      	movs	r6, #1
10008276:	e7f8      	b.n	1000826a <rom_funcs_lookup+0x36>

10008278 <__wrap___aeabi_idiv>:
10008278:	4a12      	ldr	r2, [pc, #72]	; (100082c4 <divmod_s32s32_savestate+0x18>)
1000827a:	6f93      	ldr	r3, [r2, #120]	; 0x78
1000827c:	089b      	lsrs	r3, r3, #2
1000827e:	d215      	bcs.n	100082ac <divmod_s32s32_savestate>

10008280 <divmod_s32s32_unsafe>:
10008280:	6690      	str	r0, [r2, #104]	; 0x68
10008282:	66d1      	str	r1, [r2, #108]	; 0x6c
10008284:	2900      	cmp	r1, #0
10008286:	d005      	beq.n	10008294 <divmod_s32s32_unsafe+0x14>
10008288:	e7ff      	b.n	1000828a <divmod_s32s32_unsafe+0xa>
1000828a:	e7ff      	b.n	1000828c <divmod_s32s32_unsafe+0xc>
1000828c:	e7ff      	b.n	1000828e <divmod_s32s32_unsafe+0xe>
1000828e:	6f51      	ldr	r1, [r2, #116]	; 0x74
10008290:	6f10      	ldr	r0, [r2, #112]	; 0x70
10008292:	4770      	bx	lr
10008294:	b504      	push	{r2, lr}
10008296:	2180      	movs	r1, #128	; 0x80
10008298:	0609      	lsls	r1, r1, #24
1000829a:	17c2      	asrs	r2, r0, #31
1000829c:	4051      	eors	r1, r2
1000829e:	2800      	cmp	r0, #0
100082a0:	d000      	beq.n	100082a4 <divmod_s32s32_unsafe+0x24>
100082a2:	43c8      	mvns	r0, r1
100082a4:	f004 f830 	bl	1000c308 <____aeabi_idiv0_veneer>
100082a8:	2100      	movs	r1, #0
100082aa:	bd04      	pop	{r2, pc}

100082ac <divmod_s32s32_savestate>:
100082ac:	b5f0      	push	{r4, r5, r6, r7, lr}
100082ae:	6e14      	ldr	r4, [r2, #96]	; 0x60
100082b0:	6e55      	ldr	r5, [r2, #100]	; 0x64
100082b2:	6f57      	ldr	r7, [r2, #116]	; 0x74
100082b4:	6f16      	ldr	r6, [r2, #112]	; 0x70
100082b6:	f7ff ffe3 	bl	10008280 <divmod_s32s32_unsafe>
100082ba:	6614      	str	r4, [r2, #96]	; 0x60
100082bc:	6655      	str	r5, [r2, #100]	; 0x64
100082be:	6757      	str	r7, [r2, #116]	; 0x74
100082c0:	6716      	str	r6, [r2, #112]	; 0x70
100082c2:	bdf0      	pop	{r4, r5, r6, r7, pc}
100082c4:	d0000000 	.word	0xd0000000

100082c8 <__wrap___aeabi_uidiv>:
100082c8:	4a11      	ldr	r2, [pc, #68]	; (10008310 <divmod_u32u32_savestate+0x18>)
100082ca:	6f93      	ldr	r3, [r2, #120]	; 0x78
100082cc:	089b      	lsrs	r3, r3, #2
100082ce:	d213      	bcs.n	100082f8 <divmod_u32u32_savestate>

100082d0 <divmod_u32u32_unsafe>:
100082d0:	6610      	str	r0, [r2, #96]	; 0x60
100082d2:	6651      	str	r1, [r2, #100]	; 0x64
100082d4:	2900      	cmp	r1, #0
100082d6:	d005      	beq.n	100082e4 <divmod_u32u32_unsafe+0x14>
100082d8:	e7ff      	b.n	100082da <divmod_u32u32_unsafe+0xa>
100082da:	e7ff      	b.n	100082dc <divmod_u32u32_unsafe+0xc>
100082dc:	e7ff      	b.n	100082de <divmod_u32u32_unsafe+0xe>
100082de:	6f51      	ldr	r1, [r2, #116]	; 0x74
100082e0:	6f10      	ldr	r0, [r2, #112]	; 0x70
100082e2:	4770      	bx	lr
100082e4:	b504      	push	{r2, lr}
100082e6:	2800      	cmp	r0, #0
100082e8:	d001      	beq.n	100082ee <divmod_u32u32_unsafe+0x1e>
100082ea:	2000      	movs	r0, #0
100082ec:	43c0      	mvns	r0, r0
100082ee:	f004 f80b 	bl	1000c308 <____aeabi_idiv0_veneer>
100082f2:	2100      	movs	r1, #0
100082f4:	bd04      	pop	{r2, pc}
100082f6:	46c0      	nop			; (mov r8, r8)

100082f8 <divmod_u32u32_savestate>:
100082f8:	b5f0      	push	{r4, r5, r6, r7, lr}
100082fa:	6e14      	ldr	r4, [r2, #96]	; 0x60
100082fc:	6e55      	ldr	r5, [r2, #100]	; 0x64
100082fe:	6f57      	ldr	r7, [r2, #116]	; 0x74
10008300:	6f16      	ldr	r6, [r2, #112]	; 0x70
10008302:	f7ff ffe5 	bl	100082d0 <divmod_u32u32_unsafe>
10008306:	6614      	str	r4, [r2, #96]	; 0x60
10008308:	6655      	str	r5, [r2, #100]	; 0x64
1000830a:	6757      	str	r7, [r2, #116]	; 0x74
1000830c:	6716      	str	r6, [r2, #112]	; 0x70
1000830e:	bdf0      	pop	{r4, r5, r6, r7, pc}
10008310:	d0000000 	.word	0xd0000000

10008314 <__wrap___aeabi_ldivmod>:
10008314:	4694      	mov	ip, r2
10008316:	4a4e      	ldr	r2, [pc, #312]	; (10008450 <udiv0+0x1a>)
10008318:	6f92      	ldr	r2, [r2, #120]	; 0x78
1000831a:	0892      	lsrs	r2, r2, #2
1000831c:	4662      	mov	r2, ip
1000831e:	d201      	bcs.n	10008324 <divmod_s64s64_savestate>
10008320:	e030      	b.n	10008384 <divmod_s64s64_unsafe>
10008322:	46c0      	nop			; (mov r8, r8)

10008324 <divmod_s64s64_savestate>:
10008324:	b5f0      	push	{r4, r5, r6, r7, lr}
10008326:	4e4a      	ldr	r6, [pc, #296]	; (10008450 <udiv0+0x1a>)
10008328:	6fb5      	ldr	r5, [r6, #120]	; 0x78
1000832a:	086d      	lsrs	r5, r5, #1
1000832c:	d3fc      	bcc.n	10008328 <divmod_s64s64_savestate+0x4>
1000832e:	6e34      	ldr	r4, [r6, #96]	; 0x60
10008330:	6e75      	ldr	r5, [r6, #100]	; 0x64
10008332:	6f77      	ldr	r7, [r6, #116]	; 0x74
10008334:	6f36      	ldr	r6, [r6, #112]	; 0x70
10008336:	f000 f825 	bl	10008384 <divmod_s64s64_unsafe>
1000833a:	4694      	mov	ip, r2
1000833c:	4a44      	ldr	r2, [pc, #272]	; (10008450 <udiv0+0x1a>)
1000833e:	6614      	str	r4, [r2, #96]	; 0x60
10008340:	6655      	str	r5, [r2, #100]	; 0x64
10008342:	6757      	str	r7, [r2, #116]	; 0x74
10008344:	6716      	str	r6, [r2, #112]	; 0x70
10008346:	4662      	mov	r2, ip
10008348:	bdf0      	pop	{r4, r5, r6, r7, pc}
1000834a:	46c0      	nop			; (mov r8, r8)

1000834c <__wrap___aeabi_uldivmod>:
1000834c:	4694      	mov	ip, r2
1000834e:	4a40      	ldr	r2, [pc, #256]	; (10008450 <udiv0+0x1a>)
10008350:	6f92      	ldr	r2, [r2, #120]	; 0x78
10008352:	0892      	lsrs	r2, r2, #2
10008354:	4662      	mov	r2, ip
10008356:	d201      	bcs.n	1000835c <divmod_u64u64_savestate>
10008358:	e058      	b.n	1000840c <divmod_u64u64_unsafe>
1000835a:	46c0      	nop			; (mov r8, r8)

1000835c <divmod_u64u64_savestate>:
1000835c:	b5f0      	push	{r4, r5, r6, r7, lr}
1000835e:	4e3c      	ldr	r6, [pc, #240]	; (10008450 <udiv0+0x1a>)
10008360:	6fb5      	ldr	r5, [r6, #120]	; 0x78
10008362:	086d      	lsrs	r5, r5, #1
10008364:	d3fc      	bcc.n	10008360 <divmod_u64u64_savestate+0x4>
10008366:	6e34      	ldr	r4, [r6, #96]	; 0x60
10008368:	6e75      	ldr	r5, [r6, #100]	; 0x64
1000836a:	6f77      	ldr	r7, [r6, #116]	; 0x74
1000836c:	6f36      	ldr	r6, [r6, #112]	; 0x70
1000836e:	f000 f84d 	bl	1000840c <divmod_u64u64_unsafe>
10008372:	4694      	mov	ip, r2
10008374:	4a36      	ldr	r2, [pc, #216]	; (10008450 <udiv0+0x1a>)
10008376:	6614      	str	r4, [r2, #96]	; 0x60
10008378:	6655      	str	r5, [r2, #100]	; 0x64
1000837a:	6757      	str	r7, [r2, #116]	; 0x74
1000837c:	6716      	str	r6, [r2, #112]	; 0x70
1000837e:	4662      	mov	r2, ip
10008380:	bdf0      	pop	{r4, r5, r6, r7, pc}
10008382:	46c0      	nop			; (mov r8, r8)

10008384 <divmod_s64s64_unsafe>:
10008384:	2b00      	cmp	r3, #0
10008386:	db24      	blt.n	100083d2 <l41_1+0x26>
10008388:	d011      	beq.n	100083ae <l41_1+0x2>
1000838a:	2900      	cmp	r1, #0
1000838c:	da3e      	bge.n	1000840c <divmod_u64u64_unsafe>
1000838e:	b500      	push	{lr}
10008390:	43c9      	mvns	r1, r1
10008392:	4240      	negs	r0, r0
10008394:	d100      	bne.n	10008398 <l39_1>
10008396:	3101      	adds	r1, #1

10008398 <l39_1>:
10008398:	f000 f838 	bl	1000840c <divmod_u64u64_unsafe>
1000839c:	43c9      	mvns	r1, r1
1000839e:	4240      	negs	r0, r0
100083a0:	d100      	bne.n	100083a4 <l40_1>
100083a2:	3101      	adds	r1, #1

100083a4 <l40_1>:
100083a4:	43db      	mvns	r3, r3
100083a6:	4252      	negs	r2, r2
100083a8:	d100      	bne.n	100083ac <l41_1>
100083aa:	3301      	adds	r3, #1

100083ac <l41_1>:
100083ac:	bd00      	pop	{pc}
100083ae:	2a00      	cmp	r2, #0
100083b0:	d1eb      	bne.n	1000838a <divmod_s64s64_unsafe+0x6>
100083b2:	2800      	cmp	r0, #0
100083b4:	d101      	bne.n	100083ba <l41_1+0xe>
100083b6:	2900      	cmp	r1, #0
100083b8:	d005      	beq.n	100083c6 <l41_1+0x1a>
100083ba:	2000      	movs	r0, #0
100083bc:	0fc9      	lsrs	r1, r1, #31
100083be:	07c9      	lsls	r1, r1, #31
100083c0:	d101      	bne.n	100083c6 <l41_1+0x1a>
100083c2:	43c0      	mvns	r0, r0
100083c4:	0841      	lsrs	r1, r0, #1
100083c6:	b500      	push	{lr}
100083c8:	f003 ff96 	bl	1000c2f8 <____aeabi_ldiv0_veneer>
100083cc:	2200      	movs	r2, #0
100083ce:	2300      	movs	r3, #0
100083d0:	bd00      	pop	{pc}
100083d2:	b500      	push	{lr}
100083d4:	2900      	cmp	r1, #0
100083d6:	db0a      	blt.n	100083ee <l43_1+0x2>
100083d8:	43db      	mvns	r3, r3
100083da:	4252      	negs	r2, r2
100083dc:	d100      	bne.n	100083e0 <l42_1>
100083de:	3301      	adds	r3, #1

100083e0 <l42_1>:
100083e0:	f000 f814 	bl	1000840c <divmod_u64u64_unsafe>
100083e4:	43c9      	mvns	r1, r1
100083e6:	4240      	negs	r0, r0
100083e8:	d100      	bne.n	100083ec <l43_1>
100083ea:	3101      	adds	r1, #1

100083ec <l43_1>:
100083ec:	bd00      	pop	{pc}
100083ee:	43c9      	mvns	r1, r1
100083f0:	4240      	negs	r0, r0
100083f2:	d100      	bne.n	100083f6 <l44_1>
100083f4:	3101      	adds	r1, #1

100083f6 <l44_1>:
100083f6:	43db      	mvns	r3, r3
100083f8:	4252      	negs	r2, r2
100083fa:	d100      	bne.n	100083fe <l45_1>
100083fc:	3301      	adds	r3, #1

100083fe <l45_1>:
100083fe:	f000 f805 	bl	1000840c <divmod_u64u64_unsafe>
10008402:	43db      	mvns	r3, r3
10008404:	4252      	negs	r2, r2
10008406:	d100      	bne.n	1000840a <l46_1>
10008408:	3301      	adds	r3, #1

1000840a <l46_1>:
1000840a:	bd00      	pop	{pc}

1000840c <divmod_u64u64_unsafe>:
1000840c:	2900      	cmp	r1, #0
1000840e:	d123      	bne.n	10008458 <y64>
10008410:	2b00      	cmp	r3, #0
10008412:	d118      	bne.n	10008446 <udiv0+0x10>
10008414:	2a00      	cmp	r2, #0
10008416:	d00c      	beq.n	10008432 <divmod_u64u64_unsafe+0x26>
10008418:	46bc      	mov	ip, r7
1000841a:	4f0d      	ldr	r7, [pc, #52]	; (10008450 <udiv0+0x1a>)
1000841c:	6638      	str	r0, [r7, #96]	; 0x60
1000841e:	667a      	str	r2, [r7, #100]	; 0x64
10008420:	2100      	movs	r1, #0
10008422:	2300      	movs	r3, #0
10008424:	e7ff      	b.n	10008426 <divmod_u64u64_unsafe+0x1a>
10008426:	e7ff      	b.n	10008428 <divmod_u64u64_unsafe+0x1c>
10008428:	e7ff      	b.n	1000842a <divmod_u64u64_unsafe+0x1e>
1000842a:	6f7a      	ldr	r2, [r7, #116]	; 0x74
1000842c:	6f38      	ldr	r0, [r7, #112]	; 0x70
1000842e:	4667      	mov	r7, ip
10008430:	4770      	bx	lr
10008432:	2800      	cmp	r0, #0
10008434:	d001      	beq.n	1000843a <udiv0+0x4>

10008436 <udiv0>:
10008436:	4807      	ldr	r0, [pc, #28]	; (10008454 <udiv0+0x1e>)
10008438:	0001      	movs	r1, r0
1000843a:	b500      	push	{lr}
1000843c:	f003 ff5c 	bl	1000c2f8 <____aeabi_ldiv0_veneer>
10008440:	2200      	movs	r2, #0
10008442:	2300      	movs	r3, #0
10008444:	bd00      	pop	{pc}
10008446:	0002      	movs	r2, r0
10008448:	000b      	movs	r3, r1
1000844a:	2000      	movs	r0, #0
1000844c:	2100      	movs	r1, #0
1000844e:	4770      	bx	lr
10008450:	d0000000 	.word	0xd0000000
10008454:	ffffffff 	.word	0xffffffff

10008458 <y64>:
10008458:	2b00      	cmp	r3, #0
1000845a:	d000      	beq.n	1000845e <y64+0x6>
1000845c:	e0bf      	b.n	100085de <y64_x48>
1000845e:	0c13      	lsrs	r3, r2, #16
10008460:	d128      	bne.n	100084b4 <y64_x32>
10008462:	2a00      	cmp	r2, #0
10008464:	d0e7      	beq.n	10008436 <udiv0>
10008466:	b480      	push	{r7}
10008468:	4f11      	ldr	r7, [pc, #68]	; (100084b0 <y64+0x58>)
1000846a:	6639      	str	r1, [r7, #96]	; 0x60
1000846c:	667a      	str	r2, [r7, #100]	; 0x64
1000846e:	e7ff      	b.n	10008470 <y64+0x18>
10008470:	e7ff      	b.n	10008472 <y64+0x1a>
10008472:	b430      	push	{r4, r5}
10008474:	0c04      	lsrs	r4, r0, #16
10008476:	6f7b      	ldr	r3, [r7, #116]	; 0x74
10008478:	6f39      	ldr	r1, [r7, #112]	; 0x70
1000847a:	041b      	lsls	r3, r3, #16
1000847c:	4323      	orrs	r3, r4
1000847e:	663b      	str	r3, [r7, #96]	; 0x60
10008480:	667a      	str	r2, [r7, #100]	; 0x64
10008482:	e7ff      	b.n	10008484 <y64+0x2c>
10008484:	e7ff      	b.n	10008486 <y64+0x2e>
10008486:	e7ff      	b.n	10008488 <y64+0x30>
10008488:	46c0      	nop			; (mov r8, r8)
1000848a:	b284      	uxth	r4, r0
1000848c:	6f7b      	ldr	r3, [r7, #116]	; 0x74
1000848e:	6f3d      	ldr	r5, [r7, #112]	; 0x70
10008490:	041b      	lsls	r3, r3, #16
10008492:	4323      	orrs	r3, r4
10008494:	663b      	str	r3, [r7, #96]	; 0x60
10008496:	667a      	str	r2, [r7, #100]	; 0x64
10008498:	e7ff      	b.n	1000849a <y64+0x42>
1000849a:	e7ff      	b.n	1000849c <y64+0x44>
1000849c:	46c0      	nop			; (mov r8, r8)
1000849e:	2300      	movs	r3, #0
100084a0:	042c      	lsls	r4, r5, #16
100084a2:	0c2d      	lsrs	r5, r5, #16
100084a4:	6f7a      	ldr	r2, [r7, #116]	; 0x74
100084a6:	6f38      	ldr	r0, [r7, #112]	; 0x70
100084a8:	1900      	adds	r0, r0, r4
100084aa:	4169      	adcs	r1, r5
100084ac:	bcb0      	pop	{r4, r5, r7}
100084ae:	4770      	bx	lr
100084b0:	d0000000 	.word	0xd0000000

100084b4 <y64_x32>:
100084b4:	b5f0      	push	{r4, r5, r6, r7, lr}
100084b6:	4694      	mov	ip, r2
100084b8:	2500      	movs	r5, #0
100084ba:	0e14      	lsrs	r4, r2, #24
100084bc:	d101      	bne.n	100084c2 <y64_x32+0xe>
100084be:	0212      	lsls	r2, r2, #8
100084c0:	3508      	adds	r5, #8
100084c2:	0f14      	lsrs	r4, r2, #28
100084c4:	d101      	bne.n	100084ca <y64_x32+0x16>
100084c6:	0112      	lsls	r2, r2, #4
100084c8:	3504      	adds	r5, #4
100084ca:	0f94      	lsrs	r4, r2, #30
100084cc:	d101      	bne.n	100084d2 <y64_x32+0x1e>
100084ce:	0092      	lsls	r2, r2, #2
100084d0:	3502      	adds	r5, #2
100084d2:	0fd4      	lsrs	r4, r2, #31
100084d4:	d101      	bne.n	100084da <y64_x32+0x26>
100084d6:	0052      	lsls	r2, r2, #1
100084d8:	3501      	adds	r5, #1
100084da:	0bd4      	lsrs	r4, r2, #15
100084dc:	3401      	adds	r4, #1
100084de:	4f25      	ldr	r7, [pc, #148]	; (10008574 <y64_x32+0xc0>)
100084e0:	667c      	str	r4, [r7, #100]	; 0x64
100084e2:	4c25      	ldr	r4, [pc, #148]	; (10008578 <y64_x32+0xc4>)
100084e4:	663c      	str	r4, [r7, #96]	; 0x60
100084e6:	0c0e      	lsrs	r6, r1, #16
100084e8:	b293      	uxth	r3, r2
100084ea:	e7ff      	b.n	100084ec <y64_x32+0x38>
100084ec:	e7ff      	b.n	100084ee <y64_x32+0x3a>
100084ee:	e7ff      	b.n	100084f0 <y64_x32+0x3c>
100084f0:	6f3c      	ldr	r4, [r7, #112]	; 0x70
100084f2:	4366      	muls	r6, r4
100084f4:	0c36      	lsrs	r6, r6, #16
100084f6:	0377      	lsls	r7, r6, #13
100084f8:	46be      	mov	lr, r7
100084fa:	4373      	muls	r3, r6
100084fc:	0bdf      	lsrs	r7, r3, #15
100084fe:	045b      	lsls	r3, r3, #17
10008500:	1ac0      	subs	r0, r0, r3
10008502:	41b9      	sbcs	r1, r7
10008504:	0c13      	lsrs	r3, r2, #16
10008506:	4373      	muls	r3, r6
10008508:	18db      	adds	r3, r3, r3
1000850a:	1ac9      	subs	r1, r1, r3
1000850c:	08ce      	lsrs	r6, r1, #3
1000850e:	4366      	muls	r6, r4
10008510:	0c36      	lsrs	r6, r6, #16
10008512:	44b6      	add	lr, r6
10008514:	b293      	uxth	r3, r2
10008516:	4373      	muls	r3, r6
10008518:	0f1f      	lsrs	r7, r3, #28
1000851a:	011b      	lsls	r3, r3, #4
1000851c:	1ac0      	subs	r0, r0, r3
1000851e:	41b9      	sbcs	r1, r7
10008520:	0c13      	lsrs	r3, r2, #16
10008522:	4373      	muls	r3, r6
10008524:	0b1f      	lsrs	r7, r3, #12
10008526:	051b      	lsls	r3, r3, #20
10008528:	1ac0      	subs	r0, r0, r3
1000852a:	41b9      	sbcs	r1, r7
1000852c:	0d86      	lsrs	r6, r0, #22
1000852e:	028f      	lsls	r7, r1, #10
10008530:	433e      	orrs	r6, r7
10008532:	4366      	muls	r6, r4
10008534:	0c36      	lsrs	r6, r6, #16
10008536:	2d09      	cmp	r5, #9
10008538:	db24      	blt.n	10008584 <last0>
1000853a:	0a52      	lsrs	r2, r2, #9
1000853c:	4372      	muls	r2, r6
1000853e:	1a80      	subs	r0, r0, r2
10008540:	0377      	lsls	r7, r6, #13
10008542:	0a46      	lsrs	r6, r0, #9
10008544:	4366      	muls	r6, r4
10008546:	0c36      	lsrs	r6, r6, #16
10008548:	2316      	movs	r3, #22
1000854a:	1b5b      	subs	r3, r3, r5
1000854c:	40de      	lsrs	r6, r3
1000854e:	40df      	lsrs	r7, r3
10008550:	19bf      	adds	r7, r7, r6
10008552:	4664      	mov	r4, ip
10008554:	4366      	muls	r6, r4
10008556:	1b82      	subs	r2, r0, r6
10008558:	4670      	mov	r0, lr
1000855a:	3504      	adds	r5, #4
1000855c:	3306      	adds	r3, #6
1000855e:	0001      	movs	r1, r0
10008560:	40d9      	lsrs	r1, r3
10008562:	40a8      	lsls	r0, r5
10008564:	19c0      	adds	r0, r0, r7
10008566:	d300      	bcc.n	1000856a <y64_x32+0xb6>
10008568:	3101      	adds	r1, #1
1000856a:	42a2      	cmp	r2, r4
1000856c:	d206      	bcs.n	1000857c <y64_x32+0xc8>
1000856e:	2300      	movs	r3, #0
10008570:	bdf0      	pop	{r4, r5, r6, r7, pc}
10008572:	0000      	.short	0x0000
10008574:	d0000000 	.word	0xd0000000
10008578:	ffffffff 	.word	0xffffffff
1000857c:	1b12      	subs	r2, r2, r4
1000857e:	3001      	adds	r0, #1
10008580:	d3f3      	bcc.n	1000856a <y64_x32+0xb6>
10008582:	e7f1      	b.n	10008568 <y64_x32+0xb4>

10008584 <last0>:
10008584:	2709      	movs	r7, #9
10008586:	1b7f      	subs	r7, r7, r5
10008588:	40fe      	lsrs	r6, r7
1000858a:	4664      	mov	r4, ip
1000858c:	b2a2      	uxth	r2, r4
1000858e:	4372      	muls	r2, r6
10008590:	1a80      	subs	r0, r0, r2
10008592:	d200      	bcs.n	10008596 <last0+0x12>
10008594:	3901      	subs	r1, #1
10008596:	0c22      	lsrs	r2, r4, #16
10008598:	4372      	muls	r2, r6
1000859a:	0c13      	lsrs	r3, r2, #16
1000859c:	0412      	lsls	r2, r2, #16
1000859e:	1a82      	subs	r2, r0, r2
100085a0:	4199      	sbcs	r1, r3
100085a2:	000b      	movs	r3, r1
100085a4:	4670      	mov	r0, lr
100085a6:	3504      	adds	r5, #4
100085a8:	3713      	adds	r7, #19
100085aa:	0001      	movs	r1, r0
100085ac:	40f9      	lsrs	r1, r7
100085ae:	40a8      	lsls	r0, r5
100085b0:	1980      	adds	r0, r0, r6
100085b2:	d300      	bcc.n	100085b6 <last0+0x32>
100085b4:	3101      	adds	r1, #1
100085b6:	2b00      	cmp	r3, #0
100085b8:	d102      	bne.n	100085c0 <last0+0x3c>
100085ba:	42a2      	cmp	r2, r4
100085bc:	d20a      	bcs.n	100085d4 <last0+0x50>
100085be:	bdf0      	pop	{r4, r5, r6, r7, pc}
100085c0:	3001      	adds	r0, #1
100085c2:	d300      	bcc.n	100085c6 <last0+0x42>
100085c4:	3101      	adds	r1, #1
100085c6:	1b12      	subs	r2, r2, r4
100085c8:	d2fa      	bcs.n	100085c0 <last0+0x3c>
100085ca:	3b01      	subs	r3, #1
100085cc:	d1f8      	bne.n	100085c0 <last0+0x3c>
100085ce:	42a2      	cmp	r2, r4
100085d0:	d200      	bcs.n	100085d4 <last0+0x50>
100085d2:	bdf0      	pop	{r4, r5, r6, r7, pc}
100085d4:	3001      	adds	r0, #1
100085d6:	d300      	bcc.n	100085da <last0+0x56>
100085d8:	3101      	adds	r1, #1
100085da:	1b12      	subs	r2, r2, r4
100085dc:	e7f7      	b.n	100085ce <last0+0x4a>

100085de <y64_x48>:
100085de:	b5f0      	push	{r4, r5, r6, r7, lr}
100085e0:	0c1c      	lsrs	r4, r3, #16
100085e2:	d000      	beq.n	100085e6 <y64_x48+0x8>
100085e4:	e080      	b.n	100086e8 <y64_x64>
100085e6:	b40c      	push	{r2, r3}
100085e8:	2500      	movs	r5, #0
100085ea:	0a1c      	lsrs	r4, r3, #8
100085ec:	d104      	bne.n	100085f8 <y64_x48+0x1a>
100085ee:	021b      	lsls	r3, r3, #8
100085f0:	0e16      	lsrs	r6, r2, #24
100085f2:	4333      	orrs	r3, r6
100085f4:	0212      	lsls	r2, r2, #8
100085f6:	3508      	adds	r5, #8
100085f8:	0b1c      	lsrs	r4, r3, #12
100085fa:	d104      	bne.n	10008606 <y64_x48+0x28>
100085fc:	011b      	lsls	r3, r3, #4
100085fe:	0f16      	lsrs	r6, r2, #28
10008600:	4333      	orrs	r3, r6
10008602:	0112      	lsls	r2, r2, #4
10008604:	3504      	adds	r5, #4
10008606:	0b9c      	lsrs	r4, r3, #14
10008608:	d104      	bne.n	10008614 <y64_x48+0x36>
1000860a:	009b      	lsls	r3, r3, #2
1000860c:	0f96      	lsrs	r6, r2, #30
1000860e:	4333      	orrs	r3, r6
10008610:	0092      	lsls	r2, r2, #2
10008612:	3502      	adds	r5, #2
10008614:	0bdc      	lsrs	r4, r3, #15
10008616:	d102      	bne.n	1000861e <y64_x48+0x40>
10008618:	1892      	adds	r2, r2, r2
1000861a:	415b      	adcs	r3, r3
1000861c:	3501      	adds	r5, #1
1000861e:	001c      	movs	r4, r3
10008620:	1897      	adds	r7, r2, r2
10008622:	4164      	adcs	r4, r4
10008624:	3401      	adds	r4, #1
10008626:	4f46      	ldr	r7, [pc, #280]	; (10008740 <y64_x64+0x58>)
10008628:	667c      	str	r4, [r7, #100]	; 0x64
1000862a:	4c46      	ldr	r4, [pc, #280]	; (10008744 <y64_x64+0x5c>)
1000862c:	663c      	str	r4, [r7, #96]	; 0x60
1000862e:	0c0e      	lsrs	r6, r1, #16
10008630:	e7ff      	b.n	10008632 <y64_x48+0x54>
10008632:	e7ff      	b.n	10008634 <y64_x48+0x56>
10008634:	e7ff      	b.n	10008636 <y64_x48+0x58>
10008636:	46c0      	nop			; (mov r8, r8)
10008638:	6f3c      	ldr	r4, [r7, #112]	; 0x70
1000863a:	4366      	muls	r6, r4
1000863c:	0c36      	lsrs	r6, r6, #16
1000863e:	0377      	lsls	r7, r6, #13
10008640:	46be      	mov	lr, r7
10008642:	b297      	uxth	r7, r2
10008644:	4377      	muls	r7, r6
10008646:	1bc0      	subs	r0, r0, r7
10008648:	d200      	bcs.n	1000864c <y64_x48+0x6e>
1000864a:	3901      	subs	r1, #1
1000864c:	1bc0      	subs	r0, r0, r7
1000864e:	d200      	bcs.n	10008652 <y64_x48+0x74>
10008650:	3901      	subs	r1, #1
10008652:	b29f      	uxth	r7, r3
10008654:	4377      	muls	r7, r6
10008656:	1bc9      	subs	r1, r1, r7
10008658:	1bc9      	subs	r1, r1, r7
1000865a:	0c17      	lsrs	r7, r2, #16
1000865c:	4377      	muls	r7, r6
1000865e:	047e      	lsls	r6, r7, #17
10008660:	0bff      	lsrs	r7, r7, #15
10008662:	1b80      	subs	r0, r0, r6
10008664:	41b9      	sbcs	r1, r7
10008666:	08ce      	lsrs	r6, r1, #3
10008668:	4366      	muls	r6, r4
1000866a:	0c36      	lsrs	r6, r6, #16
1000866c:	2d0c      	cmp	r5, #12
1000866e:	db33      	blt.n	100086d8 <last1>
10008670:	44b6      	add	lr, r6
10008672:	0b12      	lsrs	r2, r2, #12
10008674:	051f      	lsls	r7, r3, #20
10008676:	433a      	orrs	r2, r7
10008678:	0b1b      	lsrs	r3, r3, #12
1000867a:	b297      	uxth	r7, r2
1000867c:	4377      	muls	r7, r6
1000867e:	1bc0      	subs	r0, r0, r7
10008680:	d200      	bcs.n	10008684 <y64_x48+0xa6>
10008682:	3901      	subs	r1, #1
10008684:	b29f      	uxth	r7, r3
10008686:	4377      	muls	r7, r6
10008688:	1bc9      	subs	r1, r1, r7
1000868a:	0c17      	lsrs	r7, r2, #16
1000868c:	4377      	muls	r7, r6
1000868e:	043e      	lsls	r6, r7, #16
10008690:	0c3f      	lsrs	r7, r7, #16
10008692:	1b80      	subs	r0, r0, r6
10008694:	41b9      	sbcs	r1, r7
10008696:	0d86      	lsrs	r6, r0, #22
10008698:	028f      	lsls	r7, r1, #10
1000869a:	433e      	orrs	r6, r7
1000869c:	4366      	muls	r6, r4
1000869e:	2729      	movs	r7, #41	; 0x29
100086a0:	1b7f      	subs	r7, r7, r5
100086a2:	40fe      	lsrs	r6, r7
100086a4:	3d0c      	subs	r5, #12
100086a6:	4677      	mov	r7, lr
100086a8:	40af      	lsls	r7, r5
100086aa:	19bf      	adds	r7, r7, r6
100086ac:	bc30      	pop	{r4, r5}
100086ae:	b2a2      	uxth	r2, r4
100086b0:	b2ab      	uxth	r3, r5
100086b2:	4372      	muls	r2, r6
100086b4:	4373      	muls	r3, r6
100086b6:	1a80      	subs	r0, r0, r2
100086b8:	4199      	sbcs	r1, r3
100086ba:	0c22      	lsrs	r2, r4, #16
100086bc:	4372      	muls	r2, r6
100086be:	0c13      	lsrs	r3, r2, #16
100086c0:	0412      	lsls	r2, r2, #16
100086c2:	1a80      	subs	r0, r0, r2
100086c4:	4199      	sbcs	r1, r3
100086c6:	0002      	movs	r2, r0
100086c8:	000b      	movs	r3, r1
100086ca:	3701      	adds	r7, #1
100086cc:	1b00      	subs	r0, r0, r4
100086ce:	41a9      	sbcs	r1, r5
100086d0:	d2f9      	bcs.n	100086c6 <y64_x48+0xe8>
100086d2:	1e78      	subs	r0, r7, #1
100086d4:	2100      	movs	r1, #0
100086d6:	bdf0      	pop	{r4, r5, r6, r7, pc}

100086d8 <last1>:
100086d8:	270c      	movs	r7, #12
100086da:	1b7f      	subs	r7, r7, r5
100086dc:	40fe      	lsrs	r6, r7
100086de:	4677      	mov	r7, lr
100086e0:	0b7f      	lsrs	r7, r7, #13
100086e2:	40af      	lsls	r7, r5
100086e4:	19ff      	adds	r7, r7, r7
100086e6:	e7e0      	b.n	100086aa <y64_x48+0xcc>

100086e8 <y64_x64>:
100086e8:	2400      	movs	r4, #0
100086ea:	1c5d      	adds	r5, r3, #1
100086ec:	d007      	beq.n	100086fe <y64_x64+0x16>
100086ee:	4f14      	ldr	r7, [pc, #80]	; (10008740 <y64_x64+0x58>)
100086f0:	667d      	str	r5, [r7, #100]	; 0x64
100086f2:	6639      	str	r1, [r7, #96]	; 0x60
100086f4:	e7ff      	b.n	100086f6 <y64_x64+0xe>
100086f6:	e7ff      	b.n	100086f8 <y64_x64+0x10>
100086f8:	e7ff      	b.n	100086fa <y64_x64+0x12>
100086fa:	e7ff      	b.n	100086fc <y64_x64+0x14>
100086fc:	6f3c      	ldr	r4, [r7, #112]	; 0x70
100086fe:	b295      	uxth	r5, r2
10008700:	b29e      	uxth	r6, r3
10008702:	4365      	muls	r5, r4
10008704:	4366      	muls	r6, r4
10008706:	1b40      	subs	r0, r0, r5
10008708:	41b1      	sbcs	r1, r6
1000870a:	0c15      	lsrs	r5, r2, #16
1000870c:	0c1e      	lsrs	r6, r3, #16
1000870e:	4365      	muls	r5, r4
10008710:	4366      	muls	r6, r4
10008712:	0436      	lsls	r6, r6, #16
10008714:	0c2f      	lsrs	r7, r5, #16
10008716:	433e      	orrs	r6, r7
10008718:	042d      	lsls	r5, r5, #16
1000871a:	1b40      	subs	r0, r0, r5
1000871c:	41b1      	sbcs	r1, r6
1000871e:	4299      	cmp	r1, r3
10008720:	d204      	bcs.n	1000872c <y64_x64+0x44>
10008722:	0002      	movs	r2, r0
10008724:	000b      	movs	r3, r1
10008726:	0020      	movs	r0, r4
10008728:	2100      	movs	r1, #0
1000872a:	bdf0      	pop	{r4, r5, r6, r7, pc}
1000872c:	d101      	bne.n	10008732 <y64_x64+0x4a>
1000872e:	4290      	cmp	r0, r2
10008730:	d3f7      	bcc.n	10008722 <y64_x64+0x3a>
10008732:	1a80      	subs	r0, r0, r2
10008734:	4199      	sbcs	r1, r3
10008736:	3401      	adds	r4, #1
10008738:	4299      	cmp	r1, r3
1000873a:	d3f2      	bcc.n	10008722 <y64_x64+0x3a>
1000873c:	e7f6      	b.n	1000872c <y64_x64+0x44>
1000873e:	0000      	.short	0x0000
10008740:	d0000000 	.word	0xd0000000
10008744:	ffffffff 	.word	0xffffffff

10008748 <__wrap___aeabi_drsub>:
10008748:	4048      	eors	r0, r1
1000874a:	4041      	eors	r1, r0
1000874c:	4048      	eors	r0, r1

1000874e <__wrap___aeabi_dsub>:
1000874e:	b418      	push	{r3, r4}
10008750:	4b1b      	ldr	r3, [pc, #108]	; (100087c0 <__wrap___aeabi_dmul+0x12>)
10008752:	685b      	ldr	r3, [r3, #4]
10008754:	46fc      	mov	ip, pc
10008756:	9301      	str	r3, [sp, #4]
10008758:	bd08      	pop	{r3, pc}
1000875a:	df04      	.short	0xdf04
1000875c:	100089e7 	.word	0x100089e7

10008760 <__wrap___aeabi_dadd>:
10008760:	b418      	push	{r3, r4}
10008762:	4b17      	ldr	r3, [pc, #92]	; (100087c0 <__wrap___aeabi_dmul+0x12>)
10008764:	681b      	ldr	r3, [r3, #0]
10008766:	46fc      	mov	ip, pc
10008768:	9301      	str	r3, [sp, #4]
1000876a:	bd08      	pop	{r3, pc}
1000876c:	89f1df00 	.word	0x89f1df00
10008770:	1000      	.short	0x1000

10008772 <__wrap___aeabi_ddiv>:
10008772:	4694      	mov	ip, r2
10008774:	4a13      	ldr	r2, [pc, #76]	; (100087c4 <__wrap___aeabi_dmul+0x16>)
10008776:	6f92      	ldr	r2, [r2, #120]	; 0x78
10008778:	0892      	lsrs	r2, r2, #2
1000877a:	d209      	bcs.n	10008790 <ddiv_save_state>
1000877c:	4662      	mov	r2, ip

1000877e <ddiv_shim_call>:
1000877e:	b418      	push	{r3, r4}
10008780:	4b0f      	ldr	r3, [pc, #60]	; (100087c0 <__wrap___aeabi_dmul+0x12>)
10008782:	68db      	ldr	r3, [r3, #12]
10008784:	46fc      	mov	ip, pc
10008786:	9301      	str	r3, [sp, #4]
10008788:	bd08      	pop	{r3, pc}
1000878a:	df0c      	.short	0xdf0c
1000878c:	10008ca9 	.word	0x10008ca9

10008790 <ddiv_save_state>:
10008790:	4a0c      	ldr	r2, [pc, #48]	; (100087c4 <__wrap___aeabi_dmul+0x16>)
10008792:	b5f0      	push	{r4, r5, r6, r7, lr}
10008794:	6e14      	ldr	r4, [r2, #96]	; 0x60
10008796:	6e55      	ldr	r5, [r2, #100]	; 0x64
10008798:	6f57      	ldr	r7, [r2, #116]	; 0x74
1000879a:	6f16      	ldr	r6, [r2, #112]	; 0x70
1000879c:	4662      	mov	r2, ip
1000879e:	f7ff ffee 	bl	1000877e <ddiv_shim_call>
100087a2:	4a08      	ldr	r2, [pc, #32]	; (100087c4 <__wrap___aeabi_dmul+0x16>)
100087a4:	6614      	str	r4, [r2, #96]	; 0x60
100087a6:	6655      	str	r5, [r2, #100]	; 0x64
100087a8:	6757      	str	r7, [r2, #116]	; 0x74
100087aa:	6716      	str	r6, [r2, #112]	; 0x70
100087ac:	bdf0      	pop	{r4, r5, r6, r7, pc}

100087ae <__wrap___aeabi_dmul>:
100087ae:	b418      	push	{r3, r4}
100087b0:	4b03      	ldr	r3, [pc, #12]	; (100087c0 <__wrap___aeabi_dmul+0x12>)
100087b2:	689b      	ldr	r3, [r3, #8]
100087b4:	46fc      	mov	ip, pc
100087b6:	9301      	str	r3, [sp, #4]
100087b8:	bd08      	pop	{r3, pc}
100087ba:	df08      	.short	0xdf08
100087bc:	10008b4d 	.word	0x10008b4d
100087c0:	20000620 	.word	0x20000620
100087c4:	d0000000 	.word	0xd0000000

100087c8 <__wrap___aeabi_cdrcmple>:
100087c8:	b5ff      	push	{r0, r1, r2, r3, r4, r5, r6, r7, lr}
100087ca:	4050      	eors	r0, r2
100087cc:	4042      	eors	r2, r0
100087ce:	4050      	eors	r0, r2
100087d0:	4059      	eors	r1, r3
100087d2:	404b      	eors	r3, r1
100087d4:	4059      	eors	r1, r3
100087d6:	e000      	b.n	100087da <__aeabi_dfcmple_guts>

100087d8 <__wrap___aeabi_cdcmpeq>:
100087d8:	b5ff      	push	{r0, r1, r2, r3, r4, r5, r6, r7, lr}

100087da <__aeabi_dfcmple_guts>:
100087da:	4f15      	ldr	r7, [pc, #84]	; (10008830 <__aeabi_dfcmple_guts+0x56>)
100087dc:	004c      	lsls	r4, r1, #1
100087de:	0d64      	lsrs	r4, r4, #21
100087e0:	d003      	beq.n	100087ea <__aeabi_dfcmple_guts+0x10>
100087e2:	42bc      	cmp	r4, r7
100087e4:	d104      	bne.n	100087f0 <__aeabi_dfcmple_guts+0x16>
100087e6:	030c      	lsls	r4, r1, #12
100087e8:	d814      	bhi.n	10008814 <__aeabi_dfcmple_guts+0x3a>
100087ea:	2000      	movs	r0, #0
100087ec:	0d09      	lsrs	r1, r1, #20
100087ee:	0509      	lsls	r1, r1, #20
100087f0:	005c      	lsls	r4, r3, #1
100087f2:	0d64      	lsrs	r4, r4, #21
100087f4:	d003      	beq.n	100087fe <__aeabi_dfcmple_guts+0x24>
100087f6:	42bc      	cmp	r4, r7
100087f8:	d104      	bne.n	10008804 <__aeabi_dfcmple_guts+0x2a>
100087fa:	031c      	lsls	r4, r3, #12
100087fc:	d80a      	bhi.n	10008814 <__aeabi_dfcmple_guts+0x3a>
100087fe:	2200      	movs	r2, #0
10008800:	0d1b      	lsrs	r3, r3, #20
10008802:	051b      	lsls	r3, r3, #20
10008804:	2601      	movs	r6, #1
10008806:	404b      	eors	r3, r1
10008808:	d409      	bmi.n	1000881e <__aeabi_dfcmple_guts+0x44>
1000880a:	404b      	eors	r3, r1
1000880c:	d503      	bpl.n	10008816 <__aeabi_dfcmple_guts+0x3c>
1000880e:	428b      	cmp	r3, r1
10008810:	d100      	bne.n	10008814 <__aeabi_dfcmple_guts+0x3a>
10008812:	4282      	cmp	r2, r0
10008814:	bdff      	pop	{r0, r1, r2, r3, r4, r5, r6, r7, pc}
10008816:	4299      	cmp	r1, r3
10008818:	d1fc      	bne.n	10008814 <__aeabi_dfcmple_guts+0x3a>
1000881a:	4290      	cmp	r0, r2
1000881c:	bdff      	pop	{r0, r1, r2, r3, r4, r5, r6, r7, pc}
1000881e:	430b      	orrs	r3, r1
10008820:	18db      	adds	r3, r3, r3
10008822:	4303      	orrs	r3, r0
10008824:	4313      	orrs	r3, r2
10008826:	d0f5      	beq.n	10008814 <__aeabi_dfcmple_guts+0x3a>
10008828:	43c9      	mvns	r1, r1
1000882a:	1849      	adds	r1, r1, r1
1000882c:	bdff      	pop	{r0, r1, r2, r3, r4, r5, r6, r7, pc}
1000882e:	0000      	.short	0x0000
10008830:	000007ff 	.word	0x000007ff

10008834 <__wrap___aeabi_dcmplt>:
10008834:	b500      	push	{lr}
10008836:	f7ff ffcf 	bl	100087d8 <__wrap___aeabi_cdcmpeq>
1000883a:	4180      	sbcs	r0, r0
1000883c:	bd00      	pop	{pc}
1000883e:	46c0      	nop			; (mov r8, r8)

10008840 <__wrap___aeabi_dcmple>:
10008840:	b500      	push	{lr}
10008842:	f7ff ffc9 	bl	100087d8 <__wrap___aeabi_cdcmpeq>
10008846:	d901      	bls.n	1000884c <__wrap___aeabi_dcmple+0xc>
10008848:	2000      	movs	r0, #0
1000884a:	bd00      	pop	{pc}
1000884c:	2001      	movs	r0, #1
1000884e:	bd00      	pop	{pc}

10008850 <__wrap___aeabi_dcmpge>:
10008850:	b500      	push	{lr}
10008852:	f7ff ffb9 	bl	100087c8 <__wrap___aeabi_cdrcmple>
10008856:	d901      	bls.n	1000885c <__wrap___aeabi_dcmpge+0xc>
10008858:	2000      	movs	r0, #0
1000885a:	bd00      	pop	{pc}
1000885c:	2001      	movs	r0, #1
1000885e:	bd00      	pop	{pc}

10008860 <__wrap___aeabi_dcmpgt>:
10008860:	b500      	push	{lr}
10008862:	f7ff ffb1 	bl	100087c8 <__wrap___aeabi_cdrcmple>
10008866:	4180      	sbcs	r0, r0
10008868:	bd00      	pop	{pc}

1000886a <__wrap___aeabi_dcmpun>:
1000886a:	2001      	movs	r0, #1
1000886c:	0540      	lsls	r0, r0, #21
1000886e:	004a      	lsls	r2, r1, #1
10008870:	1812      	adds	r2, r2, r0
10008872:	d804      	bhi.n	1000887e <__wrap___aeabi_dcmpun+0x14>
10008874:	005a      	lsls	r2, r3, #1
10008876:	1812      	adds	r2, r2, r0
10008878:	d801      	bhi.n	1000887e <__wrap___aeabi_dcmpun+0x14>
1000887a:	2000      	movs	r0, #0
1000887c:	4770      	bx	lr
1000887e:	2001      	movs	r0, #1
10008880:	4770      	bx	lr
10008882:	2000      	movs	r0, #0
10008884:	4770      	bx	lr
	...

10008888 <__wrap___aeabi_ui2d>:
10008888:	2100      	movs	r1, #0
1000888a:	2800      	cmp	r0, #0
1000888c:	d105      	bne.n	1000889a <__wrap___aeabi_i2d+0xa>
1000888e:	4770      	bx	lr

10008890 <__wrap___aeabi_i2d>:
10008890:	17c1      	asrs	r1, r0, #31
10008892:	4048      	eors	r0, r1
10008894:	1a40      	subs	r0, r0, r1
10008896:	d0fa      	beq.n	1000888e <__wrap___aeabi_ui2d+0x6>
10008898:	07c9      	lsls	r1, r1, #31
1000889a:	b513      	push	{r0, r1, r4, lr}
1000889c:	4b06      	ldr	r3, [pc, #24]	; (100088b8 <__wrap___aeabi_i2d+0x28>)
1000889e:	681b      	ldr	r3, [r3, #0]
100088a0:	4798      	blx	r3
100088a2:	bc0c      	pop	{r2, r3}
100088a4:	1c44      	adds	r4, r0, #1
100088a6:	40a2      	lsls	r2, r4
100088a8:	0510      	lsls	r0, r2, #20
100088aa:	0b12      	lsrs	r2, r2, #12
100088ac:	4903      	ldr	r1, [pc, #12]	; (100088bc <__wrap___aeabi_i2d+0x2c>)
100088ae:	1b09      	subs	r1, r1, r4
100088b0:	0509      	lsls	r1, r1, #20
100088b2:	4319      	orrs	r1, r3
100088b4:	4311      	orrs	r1, r2
100088b6:	bd10      	pop	{r4, pc}
100088b8:	20027114 	.word	0x20027114
100088bc:	0000041f 	.word	0x0000041f

100088c0 <__wrap___aeabi_d2iz>:
100088c0:	b510      	push	{r4, lr}
100088c2:	004c      	lsls	r4, r1, #1
100088c4:	0d62      	lsrs	r2, r4, #21
100088c6:	2380      	movs	r3, #128	; 0x80
100088c8:	18d2      	adds	r2, r2, r3
100088ca:	00db      	lsls	r3, r3, #3
100088cc:	1ad2      	subs	r2, r2, r3
100088ce:	055b      	lsls	r3, r3, #21
100088d0:	2a7e      	cmp	r2, #126	; 0x7e
100088d2:	dd10      	ble.n	100088f6 <__wrap___aeabi_d2iz+0x36>
100088d4:	3a9e      	subs	r2, #158	; 0x9e
100088d6:	da13      	bge.n	10008900 <__wrap___aeabi_d2iz+0x40>
100088d8:	17cc      	asrs	r4, r1, #31
100088da:	0309      	lsls	r1, r1, #12
100088dc:	0849      	lsrs	r1, r1, #1
100088de:	4319      	orrs	r1, r3
100088e0:	4252      	negs	r2, r2
100088e2:	40d1      	lsrs	r1, r2
100088e4:	0064      	lsls	r4, r4, #1
100088e6:	3401      	adds	r4, #1
100088e8:	3215      	adds	r2, #21
100088ea:	2a20      	cmp	r2, #32
100088ec:	da05      	bge.n	100088fa <__wrap___aeabi_d2iz+0x3a>
100088ee:	40d0      	lsrs	r0, r2
100088f0:	4308      	orrs	r0, r1
100088f2:	4360      	muls	r0, r4
100088f4:	bd10      	pop	{r4, pc}
100088f6:	2000      	movs	r0, #0
100088f8:	bd10      	pop	{r4, pc}
100088fa:	4608      	mov	r0, r1
100088fc:	4360      	muls	r0, r4
100088fe:	bd10      	pop	{r4, pc}
10008900:	0fc8      	lsrs	r0, r1, #31
10008902:	18c0      	adds	r0, r0, r3
10008904:	3801      	subs	r0, #1
10008906:	bd10      	pop	{r4, pc}

10008908 <__wrap___aeabi_d2uiz>:
10008908:	b418      	push	{r3, r4}
1000890a:	4b04      	ldr	r3, [pc, #16]	; (1000891c <__wrap___aeabi_d2uiz+0x14>)
1000890c:	6a5b      	ldr	r3, [r3, #36]	; 0x24
1000890e:	46fc      	mov	ip, pc
10008910:	9301      	str	r3, [sp, #4]
10008912:	bd08      	pop	{r3, pc}
10008914:	8e59df24 	.word	0x8e59df24
10008918:	00001000 	.word	0x00001000
1000891c:	20000620 	.word	0x20000620

10008920 <__aeabi_double_init>:
10008920:	2313      	movs	r3, #19
10008922:	b570      	push	{r4, r5, r6, lr}
10008924:	781d      	ldrb	r5, [r3, #0]
10008926:	2d01      	cmp	r5, #1
10008928:	d015      	beq.n	10008956 <__aeabi_double_init+0x36>
1000892a:	dd10      	ble.n	1000894e <__aeabi_double_init+0x2e>
1000892c:	481c      	ldr	r0, [pc, #112]	; (100089a0 <__aeabi_double_init+0x80>)
1000892e:	f7ff fc79 	bl	10008224 <rom_data_lookup>
10008932:	4c1c      	ldr	r4, [pc, #112]	; (100089a4 <__aeabi_double_init+0x84>)
10008934:	0001      	movs	r1, r0
10008936:	2280      	movs	r2, #128	; 0x80
10008938:	0020      	movs	r0, r4
1000893a:	f000 fba7 	bl	1000908c <__wrap___aeabi_memcpy>
1000893e:	2d02      	cmp	r5, #2
10008940:	d006      	beq.n	10008950 <__aeabi_double_init+0x30>
10008942:	4819      	ldr	r0, [pc, #100]	; (100089a8 <__aeabi_double_init+0x88>)
10008944:	f7ff fc66 	bl	10008214 <rom_func_lookup>
10008948:	4b18      	ldr	r3, [pc, #96]	; (100089ac <__aeabi_double_init+0x8c>)
1000894a:	6018      	str	r0, [r3, #0]
1000894c:	bd70      	pop	{r4, r5, r6, pc}
1000894e:	4c15      	ldr	r4, [pc, #84]	; (100089a4 <__aeabi_double_init+0x84>)
10008950:	4b17      	ldr	r3, [pc, #92]	; (100089b0 <__aeabi_double_init+0x90>)
10008952:	64a3      	str	r3, [r4, #72]	; 0x48
10008954:	e7f5      	b.n	10008942 <__aeabi_double_init+0x22>
10008956:	4b16      	ldr	r3, [pc, #88]	; (100089b0 <__aeabi_double_init+0x90>)
10008958:	4c12      	ldr	r4, [pc, #72]	; (100089a4 <__aeabi_double_init+0x84>)
1000895a:	6023      	str	r3, [r4, #0]
1000895c:	6063      	str	r3, [r4, #4]
1000895e:	60a3      	str	r3, [r4, #8]
10008960:	60e3      	str	r3, [r4, #12]
10008962:	6123      	str	r3, [r4, #16]
10008964:	6163      	str	r3, [r4, #20]
10008966:	61a3      	str	r3, [r4, #24]
10008968:	61e3      	str	r3, [r4, #28]
1000896a:	6223      	str	r3, [r4, #32]
1000896c:	6263      	str	r3, [r4, #36]	; 0x24
1000896e:	62a3      	str	r3, [r4, #40]	; 0x28
10008970:	62e3      	str	r3, [r4, #44]	; 0x2c
10008972:	6323      	str	r3, [r4, #48]	; 0x30
10008974:	6363      	str	r3, [r4, #52]	; 0x34
10008976:	63a3      	str	r3, [r4, #56]	; 0x38
10008978:	63e3      	str	r3, [r4, #60]	; 0x3c
1000897a:	6423      	str	r3, [r4, #64]	; 0x40
1000897c:	6463      	str	r3, [r4, #68]	; 0x44
1000897e:	64a3      	str	r3, [r4, #72]	; 0x48
10008980:	64e3      	str	r3, [r4, #76]	; 0x4c
10008982:	6523      	str	r3, [r4, #80]	; 0x50
10008984:	6563      	str	r3, [r4, #84]	; 0x54
10008986:	65a3      	str	r3, [r4, #88]	; 0x58
10008988:	65e3      	str	r3, [r4, #92]	; 0x5c
1000898a:	6623      	str	r3, [r4, #96]	; 0x60
1000898c:	6663      	str	r3, [r4, #100]	; 0x64
1000898e:	66a3      	str	r3, [r4, #104]	; 0x68
10008990:	66e3      	str	r3, [r4, #108]	; 0x6c
10008992:	6723      	str	r3, [r4, #112]	; 0x70
10008994:	6763      	str	r3, [r4, #116]	; 0x74
10008996:	67a3      	str	r3, [r4, #120]	; 0x78
10008998:	67e3      	str	r3, [r4, #124]	; 0x7c
1000899a:	64a3      	str	r3, [r4, #72]	; 0x48
1000899c:	e7d1      	b.n	10008942 <__aeabi_double_init+0x22>
1000899e:	46c0      	nop			; (mov r8, r8)
100089a0:	00004453 	.word	0x00004453
100089a4:	20000620 	.word	0x20000620
100089a8:	0000334c 	.word	0x0000334c
100089ac:	20027114 	.word	0x20027114
100089b0:	100089b5 	.word	0x100089b5

100089b4 <double_table_shim_on_use_helper>:
100089b4:	b507      	push	{r0, r1, r2, lr}
100089b6:	4660      	mov	r0, ip
100089b8:	8801      	ldrh	r1, [r0, #0]
100089ba:	0a0a      	lsrs	r2, r1, #8
100089bc:	3002      	adds	r0, #2
100089be:	2adf      	cmp	r2, #223	; 0xdf
100089c0:	d1fa      	bne.n	100089b8 <double_table_shim_on_use_helper+0x4>
100089c2:	b2c9      	uxtb	r1, r1
100089c4:	0882      	lsrs	r2, r0, #2
100089c6:	d304      	bcc.n	100089d2 <double_table_shim_on_use_helper+0x1e>
100089c8:	8802      	ldrh	r2, [r0, #0]
100089ca:	8840      	ldrh	r0, [r0, #2]
100089cc:	0400      	lsls	r0, r0, #16
100089ce:	4310      	orrs	r0, r2
100089d0:	e000      	b.n	100089d4 <double_table_shim_on_use_helper+0x20>
100089d2:	6800      	ldr	r0, [r0, #0]
100089d4:	4a01      	ldr	r2, [pc, #4]	; (100089dc <double_table_shim_on_use_helper+0x28>)
100089d6:	5050      	str	r0, [r2, r1]
100089d8:	9003      	str	r0, [sp, #12]
100089da:	bd07      	pop	{r0, r1, r2, pc}
100089dc:	20000620 	.word	0x20000620

100089e0 <drsub_shim>:
100089e0:	b40f      	push	{r0, r1, r2, r3}
100089e2:	bc03      	pop	{r0, r1}
100089e4:	bc0c      	pop	{r2, r3}

100089e6 <dsub_shim>:
100089e6:	b5f0      	push	{r4, r5, r6, r7, lr}
100089e8:	2401      	movs	r4, #1
100089ea:	07e4      	lsls	r4, r4, #31
100089ec:	4063      	eors	r3, r4
100089ee:	e000      	b.n	100089f2 <da_entry>

100089f0 <dadd_shim>:
100089f0:	b5f0      	push	{r4, r5, r6, r7, lr}

100089f2 <da_entry>:
100089f2:	0d0c      	lsrs	r4, r1, #20
100089f4:	0fcf      	lsrs	r7, r1, #31
100089f6:	1e66      	subs	r6, r4, #1
100089f8:	0536      	lsls	r6, r6, #20
100089fa:	1b89      	subs	r1, r1, r6
100089fc:	0564      	lsls	r4, r4, #21
100089fe:	d303      	bcc.n	10008a08 <l7_1>
10008a00:	43c9      	mvns	r1, r1
10008a02:	4240      	negs	r0, r0
10008a04:	d300      	bcc.n	10008a08 <l7_1>
10008a06:	3101      	adds	r1, #1

10008a08 <l7_1>:
10008a08:	0d64      	lsrs	r4, r4, #21
10008a0a:	d003      	beq.n	10008a14 <l7_2>
10008a0c:	1c66      	adds	r6, r4, #1
10008a0e:	0af6      	lsrs	r6, r6, #11
10008a10:	d007      	beq.n	10008a22 <l7_3>
10008a12:	1be4      	subs	r4, r4, r7

10008a14 <l7_2>:
10008a14:	2000      	movs	r0, #0
10008a16:	007f      	lsls	r7, r7, #1
10008a18:	1c79      	adds	r1, r7, #1
10008a1a:	0789      	lsls	r1, r1, #30
10008a1c:	1289      	asrs	r1, r1, #10
10008a1e:	3c80      	subs	r4, #128	; 0x80
10008a20:	0324      	lsls	r4, r4, #12

10008a22 <l7_3>:
10008a22:	0d1d      	lsrs	r5, r3, #20
10008a24:	0fdf      	lsrs	r7, r3, #31
10008a26:	1e6e      	subs	r6, r5, #1
10008a28:	0536      	lsls	r6, r6, #20
10008a2a:	1b9b      	subs	r3, r3, r6
10008a2c:	056d      	lsls	r5, r5, #21
10008a2e:	d303      	bcc.n	10008a38 <l8_1>
10008a30:	43db      	mvns	r3, r3
10008a32:	4252      	negs	r2, r2
10008a34:	d300      	bcc.n	10008a38 <l8_1>
10008a36:	3301      	adds	r3, #1

10008a38 <l8_1>:
10008a38:	0d6d      	lsrs	r5, r5, #21
10008a3a:	d003      	beq.n	10008a44 <l8_2>
10008a3c:	1c6e      	adds	r6, r5, #1
10008a3e:	0af6      	lsrs	r6, r6, #11
10008a40:	d007      	beq.n	10008a52 <l8_3>
10008a42:	1bed      	subs	r5, r5, r7

10008a44 <l8_2>:
10008a44:	2200      	movs	r2, #0
10008a46:	007f      	lsls	r7, r7, #1
10008a48:	1c7b      	adds	r3, r7, #1
10008a4a:	079b      	lsls	r3, r3, #30
10008a4c:	129b      	asrs	r3, r3, #10
10008a4e:	3d80      	subs	r5, #128	; 0x80
10008a50:	032d      	lsls	r5, r5, #12

10008a52 <l8_3>:
10008a52:	1b2f      	subs	r7, r5, r4
10008a54:	1b66      	subs	r6, r4, r5
10008a56:	d458      	bmi.n	10008b0a <da_ygtx>
10008a58:	46a4      	mov	ip, r4
10008a5a:	2e20      	cmp	r6, #32
10008a5c:	da46      	bge.n	10008aec <da_xrgty>
10008a5e:	3720      	adds	r7, #32
10008a60:	0014      	movs	r4, r2
10008a62:	40bc      	lsls	r4, r7

10008a64 <da_xgty0>:
10008a64:	001d      	movs	r5, r3
10008a66:	40bd      	lsls	r5, r7
10008a68:	40f2      	lsrs	r2, r6
10008a6a:	4133      	asrs	r3, r6
10008a6c:	432a      	orrs	r2, r5

10008a6e <da_add>:
10008a6e:	1880      	adds	r0, r0, r2
10008a70:	4159      	adcs	r1, r3

10008a72 <da_pack>:
10008a72:	0fcb      	lsrs	r3, r1, #31
10008a74:	d005      	beq.n	10008a82 <da_pack+0x10>
10008a76:	43c9      	mvns	r1, r1
10008a78:	43c0      	mvns	r0, r0
10008a7a:	2200      	movs	r2, #0
10008a7c:	4264      	negs	r4, r4
10008a7e:	4150      	adcs	r0, r2
10008a80:	4151      	adcs	r1, r2
10008a82:	4662      	mov	r2, ip
10008a84:	0d4d      	lsrs	r5, r1, #21
10008a86:	d128      	bne.n	10008ada <da_0>
10008a88:	0d0d      	lsrs	r5, r1, #20
10008a8a:	d107      	bne.n	10008a9c <da_1>
10008a8c:	2800      	cmp	r0, #0
10008a8e:	d01f      	beq.n	10008ad0 <da_5>

10008a90 <da_2>:
10008a90:	1924      	adds	r4, r4, r4
10008a92:	4140      	adcs	r0, r0
10008a94:	4149      	adcs	r1, r1
10008a96:	3a01      	subs	r2, #1
10008a98:	0d0d      	lsrs	r5, r1, #20
10008a9a:	d0f9      	beq.n	10008a90 <da_2>

10008a9c <da_1>:
10008a9c:	0064      	lsls	r4, r4, #1
10008a9e:	d306      	bcc.n	10008aae <da_3>

10008aa0 <da_4>:
10008aa0:	3001      	adds	r0, #1
10008aa2:	d300      	bcc.n	10008aa6 <da_4+0x6>
10008aa4:	3101      	adds	r1, #1
10008aa6:	2c00      	cmp	r4, #0
10008aa8:	d101      	bne.n	10008aae <da_3>
10008aaa:	0840      	lsrs	r0, r0, #1
10008aac:	0040      	lsls	r0, r0, #1

10008aae <da_3>:
10008aae:	3a01      	subs	r2, #1
10008ab0:	d40b      	bmi.n	10008aca <da_6>
10008ab2:	1c94      	adds	r4, r2, #2
10008ab4:	0ae4      	lsrs	r4, r4, #11
10008ab6:	d104      	bne.n	10008ac2 <da_7>
10008ab8:	0512      	lsls	r2, r2, #20
10008aba:	4411      	add	r1, r2
10008abc:	07db      	lsls	r3, r3, #31
10008abe:	4419      	add	r1, r3
10008ac0:	bdf0      	pop	{r4, r5, r6, r7, pc}

10008ac2 <da_7>:
10008ac2:	07d9      	lsls	r1, r3, #31
10008ac4:	4b20      	ldr	r3, [pc, #128]	; (10008b48 <da_xmgty+0x4>)
10008ac6:	4319      	orrs	r1, r3
10008ac8:	e000      	b.n	10008acc <da_6+0x2>

10008aca <da_6>:
10008aca:	07d9      	lsls	r1, r3, #31
10008acc:	2000      	movs	r0, #0
10008ace:	bdf0      	pop	{r4, r5, r6, r7, pc}

10008ad0 <da_5>:
10008ad0:	2900      	cmp	r1, #0
10008ad2:	d1dd      	bne.n	10008a90 <da_2>
10008ad4:	2c00      	cmp	r4, #0
10008ad6:	d1db      	bne.n	10008a90 <da_2>
10008ad8:	bdf0      	pop	{r4, r5, r6, r7, pc}

10008ada <da_0>:
10008ada:	3201      	adds	r2, #1
10008adc:	07c6      	lsls	r6, r0, #31
10008ade:	0840      	lsrs	r0, r0, #1
10008ae0:	07cd      	lsls	r5, r1, #31
10008ae2:	4328      	orrs	r0, r5
10008ae4:	0849      	lsrs	r1, r1, #1
10008ae6:	2e00      	cmp	r6, #0
10008ae8:	d0e1      	beq.n	10008aae <da_3>
10008aea:	e7d9      	b.n	10008aa0 <da_4>

10008aec <da_xrgty>:
10008aec:	2e3c      	cmp	r6, #60	; 0x3c
10008aee:	da29      	bge.n	10008b44 <da_xmgty>
10008af0:	3e20      	subs	r6, #32
10008af2:	3740      	adds	r7, #64	; 0x40
10008af4:	0014      	movs	r4, r2
10008af6:	40bc      	lsls	r4, r7
10008af8:	d000      	beq.n	10008afc <da_xrgty+0x10>
10008afa:	2401      	movs	r4, #1
10008afc:	40f2      	lsrs	r2, r6
10008afe:	4314      	orrs	r4, r2
10008b00:	001a      	movs	r2, r3
10008b02:	40bb      	lsls	r3, r7
10008b04:	431c      	orrs	r4, r3
10008b06:	17d3      	asrs	r3, r2, #31
10008b08:	e7ac      	b.n	10008a64 <da_xgty0>

10008b0a <da_ygtx>:
10008b0a:	46ac      	mov	ip, r5
10008b0c:	2f20      	cmp	r7, #32
10008b0e:	da08      	bge.n	10008b22 <da_yrgtx>
10008b10:	3620      	adds	r6, #32
10008b12:	0004      	movs	r4, r0
10008b14:	40b4      	lsls	r4, r6

10008b16 <da_ygtx0>:
10008b16:	000d      	movs	r5, r1
10008b18:	40b5      	lsls	r5, r6
10008b1a:	40f8      	lsrs	r0, r7
10008b1c:	4139      	asrs	r1, r7
10008b1e:	4328      	orrs	r0, r5
10008b20:	e7a5      	b.n	10008a6e <da_add>

10008b22 <da_yrgtx>:
10008b22:	2f3c      	cmp	r7, #60	; 0x3c
10008b24:	da0c      	bge.n	10008b40 <da_ymgtx>
10008b26:	3f20      	subs	r7, #32
10008b28:	3640      	adds	r6, #64	; 0x40
10008b2a:	0004      	movs	r4, r0
10008b2c:	40b4      	lsls	r4, r6
10008b2e:	d000      	beq.n	10008b32 <da_yrgtx+0x10>
10008b30:	2401      	movs	r4, #1
10008b32:	40f8      	lsrs	r0, r7
10008b34:	4304      	orrs	r4, r0
10008b36:	0008      	movs	r0, r1
10008b38:	40b1      	lsls	r1, r6
10008b3a:	430c      	orrs	r4, r1
10008b3c:	17c1      	asrs	r1, r0, #31
10008b3e:	e7ea      	b.n	10008b16 <da_ygtx0>

10008b40 <da_ymgtx>:
10008b40:	0010      	movs	r0, r2
10008b42:	0019      	movs	r1, r3

10008b44 <da_xmgty>:
10008b44:	2400      	movs	r4, #0
10008b46:	e794      	b.n	10008a72 <da_pack>
10008b48:	7ff00000 	.word	0x7ff00000

10008b4c <dmul_shim>:
10008b4c:	b5f0      	push	{r4, r5, r6, r7, lr}
10008b4e:	0d0c      	lsrs	r4, r1, #20
10008b50:	1e66      	subs	r6, r4, #1
10008b52:	0536      	lsls	r6, r6, #20
10008b54:	1b89      	subs	r1, r1, r6
10008b56:	0ae6      	lsrs	r6, r4, #11
10008b58:	0564      	lsls	r4, r4, #21
10008b5a:	0d64      	lsrs	r4, r4, #21
10008b5c:	d002      	beq.n	10008b64 <l11_1>
10008b5e:	1c65      	adds	r5, r4, #1
10008b60:	0aed      	lsrs	r5, r5, #11
10008b62:	d004      	beq.n	10008b6e <l11_2>

10008b64 <l11_1>:
10008b64:	2000      	movs	r0, #0
10008b66:	2101      	movs	r1, #1
10008b68:	0509      	lsls	r1, r1, #20
10008b6a:	3c80      	subs	r4, #128	; 0x80
10008b6c:	0324      	lsls	r4, r4, #12

10008b6e <l11_2>:
10008b6e:	46a4      	mov	ip, r4
10008b70:	0d1c      	lsrs	r4, r3, #20
10008b72:	1e67      	subs	r7, r4, #1
10008b74:	053f      	lsls	r7, r7, #20
10008b76:	1bdb      	subs	r3, r3, r7
10008b78:	0ae7      	lsrs	r7, r4, #11
10008b7a:	0564      	lsls	r4, r4, #21
10008b7c:	0d64      	lsrs	r4, r4, #21
10008b7e:	d002      	beq.n	10008b86 <l12_1>
10008b80:	1c65      	adds	r5, r4, #1
10008b82:	0aed      	lsrs	r5, r5, #11
10008b84:	d004      	beq.n	10008b90 <l12_2>

10008b86 <l12_1>:
10008b86:	2200      	movs	r2, #0
10008b88:	2301      	movs	r3, #1
10008b8a:	051b      	lsls	r3, r3, #20
10008b8c:	3c80      	subs	r4, #128	; 0x80
10008b8e:	0324      	lsls	r4, r4, #12

10008b90 <l12_2>:
10008b90:	4077      	eors	r7, r6
10008b92:	4464      	add	r4, ip
10008b94:	b497      	push	{r0, r1, r2, r4, r7}
10008b96:	b284      	uxth	r4, r0
10008b98:	b296      	uxth	r6, r2
10008b9a:	4374      	muls	r4, r6
10008b9c:	0c07      	lsrs	r7, r0, #16
10008b9e:	437e      	muls	r6, r7
10008ba0:	0c15      	lsrs	r5, r2, #16
10008ba2:	436f      	muls	r7, r5
10008ba4:	b280      	uxth	r0, r0
10008ba6:	4368      	muls	r0, r5
10008ba8:	1836      	adds	r6, r6, r0
10008baa:	d302      	bcc.n	10008bb2 <l13_1>
10008bac:	2001      	movs	r0, #1
10008bae:	0400      	lsls	r0, r0, #16
10008bb0:	183f      	adds	r7, r7, r0

10008bb2 <l13_1>:
10008bb2:	0430      	lsls	r0, r6, #16
10008bb4:	0c35      	lsrs	r5, r6, #16
10008bb6:	1900      	adds	r0, r0, r4
10008bb8:	417d      	adcs	r5, r7
10008bba:	4684      	mov	ip, r0
10008bbc:	b288      	uxth	r0, r1
10008bbe:	b29a      	uxth	r2, r3
10008bc0:	4350      	muls	r0, r2
10008bc2:	0c0c      	lsrs	r4, r1, #16
10008bc4:	4362      	muls	r2, r4
10008bc6:	0c1f      	lsrs	r7, r3, #16
10008bc8:	437c      	muls	r4, r7
10008bca:	b28e      	uxth	r6, r1
10008bcc:	437e      	muls	r6, r7
10008bce:	1992      	adds	r2, r2, r6
10008bd0:	d302      	bcc.n	10008bd8 <l14_1>
10008bd2:	2601      	movs	r6, #1
10008bd4:	0436      	lsls	r6, r6, #16
10008bd6:	19a4      	adds	r4, r4, r6

10008bd8 <l14_1>:
10008bd8:	0416      	lsls	r6, r2, #16
10008bda:	0c17      	lsrs	r7, r2, #16
10008bdc:	1836      	adds	r6, r6, r0
10008bde:	4167      	adcs	r7, r4
10008be0:	bc01      	pop	{r0}
10008be2:	b281      	uxth	r1, r0
10008be4:	b29a      	uxth	r2, r3
10008be6:	4351      	muls	r1, r2
10008be8:	0c04      	lsrs	r4, r0, #16
10008bea:	4362      	muls	r2, r4
10008bec:	0c1b      	lsrs	r3, r3, #16
10008bee:	435c      	muls	r4, r3
10008bf0:	b280      	uxth	r0, r0
10008bf2:	4358      	muls	r0, r3
10008bf4:	1812      	adds	r2, r2, r0
10008bf6:	d302      	bcc.n	10008bfe <l15_1>
10008bf8:	2001      	movs	r0, #1
10008bfa:	0400      	lsls	r0, r0, #16
10008bfc:	1824      	adds	r4, r4, r0

10008bfe <l15_1>:
10008bfe:	0410      	lsls	r0, r2, #16
10008c00:	0c13      	lsrs	r3, r2, #16
10008c02:	1840      	adds	r0, r0, r1
10008c04:	4163      	adcs	r3, r4
10008c06:	182d      	adds	r5, r5, r0
10008c08:	415e      	adcs	r6, r3
10008c0a:	2000      	movs	r0, #0
10008c0c:	4147      	adcs	r7, r0
10008c0e:	bc06      	pop	{r1, r2}
10008c10:	b288      	uxth	r0, r1
10008c12:	b293      	uxth	r3, r2
10008c14:	4358      	muls	r0, r3
10008c16:	0c0c      	lsrs	r4, r1, #16
10008c18:	4363      	muls	r3, r4
10008c1a:	0c12      	lsrs	r2, r2, #16
10008c1c:	4354      	muls	r4, r2
10008c1e:	b289      	uxth	r1, r1
10008c20:	4351      	muls	r1, r2
10008c22:	185b      	adds	r3, r3, r1
10008c24:	d302      	bcc.n	10008c2c <l16_1>
10008c26:	2101      	movs	r1, #1
10008c28:	0409      	lsls	r1, r1, #16
10008c2a:	1864      	adds	r4, r4, r1

10008c2c <l16_1>:
10008c2c:	0419      	lsls	r1, r3, #16
10008c2e:	0c1a      	lsrs	r2, r3, #16
10008c30:	1809      	adds	r1, r1, r0
10008c32:	4162      	adcs	r2, r4
10008c34:	186d      	adds	r5, r5, r1
10008c36:	4156      	adcs	r6, r2
10008c38:	2000      	movs	r0, #0
10008c3a:	4147      	adcs	r7, r0
10008c3c:	bc18      	pop	{r3, r4}
10008c3e:	02f9      	lsls	r1, r7, #11
10008c40:	0d72      	lsrs	r2, r6, #21
10008c42:	4311      	orrs	r1, r2
10008c44:	02f0      	lsls	r0, r6, #11
10008c46:	0d6a      	lsrs	r2, r5, #21
10008c48:	4310      	orrs	r0, r2
10008c4a:	02ed      	lsls	r5, r5, #11
10008c4c:	0d0a      	lsrs	r2, r1, #20
10008c4e:	d103      	bne.n	10008c58 <l16_1+0x2c>
10008c50:	196d      	adds	r5, r5, r5
10008c52:	4140      	adcs	r0, r0
10008c54:	4149      	adcs	r1, r1
10008c56:	3b01      	subs	r3, #1
10008c58:	4e12      	ldr	r6, [pc, #72]	; (10008ca4 <dm_1+0xa>)
10008c5a:	1b9b      	subs	r3, r3, r6
10008c5c:	0076      	lsls	r6, r6, #1
10008c5e:	42b3      	cmp	r3, r6
10008c60:	d20e      	bcs.n	10008c80 <dm_0>
10008c62:	006d      	lsls	r5, r5, #1
10008c64:	d307      	bcc.n	10008c76 <l16_1+0x4a>
10008c66:	3001      	adds	r0, #1
10008c68:	2600      	movs	r6, #0
10008c6a:	4171      	adcs	r1, r6
10008c6c:	4666      	mov	r6, ip
10008c6e:	4335      	orrs	r5, r6
10008c70:	d101      	bne.n	10008c76 <l16_1+0x4a>
10008c72:	0840      	lsrs	r0, r0, #1
10008c74:	0040      	lsls	r0, r0, #1
10008c76:	051b      	lsls	r3, r3, #20
10008c78:	18c9      	adds	r1, r1, r3

10008c7a <dm_2>:
10008c7a:	07e4      	lsls	r4, r4, #31
10008c7c:	4421      	add	r1, r4
10008c7e:	bdf0      	pop	{r4, r5, r6, r7, pc}

10008c80 <dm_0>:
10008c80:	da0b      	bge.n	10008c9a <dm_1>
10008c82:	3301      	adds	r3, #1
10008c84:	d106      	bne.n	10008c94 <dm_0+0x14>
10008c86:	3001      	adds	r0, #1
10008c88:	d104      	bne.n	10008c94 <dm_0+0x14>
10008c8a:	3101      	adds	r1, #1
10008c8c:	0d4f      	lsrs	r7, r1, #21
10008c8e:	d001      	beq.n	10008c94 <dm_0+0x14>
10008c90:	0849      	lsrs	r1, r1, #1
10008c92:	e7f2      	b.n	10008c7a <dm_2>
10008c94:	07e1      	lsls	r1, r4, #31
10008c96:	2000      	movs	r0, #0
10008c98:	bdf0      	pop	{r4, r5, r6, r7, pc}

10008c9a <dm_1>:
10008c9a:	3601      	adds	r6, #1
10008c9c:	0531      	lsls	r1, r6, #20
10008c9e:	2000      	movs	r0, #0
10008ca0:	e7eb      	b.n	10008c7a <dm_2>
10008ca2:	0000      	.short	0x0000
10008ca4:	000003ff 	.word	0x000003ff

10008ca8 <ddiv_shim>:
10008ca8:	b5f0      	push	{r4, r5, r6, r7, lr}

10008caa <ddiv0>:
10008caa:	0d1c      	lsrs	r4, r3, #20
10008cac:	1e67      	subs	r7, r4, #1
10008cae:	053f      	lsls	r7, r7, #20
10008cb0:	1bdb      	subs	r3, r3, r7
10008cb2:	0ae7      	lsrs	r7, r4, #11
10008cb4:	0564      	lsls	r4, r4, #21
10008cb6:	0d64      	lsrs	r4, r4, #21
10008cb8:	d002      	beq.n	10008cc0 <l19_1>
10008cba:	1c66      	adds	r6, r4, #1
10008cbc:	0af6      	lsrs	r6, r6, #11
10008cbe:	d004      	beq.n	10008cca <l19_2>

10008cc0 <l19_1>:
10008cc0:	2200      	movs	r2, #0
10008cc2:	2301      	movs	r3, #1
10008cc4:	051b      	lsls	r3, r3, #20
10008cc6:	3c80      	subs	r4, #128	; 0x80
10008cc8:	0324      	lsls	r4, r4, #12

10008cca <l19_2>:
10008cca:	25d0      	movs	r5, #208	; 0xd0
10008ccc:	062d      	lsls	r5, r5, #24
10008cce:	2600      	movs	r6, #0
10008cd0:	43f6      	mvns	r6, r6
10008cd2:	662e      	str	r6, [r5, #96]	; 0x60
10008cd4:	091e      	lsrs	r6, r3, #4
10008cd6:	666e      	str	r6, [r5, #100]	; 0x64
10008cd8:	0fce      	lsrs	r6, r1, #31
10008cda:	19f6      	adds	r6, r6, r7
10008cdc:	46b4      	mov	ip, r6
10008cde:	0049      	lsls	r1, r1, #1
10008ce0:	0d4f      	lsrs	r7, r1, #21
10008ce2:	d002      	beq.n	10008cea <l19_2+0x20>
10008ce4:	1c7e      	adds	r6, r7, #1
10008ce6:	0af6      	lsrs	r6, r6, #11
10008ce8:	d003      	beq.n	10008cf2 <l19_2+0x28>
10008cea:	2000      	movs	r0, #0
10008cec:	2100      	movs	r1, #0
10008cee:	3f40      	subs	r7, #64	; 0x40
10008cf0:	033f      	lsls	r7, r7, #12
10008cf2:	1b3e      	subs	r6, r7, r4
10008cf4:	00b6      	lsls	r6, r6, #2
10008cf6:	44b4      	add	ip, r6
10008cf8:	3f01      	subs	r7, #1
10008cfa:	057f      	lsls	r7, r7, #21
10008cfc:	1bc9      	subs	r1, r1, r7
10008cfe:	0849      	lsrs	r1, r1, #1
10008d00:	6f2e      	ldr	r6, [r5, #112]	; 0x70
10008d02:	3601      	adds	r6, #1
10008d04:	0876      	lsrs	r6, r6, #1
10008d06:	029c      	lsls	r4, r3, #10
10008d08:	0d95      	lsrs	r5, r2, #22
10008d0a:	4325      	orrs	r5, r4
10008d0c:	4375      	muls	r5, r6
10008d0e:	13ed      	asrs	r5, r5, #15
10008d10:	4375      	muls	r5, r6
10008d12:	13ad      	asrs	r5, r5, #14
10008d14:	3501      	adds	r5, #1
10008d16:	106d      	asrs	r5, r5, #1
10008d18:	03f6      	lsls	r6, r6, #15
10008d1a:	1b76      	subs	r6, r6, r5
10008d1c:	b40c      	push	{r2, r3}
10008d1e:	02cc      	lsls	r4, r1, #11
10008d20:	0d45      	lsrs	r5, r0, #21
10008d22:	432c      	orrs	r4, r5
10008d24:	b2a2      	uxth	r2, r4
10008d26:	b2b3      	uxth	r3, r6
10008d28:	435a      	muls	r2, r3
10008d2a:	0c27      	lsrs	r7, r4, #16
10008d2c:	437b      	muls	r3, r7
10008d2e:	0c35      	lsrs	r5, r6, #16
10008d30:	436f      	muls	r7, r5
10008d32:	b2a4      	uxth	r4, r4
10008d34:	436c      	muls	r4, r5
10008d36:	191b      	adds	r3, r3, r4
10008d38:	d302      	bcc.n	10008d40 <l20_1>
10008d3a:	2401      	movs	r4, #1
10008d3c:	0424      	lsls	r4, r4, #16
10008d3e:	193f      	adds	r7, r7, r4

10008d40 <l20_1>:
10008d40:	041c      	lsls	r4, r3, #16
10008d42:	0c1d      	lsrs	r5, r3, #16
10008d44:	18a4      	adds	r4, r4, r2
10008d46:	417d      	adcs	r5, r7
10008d48:	1924      	adds	r4, r4, r4
10008d4a:	416d      	adcs	r5, r5
10008d4c:	9a00      	ldr	r2, [sp, #0]
10008d4e:	b291      	uxth	r1, r2
10008d50:	b2ac      	uxth	r4, r5
10008d52:	4361      	muls	r1, r4
10008d54:	0c17      	lsrs	r7, r2, #16
10008d56:	437c      	muls	r4, r7
10008d58:	0c2b      	lsrs	r3, r5, #16
10008d5a:	435f      	muls	r7, r3
10008d5c:	b292      	uxth	r2, r2
10008d5e:	435a      	muls	r2, r3
10008d60:	18a4      	adds	r4, r4, r2
10008d62:	d302      	bcc.n	10008d6a <l21_1>
10008d64:	2201      	movs	r2, #1
10008d66:	0412      	lsls	r2, r2, #16
10008d68:	18bf      	adds	r7, r7, r2

10008d6a <l21_1>:
10008d6a:	0422      	lsls	r2, r4, #16
10008d6c:	0c23      	lsrs	r3, r4, #16
10008d6e:	1852      	adds	r2, r2, r1
10008d70:	417b      	adcs	r3, r7
10008d72:	9c01      	ldr	r4, [sp, #4]
10008d74:	436c      	muls	r4, r5
10008d76:	191b      	adds	r3, r3, r4
10008d78:	0e52      	lsrs	r2, r2, #25
10008d7a:	01d9      	lsls	r1, r3, #7
10008d7c:	430a      	orrs	r2, r1
10008d7e:	0144      	lsls	r4, r0, #5
10008d80:	1aa0      	subs	r0, r4, r2
10008d82:	b281      	uxth	r1, r0
10008d84:	b2b2      	uxth	r2, r6
10008d86:	4351      	muls	r1, r2
10008d88:	1403      	asrs	r3, r0, #16
10008d8a:	435a      	muls	r2, r3
10008d8c:	0c36      	lsrs	r6, r6, #16
10008d8e:	4373      	muls	r3, r6
10008d90:	b287      	uxth	r7, r0
10008d92:	4377      	muls	r7, r6
10008d94:	17d6      	asrs	r6, r2, #31
10008d96:	19d2      	adds	r2, r2, r7
10008d98:	2700      	movs	r7, #0
10008d9a:	417e      	adcs	r6, r7
10008d9c:	0436      	lsls	r6, r6, #16
10008d9e:	199b      	adds	r3, r3, r6
10008da0:	0417      	lsls	r7, r2, #16
10008da2:	0c16      	lsrs	r6, r2, #16
10008da4:	187f      	adds	r7, r7, r1
10008da6:	415e      	adcs	r6, r3
10008da8:	1673      	asrs	r3, r6, #25
10008daa:	18ed      	adds	r5, r5, r3
10008dac:	01f3      	lsls	r3, r6, #7
10008dae:	2600      	movs	r6, #0
10008db0:	3380      	adds	r3, #128	; 0x80
10008db2:	4175      	adcs	r5, r6
10008db4:	0fa9      	lsrs	r1, r5, #30
10008db6:	d106      	bne.n	10008dc6 <dd_0>
10008db8:	0064      	lsls	r4, r4, #1
10008dba:	0a69      	lsrs	r1, r5, #9
10008dbc:	05e8      	lsls	r0, r5, #23
10008dbe:	0a5b      	lsrs	r3, r3, #9
10008dc0:	4318      	orrs	r0, r3
10008dc2:	d209      	bcs.n	10008dd8 <dd_1>
10008dc4:	e02f      	b.n	10008e26 <dd_2>

10008dc6 <dd_0>:
10008dc6:	2204      	movs	r2, #4
10008dc8:	4494      	add	ip, r2
10008dca:	3380      	adds	r3, #128	; 0x80
10008dcc:	4175      	adcs	r5, r6
10008dce:	0aa9      	lsrs	r1, r5, #10
10008dd0:	05a8      	lsls	r0, r5, #22
10008dd2:	0a9b      	lsrs	r3, r3, #10
10008dd4:	4318      	orrs	r0, r3
10008dd6:	d326      	bcc.n	10008e26 <dd_2>

10008dd8 <dd_1>:
10008dd8:	4140      	adcs	r0, r0
10008dda:	4149      	adcs	r1, r1
10008ddc:	0424      	lsls	r4, r4, #16
10008dde:	9a00      	ldr	r2, [sp, #0]
10008de0:	9b01      	ldr	r3, [sp, #4]
10008de2:	000d      	movs	r5, r1
10008de4:	4355      	muls	r5, r2
10008de6:	1b64      	subs	r4, r4, r5
10008de8:	4343      	muls	r3, r0
10008dea:	1ae4      	subs	r4, r4, r3
10008dec:	b295      	uxth	r5, r2
10008dee:	b286      	uxth	r6, r0
10008df0:	4375      	muls	r5, r6
10008df2:	0c17      	lsrs	r7, r2, #16
10008df4:	437e      	muls	r6, r7
10008df6:	0c03      	lsrs	r3, r0, #16
10008df8:	435f      	muls	r7, r3
10008dfa:	b292      	uxth	r2, r2
10008dfc:	435a      	muls	r2, r3
10008dfe:	18b6      	adds	r6, r6, r2
10008e00:	d302      	bcc.n	10008e08 <l23_1>
10008e02:	2201      	movs	r2, #1
10008e04:	0412      	lsls	r2, r2, #16
10008e06:	18bf      	adds	r7, r7, r2

10008e08 <l23_1>:
10008e08:	0432      	lsls	r2, r6, #16
10008e0a:	0c33      	lsrs	r3, r6, #16
10008e0c:	1952      	adds	r2, r2, r5
10008e0e:	417b      	adcs	r3, r7
10008e10:	4252      	negs	r2, r2
10008e12:	419c      	sbcs	r4, r3
10008e14:	2c00      	cmp	r4, #0
10008e16:	d402      	bmi.n	10008e1e <l23_1+0x16>
10008e18:	2200      	movs	r2, #0
10008e1a:	3001      	adds	r0, #1
10008e1c:	4151      	adcs	r1, r2
10008e1e:	0840      	lsrs	r0, r0, #1
10008e20:	07ca      	lsls	r2, r1, #31
10008e22:	4310      	orrs	r0, r2
10008e24:	0849      	lsrs	r1, r1, #1

10008e26 <dd_2>:
10008e26:	b002      	add	sp, #8
10008e28:	4662      	mov	r2, ip
10008e2a:	07d7      	lsls	r7, r2, #31
10008e2c:	1092      	asrs	r2, r2, #2
10008e2e:	4b08      	ldr	r3, [pc, #32]	; (10008e50 <dd_4+0x6>)
10008e30:	18d2      	adds	r2, r2, r3
10008e32:	4b08      	ldr	r3, [pc, #32]	; (10008e54 <dd_4+0xa>)
10008e34:	429a      	cmp	r2, r3
10008e36:	d203      	bcs.n	10008e40 <dd_3>
10008e38:	0512      	lsls	r2, r2, #20
10008e3a:	1889      	adds	r1, r1, r2

10008e3c <dd_5>:
10008e3c:	19c9      	adds	r1, r1, r7
10008e3e:	bdf0      	pop	{r4, r5, r6, r7, pc}

10008e40 <dd_3>:
10008e40:	2000      	movs	r0, #0
10008e42:	2a00      	cmp	r2, #0
10008e44:	dc01      	bgt.n	10008e4a <dd_4>
10008e46:	0039      	movs	r1, r7
10008e48:	bdf0      	pop	{r4, r5, r6, r7, pc}

10008e4a <dd_4>:
10008e4a:	3301      	adds	r3, #1
10008e4c:	0519      	lsls	r1, r3, #20
10008e4e:	e7f5      	b.n	10008e3c <dd_5>
10008e50:	000003fd 	.word	0x000003fd
10008e54:	000007fe 	.word	0x000007fe

10008e58 <double2uint_shim>:
10008e58:	2200      	movs	r2, #0

10008e5a <double2ufix_shim>:
10008e5a:	b500      	push	{lr}
10008e5c:	3220      	adds	r2, #32
10008e5e:	f000 f804 	bl	10008e6a <double2ufix64_shim>
10008e62:	0008      	movs	r0, r1
10008e64:	bd00      	pop	{pc}
	...

10008e68 <double2uint64_shim>:
10008e68:	2200      	movs	r2, #0

10008e6a <double2ufix64_shim>:
10008e6a:	150b      	asrs	r3, r1, #20
10008e6c:	d40a      	bmi.n	10008e84 <ret_dzero>

10008e6e <d2fix>:
10008e6e:	b510      	push	{r4, lr}
10008e70:	4694      	mov	ip, r2
10008e72:	f000 f831 	bl	10008ed8 <dunpacks>
10008e76:	1414      	asrs	r4, r2, #16
10008e78:	3401      	adds	r4, #1
10008e7a:	da00      	bge.n	10008e7e <d2fix+0x10>
10008e7c:	2100      	movs	r1, #0
10008e7e:	17cb      	asrs	r3, r1, #31
10008e80:	4c14      	ldr	r4, [pc, #80]	; (10008ed4 <d2fix_a+0x4a>)
10008e82:	4720      	bx	r4

10008e84 <ret_dzero>:
10008e84:	2000      	movs	r0, #0
10008e86:	2100      	movs	r1, #0
10008e88:	4770      	bx	lr

10008e8a <d2fix_a>:
10008e8a:	4462      	add	r2, ip
10008e8c:	3a34      	subs	r2, #52	; 0x34
10008e8e:	d40c      	bmi.n	10008eaa <d2fix_a+0x20>
10008e90:	2a0c      	cmp	r2, #12
10008e92:	da07      	bge.n	10008ea4 <d2fix_a+0x1a>
10008e94:	0004      	movs	r4, r0
10008e96:	4091      	lsls	r1, r2
10008e98:	4090      	lsls	r0, r2
10008e9a:	4252      	negs	r2, r2
10008e9c:	3220      	adds	r2, #32
10008e9e:	40d4      	lsrs	r4, r2
10008ea0:	4321      	orrs	r1, r4
10008ea2:	bd10      	pop	{r4, pc}
10008ea4:	43d8      	mvns	r0, r3
10008ea6:	43d9      	mvns	r1, r3
10008ea8:	bd10      	pop	{r4, pc}
10008eaa:	3220      	adds	r2, #32
10008eac:	d407      	bmi.n	10008ebe <d2fix_a+0x34>
10008eae:	460c      	mov	r4, r1
10008eb0:	4094      	lsls	r4, r2
10008eb2:	4252      	negs	r2, r2
10008eb4:	3220      	adds	r2, #32
10008eb6:	4111      	asrs	r1, r2
10008eb8:	40d0      	lsrs	r0, r2
10008eba:	4320      	orrs	r0, r4
10008ebc:	bd10      	pop	{r4, pc}
10008ebe:	0008      	movs	r0, r1
10008ec0:	17c9      	asrs	r1, r1, #31
10008ec2:	3220      	adds	r2, #32
10008ec4:	d403      	bmi.n	10008ece <d2fix_a+0x44>
10008ec6:	4252      	negs	r2, r2
10008ec8:	3220      	adds	r2, #32
10008eca:	4110      	asrs	r0, r2
10008ecc:	bd10      	pop	{r4, pc}
10008ece:	0018      	movs	r0, r3
10008ed0:	0019      	movs	r1, r3
10008ed2:	bd10      	pop	{r4, pc}
10008ed4:	10008e8b 	.word	0x10008e8b

10008ed8 <dunpacks>:
10008ed8:	0d0a      	lsrs	r2, r1, #20
10008eda:	0fcc      	lsrs	r4, r1, #31
10008edc:	1e53      	subs	r3, r2, #1
10008ede:	051b      	lsls	r3, r3, #20
10008ee0:	1ac9      	subs	r1, r1, r3
10008ee2:	0552      	lsls	r2, r2, #21
10008ee4:	d303      	bcc.n	10008eee <l59_1>
10008ee6:	43c9      	mvns	r1, r1
10008ee8:	4240      	negs	r0, r0
10008eea:	d300      	bcc.n	10008eee <l59_1>
10008eec:	3101      	adds	r1, #1

10008eee <l59_1>:
10008eee:	0d52      	lsrs	r2, r2, #21
10008ef0:	d003      	beq.n	10008efa <l59_2>
10008ef2:	1c53      	adds	r3, r2, #1
10008ef4:	0adb      	lsrs	r3, r3, #11
10008ef6:	d007      	beq.n	10008f08 <l59_3>
10008ef8:	1b12      	subs	r2, r2, r4

10008efa <l59_2>:
10008efa:	2000      	movs	r0, #0
10008efc:	0064      	lsls	r4, r4, #1
10008efe:	1c61      	adds	r1, r4, #1
10008f00:	0789      	lsls	r1, r1, #30
10008f02:	1289      	asrs	r1, r1, #10
10008f04:	3a80      	subs	r2, #128	; 0x80
10008f06:	0312      	lsls	r2, r2, #12

10008f08 <l59_3>:
10008f08:	4b01      	ldr	r3, [pc, #4]	; (10008f10 <l59_3+0x8>)
10008f0a:	1ad2      	subs	r2, r2, r3
10008f0c:	4770      	bx	lr
10008f0e:	0000      	.short	0x0000
10008f10:	000003ff 	.word	0x000003ff

10008f14 <__wrap___aeabi_lmul>:
10008f14:	4351      	muls	r1, r2
10008f16:	4343      	muls	r3, r0
10008f18:	18c9      	adds	r1, r1, r3
10008f1a:	468c      	mov	ip, r1
10008f1c:	0c11      	lsrs	r1, r2, #16
10008f1e:	b283      	uxth	r3, r0
10008f20:	434b      	muls	r3, r1
10008f22:	b410      	push	{r4}
10008f24:	0c04      	lsrs	r4, r0, #16
10008f26:	4361      	muls	r1, r4
10008f28:	b292      	uxth	r2, r2
10008f2a:	b280      	uxth	r0, r0
10008f2c:	4350      	muls	r0, r2
10008f2e:	4362      	muls	r2, r4
10008f30:	041c      	lsls	r4, r3, #16
10008f32:	0c1b      	lsrs	r3, r3, #16
10008f34:	1900      	adds	r0, r0, r4
10008f36:	bc10      	pop	{r4}
10008f38:	4159      	adcs	r1, r3
10008f3a:	0413      	lsls	r3, r2, #16
10008f3c:	0c12      	lsrs	r2, r2, #16
10008f3e:	18c0      	adds	r0, r0, r3
10008f40:	4151      	adcs	r1, r2
10008f42:	4461      	add	r1, ip
10008f44:	4770      	bx	lr
	...

10008f48 <__wrap___aeabi_frsub>:
10008f48:	4048      	eors	r0, r1
10008f4a:	4041      	eors	r1, r0
10008f4c:	4048      	eors	r0, r1

10008f4e <__wrap___aeabi_fsub>:
10008f4e:	4b0e      	ldr	r3, [pc, #56]	; (10008f88 <__wrap___aeabi_fmul+0x6>)
10008f50:	685b      	ldr	r3, [r3, #4]
10008f52:	4718      	bx	r3

10008f54 <__wrap___aeabi_fadd>:
10008f54:	4b0c      	ldr	r3, [pc, #48]	; (10008f88 <__wrap___aeabi_fmul+0x6>)
10008f56:	681b      	ldr	r3, [r3, #0]
10008f58:	4718      	bx	r3

10008f5a <__wrap___aeabi_fdiv>:
10008f5a:	4a0c      	ldr	r2, [pc, #48]	; (10008f8c <__wrap___aeabi_fmul+0xa>)
10008f5c:	6f93      	ldr	r3, [r2, #120]	; 0x78
10008f5e:	089b      	lsrs	r3, r3, #2
10008f60:	d202      	bcs.n	10008f68 <fdiv_save_state>

10008f62 <fdiv_shim_call>:
10008f62:	4b09      	ldr	r3, [pc, #36]	; (10008f88 <__wrap___aeabi_fmul+0x6>)
10008f64:	68db      	ldr	r3, [r3, #12]
10008f66:	4718      	bx	r3

10008f68 <fdiv_save_state>:
10008f68:	b5f0      	push	{r4, r5, r6, r7, lr}
10008f6a:	6e14      	ldr	r4, [r2, #96]	; 0x60
10008f6c:	6e55      	ldr	r5, [r2, #100]	; 0x64
10008f6e:	6f57      	ldr	r7, [r2, #116]	; 0x74
10008f70:	6f16      	ldr	r6, [r2, #112]	; 0x70
10008f72:	f7ff fff6 	bl	10008f62 <fdiv_shim_call>
10008f76:	4a05      	ldr	r2, [pc, #20]	; (10008f8c <__wrap___aeabi_fmul+0xa>)
10008f78:	6614      	str	r4, [r2, #96]	; 0x60
10008f7a:	6655      	str	r5, [r2, #100]	; 0x64
10008f7c:	6757      	str	r7, [r2, #116]	; 0x74
10008f7e:	6716      	str	r6, [r2, #112]	; 0x70
10008f80:	bdf0      	pop	{r4, r5, r6, r7, pc}

10008f82 <__wrap___aeabi_fmul>:
10008f82:	4b01      	ldr	r3, [pc, #4]	; (10008f88 <__wrap___aeabi_fmul+0x6>)
10008f84:	689b      	ldr	r3, [r3, #8]
10008f86:	4718      	bx	r3
10008f88:	20000720 	.word	0x20000720
10008f8c:	d0000000 	.word	0xd0000000

10008f90 <__wrap___aeabi_i2f>:
10008f90:	0fc1      	lsrs	r1, r0, #31
10008f92:	07c9      	lsls	r1, r1, #31
10008f94:	d500      	bpl.n	10008f98 <__wrap___aeabi_i2f+0x8>
10008f96:	4240      	negs	r0, r0
10008f98:	2800      	cmp	r0, #0
10008f9a:	d017      	beq.n	10008fcc <__aeabi_i2f_main+0x30>

10008f9c <__aeabi_i2f_main>:
10008f9c:	46f4      	mov	ip, lr
10008f9e:	b403      	push	{r0, r1}
10008fa0:	4b0b      	ldr	r3, [pc, #44]	; (10008fd0 <__aeabi_i2f_main+0x34>)
10008fa2:	681b      	ldr	r3, [r3, #0]
10008fa4:	4798      	blx	r3
10008fa6:	bc06      	pop	{r1, r2}
10008fa8:	4081      	lsls	r1, r0
10008faa:	389e      	subs	r0, #158	; 0x9e
10008fac:	4240      	negs	r0, r0
10008fae:	3180      	adds	r1, #128	; 0x80
10008fb0:	d207      	bcs.n	10008fc2 <__aeabi_i2f_main+0x26>
10008fb2:	060b      	lsls	r3, r1, #24
10008fb4:	d007      	beq.n	10008fc6 <__aeabi_i2f_main+0x2a>
10008fb6:	0049      	lsls	r1, r1, #1
10008fb8:	0a49      	lsrs	r1, r1, #9
10008fba:	05c0      	lsls	r0, r0, #23
10008fbc:	4310      	orrs	r0, r2
10008fbe:	4308      	orrs	r0, r1
10008fc0:	4760      	bx	ip
10008fc2:	3001      	adds	r0, #1
10008fc4:	e7f8      	b.n	10008fb8 <__aeabi_i2f_main+0x1c>
10008fc6:	0a49      	lsrs	r1, r1, #9
10008fc8:	0289      	lsls	r1, r1, #10
10008fca:	e7f5      	b.n	10008fb8 <__aeabi_i2f_main+0x1c>
10008fcc:	4770      	bx	lr
10008fce:	0000      	.short	0x0000
10008fd0:	20027114 	.word	0x20027114

10008fd4 <__wrap___aeabi_f2uiz>:
10008fd4:	4b01      	ldr	r3, [pc, #4]	; (10008fdc <__wrap___aeabi_f2uiz+0x8>)
10008fd6:	6a5b      	ldr	r3, [r3, #36]	; 0x24
10008fd8:	4718      	bx	r3
10008fda:	0000      	.short	0x0000
10008fdc:	20000720 	.word	0x20000720

10008fe0 <__aeabi_float_init>:
10008fe0:	2313      	movs	r3, #19
10008fe2:	b510      	push	{r4, lr}
10008fe4:	4812      	ldr	r0, [pc, #72]	; (10009030 <__aeabi_float_init+0x50>)
10008fe6:	781c      	ldrb	r4, [r3, #0]
10008fe8:	f7ff f91c 	bl	10008224 <rom_data_lookup>
10008fec:	0001      	movs	r1, r0
10008fee:	2c01      	cmp	r4, #1
10008ff0:	d00a      	beq.n	10009008 <__aeabi_float_init+0x28>
10008ff2:	dd03      	ble.n	10008ffc <__aeabi_float_init+0x1c>
10008ff4:	2280      	movs	r2, #128	; 0x80
10008ff6:	480f      	ldr	r0, [pc, #60]	; (10009034 <__aeabi_float_init+0x54>)
10008ff8:	f000 f848 	bl	1000908c <__wrap___aeabi_memcpy>
10008ffc:	480e      	ldr	r0, [pc, #56]	; (10009038 <__aeabi_float_init+0x58>)
10008ffe:	f7ff f909 	bl	10008214 <rom_func_lookup>
10009002:	4b0e      	ldr	r3, [pc, #56]	; (1000903c <__aeabi_float_init+0x5c>)
10009004:	6018      	str	r0, [r3, #0]
10009006:	bd10      	pop	{r4, pc}
10009008:	4c0a      	ldr	r4, [pc, #40]	; (10009034 <__aeabi_float_init+0x54>)
1000900a:	2254      	movs	r2, #84	; 0x54
1000900c:	0020      	movs	r0, r4
1000900e:	f000 f83d 	bl	1000908c <__wrap___aeabi_memcpy>
10009012:	4b0b      	ldr	r3, [pc, #44]	; (10009040 <__aeabi_float_init+0x60>)
10009014:	6563      	str	r3, [r4, #84]	; 0x54
10009016:	65a3      	str	r3, [r4, #88]	; 0x58
10009018:	65e3      	str	r3, [r4, #92]	; 0x5c
1000901a:	6623      	str	r3, [r4, #96]	; 0x60
1000901c:	6663      	str	r3, [r4, #100]	; 0x64
1000901e:	66a3      	str	r3, [r4, #104]	; 0x68
10009020:	66e3      	str	r3, [r4, #108]	; 0x6c
10009022:	6723      	str	r3, [r4, #112]	; 0x70
10009024:	6763      	str	r3, [r4, #116]	; 0x74
10009026:	67a3      	str	r3, [r4, #120]	; 0x78
10009028:	67e3      	str	r3, [r4, #124]	; 0x7c
1000902a:	6223      	str	r3, [r4, #32]
1000902c:	61e3      	str	r3, [r4, #28]
1000902e:	e7e5      	b.n	10008ffc <__aeabi_float_init+0x1c>
10009030:	00004653 	.word	0x00004653
10009034:	20000720 	.word	0x20000720
10009038:	0000334c 	.word	0x0000334c
1000903c:	20027114 	.word	0x20027114
10009040:	10009045 	.word	0x10009045

10009044 <float_table_shim_on_use_helper>:
10009044:	b507      	push	{r0, r1, r2, lr}
10009046:	4660      	mov	r0, ip
10009048:	8801      	ldrh	r1, [r0, #0]
1000904a:	0a0a      	lsrs	r2, r1, #8
1000904c:	3002      	adds	r0, #2
1000904e:	2adf      	cmp	r2, #223	; 0xdf
10009050:	d1fa      	bne.n	10009048 <float_table_shim_on_use_helper+0x4>
10009052:	b2c9      	uxtb	r1, r1
10009054:	0882      	lsrs	r2, r0, #2
10009056:	d304      	bcc.n	10009062 <float_table_shim_on_use_helper+0x1e>
10009058:	8802      	ldrh	r2, [r0, #0]
1000905a:	8840      	ldrh	r0, [r0, #2]
1000905c:	0400      	lsls	r0, r0, #16
1000905e:	4310      	orrs	r0, r2
10009060:	e000      	b.n	10009064 <float_table_shim_on_use_helper+0x20>
10009062:	6800      	ldr	r0, [r0, #0]
10009064:	4a01      	ldr	r2, [pc, #4]	; (1000906c <float_table_shim_on_use_helper+0x28>)
10009066:	5050      	str	r0, [r2, r1]
10009068:	9003      	str	r0, [sp, #12]
1000906a:	bd07      	pop	{r0, r1, r2, pc}
1000906c:	20000720 	.word	0x20000720

10009070 <__aeabi_mem_init>:
10009070:	4801      	ldr	r0, [pc, #4]	; (10009078 <__aeabi_mem_init+0x8>)
10009072:	2104      	movs	r1, #4
10009074:	4b01      	ldr	r3, [pc, #4]	; (1000907c <__aeabi_mem_init+0xc>)
10009076:	4718      	bx	r3
10009078:	20000490 	.word	0x20000490
1000907c:	10008235 	.word	0x10008235

10009080 <__wrap_memset>:
10009080:	4b01      	ldr	r3, [pc, #4]	; (10009088 <__wrap_memset+0x8>)
10009082:	681b      	ldr	r3, [r3, #0]
10009084:	4718      	bx	r3
10009086:	0000      	.short	0x0000
10009088:	20000490 	.word	0x20000490

1000908c <__wrap___aeabi_memcpy>:
1000908c:	4b01      	ldr	r3, [pc, #4]	; (10009094 <__wrap___aeabi_memcpy+0x8>)
1000908e:	685b      	ldr	r3, [r3, #4]
10009090:	4718      	bx	r3
10009092:	0000      	.short	0x0000
10009094:	20000490 	.word	0x20000490

10009098 <stdio_out_chars_no_crlf>:
10009098:	0003      	movs	r3, r0
1000909a:	b510      	push	{r4, lr}
1000909c:	0008      	movs	r0, r1
1000909e:	0011      	movs	r1, r2
100090a0:	681b      	ldr	r3, [r3, #0]
100090a2:	4798      	blx	r3
100090a4:	bd10      	pop	{r4, pc}
100090a6:	46c0      	nop			; (mov r8, r8)

100090a8 <stdio_out_chars_crlf>:
100090a8:	b5f0      	push	{r4, r5, r6, r7, lr}
100090aa:	4646      	mov	r6, r8
100090ac:	464f      	mov	r7, r9
100090ae:	46d6      	mov	lr, sl
100090b0:	b5c0      	push	{r6, r7, lr}
100090b2:	7c43      	ldrb	r3, [r0, #17]
100090b4:	4680      	mov	r8, r0
100090b6:	000e      	movs	r6, r1
100090b8:	0017      	movs	r7, r2
100090ba:	2b00      	cmp	r3, #0
100090bc:	d046      	beq.n	1000914c <stdio_out_chars_crlf+0xa4>
100090be:	2a00      	cmp	r2, #0
100090c0:	dd3f      	ble.n	10009142 <stdio_out_chars_crlf+0x9a>
100090c2:	1e4b      	subs	r3, r1, #1
100090c4:	4699      	mov	r9, r3
100090c6:	4b24      	ldr	r3, [pc, #144]	; (10009158 <stdio_out_chars_crlf+0xb0>)
100090c8:	2501      	movs	r5, #1
100090ca:	2400      	movs	r4, #0
100090cc:	2000      	movs	r0, #0
100090ce:	469a      	mov	sl, r3
100090d0:	e00d      	b.n	100090ee <stdio_out_chars_crlf+0x46>
100090d2:	464b      	mov	r3, r9
100090d4:	5d1b      	ldrb	r3, [r3, r4]
100090d6:	3b0d      	subs	r3, #13
100090d8:	425a      	negs	r2, r3
100090da:	4153      	adcs	r3, r2
100090dc:	5d32      	ldrb	r2, [r6, r4]
100090de:	b2db      	uxtb	r3, r3
100090e0:	2a0a      	cmp	r2, #10
100090e2:	d00b      	beq.n	100090fc <stdio_out_chars_crlf+0x54>
100090e4:	002b      	movs	r3, r5
100090e6:	3401      	adds	r4, #1
100090e8:	3501      	adds	r5, #1
100090ea:	429f      	cmp	r7, r3
100090ec:	dd1a      	ble.n	10009124 <stdio_out_chars_crlf+0x7c>
100090ee:	2c00      	cmp	r4, #0
100090f0:	d1ef      	bne.n	100090d2 <stdio_out_chars_crlf+0x2a>
100090f2:	4643      	mov	r3, r8
100090f4:	5d32      	ldrb	r2, [r6, r4]
100090f6:	7c1b      	ldrb	r3, [r3, #16]
100090f8:	2a0a      	cmp	r2, #10
100090fa:	d1f3      	bne.n	100090e4 <stdio_out_chars_crlf+0x3c>
100090fc:	2b00      	cmp	r3, #0
100090fe:	d1f1      	bne.n	100090e4 <stdio_out_chars_crlf+0x3c>
10009100:	42a0      	cmp	r0, r4
10009102:	da04      	bge.n	1000910e <stdio_out_chars_crlf+0x66>
10009104:	4643      	mov	r3, r8
10009106:	1a21      	subs	r1, r4, r0
10009108:	681b      	ldr	r3, [r3, #0]
1000910a:	1830      	adds	r0, r6, r0
1000910c:	4798      	blx	r3
1000910e:	4643      	mov	r3, r8
10009110:	4650      	mov	r0, sl
10009112:	681b      	ldr	r3, [r3, #0]
10009114:	2102      	movs	r1, #2
10009116:	4798      	blx	r3
10009118:	3401      	adds	r4, #1
1000911a:	0028      	movs	r0, r5
1000911c:	002b      	movs	r3, r5
1000911e:	3501      	adds	r5, #1
10009120:	429f      	cmp	r7, r3
10009122:	dce4      	bgt.n	100090ee <stdio_out_chars_crlf+0x46>
10009124:	4287      	cmp	r7, r0
10009126:	dd04      	ble.n	10009132 <stdio_out_chars_crlf+0x8a>
10009128:	4643      	mov	r3, r8
1000912a:	1a39      	subs	r1, r7, r0
1000912c:	681b      	ldr	r3, [r3, #0]
1000912e:	1830      	adds	r0, r6, r0
10009130:	4798      	blx	r3
10009132:	19f6      	adds	r6, r6, r7
10009134:	3e01      	subs	r6, #1
10009136:	7833      	ldrb	r3, [r6, #0]
10009138:	3b0d      	subs	r3, #13
1000913a:	425a      	negs	r2, r3
1000913c:	4153      	adcs	r3, r2
1000913e:	4642      	mov	r2, r8
10009140:	7413      	strb	r3, [r2, #16]
10009142:	bce0      	pop	{r5, r6, r7}
10009144:	46ba      	mov	sl, r7
10009146:	46b1      	mov	r9, r6
10009148:	46a8      	mov	r8, r5
1000914a:	bdf0      	pop	{r4, r5, r6, r7, pc}
1000914c:	6803      	ldr	r3, [r0, #0]
1000914e:	0011      	movs	r1, r2
10009150:	0030      	movs	r0, r6
10009152:	4798      	blx	r3
10009154:	e7f5      	b.n	10009142 <stdio_out_chars_crlf+0x9a>
10009156:	46c0      	nop			; (mov r8, r8)
10009158:	1000d518 	.word	0x1000d518

1000915c <stdio_buffered_printer>:
1000915c:	b5f0      	push	{r4, r5, r6, r7, lr}
1000915e:	46c6      	mov	lr, r8
10009160:	000c      	movs	r4, r1
10009162:	6809      	ldr	r1, [r1, #0]
10009164:	0006      	movs	r6, r0
10009166:	b500      	push	{lr}
10009168:	2980      	cmp	r1, #128	; 0x80
1000916a:	d006      	beq.n	1000917a <stdio_buffered_printer+0x1e>
1000916c:	1c4b      	adds	r3, r1, #1
1000916e:	6023      	str	r3, [r4, #0]
10009170:	1864      	adds	r4, r4, r1
10009172:	7126      	strb	r6, [r4, #4]
10009174:	bc80      	pop	{r7}
10009176:	46b8      	mov	r8, r7
10009178:	bdf0      	pop	{r4, r5, r6, r7, pc}
1000917a:	4b0f      	ldr	r3, [pc, #60]	; (100091b8 <stdio_buffered_printer+0x5c>)
1000917c:	681d      	ldr	r5, [r3, #0]
1000917e:	2d00      	cmp	r5, #0
10009180:	d016      	beq.n	100091b0 <stdio_buffered_printer+0x54>
10009182:	1d23      	adds	r3, r4, #4
10009184:	4698      	mov	r8, r3
10009186:	4f0d      	ldr	r7, [pc, #52]	; (100091bc <stdio_buffered_printer+0x60>)
10009188:	e002      	b.n	10009190 <stdio_buffered_printer+0x34>
1000918a:	68ed      	ldr	r5, [r5, #12]
1000918c:	2d00      	cmp	r5, #0
1000918e:	d00f      	beq.n	100091b0 <stdio_buffered_printer+0x54>
10009190:	682b      	ldr	r3, [r5, #0]
10009192:	2b00      	cmp	r3, #0
10009194:	d0f9      	beq.n	1000918a <stdio_buffered_printer+0x2e>
10009196:	683b      	ldr	r3, [r7, #0]
10009198:	2b00      	cmp	r3, #0
1000919a:	d001      	beq.n	100091a0 <stdio_buffered_printer+0x44>
1000919c:	42ab      	cmp	r3, r5
1000919e:	d1f4      	bne.n	1000918a <stdio_buffered_printer+0x2e>
100091a0:	0028      	movs	r0, r5
100091a2:	4641      	mov	r1, r8
100091a4:	6822      	ldr	r2, [r4, #0]
100091a6:	f7ff ff7f 	bl	100090a8 <stdio_out_chars_crlf>
100091aa:	68ed      	ldr	r5, [r5, #12]
100091ac:	2d00      	cmp	r5, #0
100091ae:	d1ef      	bne.n	10009190 <stdio_buffered_printer+0x34>
100091b0:	2301      	movs	r3, #1
100091b2:	2100      	movs	r1, #0
100091b4:	e7db      	b.n	1000916e <stdio_buffered_printer+0x12>
100091b6:	46c0      	nop			; (mov r8, r8)
100091b8:	20001110 	.word	0x20001110
100091bc:	20001228 	.word	0x20001228

100091c0 <stdio_put_string.isra.0>:
100091c0:	b5f0      	push	{r4, r5, r6, r7, lr}
100091c2:	4657      	mov	r7, sl
100091c4:	464e      	mov	r6, r9
100091c6:	4645      	mov	r5, r8
100091c8:	46de      	mov	lr, fp
100091ca:	001c      	movs	r4, r3
100091cc:	23d0      	movs	r3, #208	; 0xd0
100091ce:	b5e0      	push	{r5, r6, r7, lr}
100091d0:	061b      	lsls	r3, r3, #24
100091d2:	681f      	ldr	r7, [r3, #0]
100091d4:	4b34      	ldr	r3, [pc, #208]	; (100092a8 <stdio_put_string.isra.0+0xe8>)
100091d6:	b083      	sub	sp, #12
100091d8:	0006      	movs	r6, r0
100091da:	000d      	movs	r5, r1
100091dc:	0018      	movs	r0, r3
100091de:	a901      	add	r1, sp, #4
100091e0:	4691      	mov	r9, r2
100091e2:	469a      	mov	sl, r3
100091e4:	f003 f898 	bl	1000c318 <__mutex_try_enter_veneer>
100091e8:	4680      	mov	r8, r0
100091ea:	2800      	cmp	r0, #0
100091ec:	d108      	bne.n	10009200 <stdio_put_string.isra.0+0x40>
100091ee:	9b01      	ldr	r3, [sp, #4]
100091f0:	b27f      	sxtb	r7, r7
100091f2:	429f      	cmp	r7, r3
100091f4:	d004      	beq.n	10009200 <stdio_put_string.isra.0+0x40>
100091f6:	4650      	mov	r0, sl
100091f8:	f003 f8a6 	bl	1000c348 <__mutex_enter_blocking_veneer>
100091fc:	2301      	movs	r3, #1
100091fe:	4698      	mov	r8, r3
10009200:	1c6b      	adds	r3, r5, #1
10009202:	d103      	bne.n	1000920c <stdio_put_string.isra.0+0x4c>
10009204:	0030      	movs	r0, r6
10009206:	f003 f835 	bl	1000c274 <strlen>
1000920a:	0005      	movs	r5, r0
1000920c:	2c00      	cmp	r4, #0
1000920e:	d127      	bne.n	10009260 <stdio_put_string.isra.0+0xa0>
10009210:	4f26      	ldr	r7, [pc, #152]	; (100092ac <stdio_put_string.isra.0+0xec>)
10009212:	4b27      	ldr	r3, [pc, #156]	; (100092b0 <stdio_put_string.isra.0+0xf0>)
10009214:	681c      	ldr	r4, [r3, #0]
10009216:	2c00      	cmp	r4, #0
10009218:	d018      	beq.n	1000924c <stdio_put_string.isra.0+0x8c>
1000921a:	464b      	mov	r3, r9
1000921c:	2b00      	cmp	r3, #0
1000921e:	d121      	bne.n	10009264 <stdio_put_string.isra.0+0xa4>
10009220:	4b24      	ldr	r3, [pc, #144]	; (100092b4 <stdio_put_string.isra.0+0xf4>)
10009222:	4699      	mov	r9, r3
10009224:	e002      	b.n	1000922c <stdio_put_string.isra.0+0x6c>
10009226:	68e4      	ldr	r4, [r4, #12]
10009228:	2c00      	cmp	r4, #0
1000922a:	d00f      	beq.n	1000924c <stdio_put_string.isra.0+0x8c>
1000922c:	6823      	ldr	r3, [r4, #0]
1000922e:	2b00      	cmp	r3, #0
10009230:	d0f9      	beq.n	10009226 <stdio_put_string.isra.0+0x66>
10009232:	464b      	mov	r3, r9
10009234:	681b      	ldr	r3, [r3, #0]
10009236:	2b00      	cmp	r3, #0
10009238:	d001      	beq.n	1000923e <stdio_put_string.isra.0+0x7e>
1000923a:	42a3      	cmp	r3, r4
1000923c:	d1f3      	bne.n	10009226 <stdio_put_string.isra.0+0x66>
1000923e:	0020      	movs	r0, r4
10009240:	002a      	movs	r2, r5
10009242:	0031      	movs	r1, r6
10009244:	47b8      	blx	r7
10009246:	68e4      	ldr	r4, [r4, #12]
10009248:	2c00      	cmp	r4, #0
1000924a:	d1ef      	bne.n	1000922c <stdio_put_string.isra.0+0x6c>
1000924c:	4643      	mov	r3, r8
1000924e:	2b00      	cmp	r3, #0
10009250:	d125      	bne.n	1000929e <stdio_put_string.isra.0+0xde>
10009252:	b003      	add	sp, #12
10009254:	bcf0      	pop	{r4, r5, r6, r7}
10009256:	46bb      	mov	fp, r7
10009258:	46b2      	mov	sl, r6
1000925a:	46a9      	mov	r9, r5
1000925c:	46a0      	mov	r8, r4
1000925e:	bdf0      	pop	{r4, r5, r6, r7, pc}
10009260:	4f15      	ldr	r7, [pc, #84]	; (100092b8 <stdio_put_string.isra.0+0xf8>)
10009262:	e7d6      	b.n	10009212 <stdio_put_string.isra.0+0x52>
10009264:	4b13      	ldr	r3, [pc, #76]	; (100092b4 <stdio_put_string.isra.0+0xf4>)
10009266:	4699      	mov	r9, r3
10009268:	230a      	movs	r3, #10
1000926a:	469b      	mov	fp, r3
1000926c:	e002      	b.n	10009274 <stdio_put_string.isra.0+0xb4>
1000926e:	68e4      	ldr	r4, [r4, #12]
10009270:	2c00      	cmp	r4, #0
10009272:	d0eb      	beq.n	1000924c <stdio_put_string.isra.0+0x8c>
10009274:	6823      	ldr	r3, [r4, #0]
10009276:	2b00      	cmp	r3, #0
10009278:	d0f9      	beq.n	1000926e <stdio_put_string.isra.0+0xae>
1000927a:	464b      	mov	r3, r9
1000927c:	681b      	ldr	r3, [r3, #0]
1000927e:	2b00      	cmp	r3, #0
10009280:	d001      	beq.n	10009286 <stdio_put_string.isra.0+0xc6>
10009282:	42a3      	cmp	r3, r4
10009284:	d1f3      	bne.n	1000926e <stdio_put_string.isra.0+0xae>
10009286:	002a      	movs	r2, r5
10009288:	0031      	movs	r1, r6
1000928a:	0020      	movs	r0, r4
1000928c:	47b8      	blx	r7
1000928e:	465a      	mov	r2, fp
10009290:	466b      	mov	r3, sp
10009292:	0020      	movs	r0, r4
10009294:	711a      	strb	r2, [r3, #4]
10009296:	a901      	add	r1, sp, #4
10009298:	2201      	movs	r2, #1
1000929a:	47b8      	blx	r7
1000929c:	e7e7      	b.n	1000926e <stdio_put_string.isra.0+0xae>
1000929e:	4650      	mov	r0, sl
100092a0:	f003 f822 	bl	1000c2e8 <__mutex_exit_veneer>
100092a4:	e7d5      	b.n	10009252 <stdio_put_string.isra.0+0x92>
100092a6:	46c0      	nop			; (mov r8, r8)
100092a8:	200004f0 	.word	0x200004f0
100092ac:	100090a9 	.word	0x100090a9
100092b0:	20001110 	.word	0x20001110
100092b4:	20001228 	.word	0x20001228
100092b8:	10009099 	.word	0x10009099

100092bc <__wrap_putchar>:
100092bc:	b5f0      	push	{r4, r5, r6, r7, lr}
100092be:	46ce      	mov	lr, r9
100092c0:	4647      	mov	r7, r8
100092c2:	b580      	push	{r7, lr}
100092c4:	b083      	sub	sp, #12
100092c6:	466b      	mov	r3, sp
100092c8:	1cde      	adds	r6, r3, #3
100092ca:	23d0      	movs	r3, #208	; 0xd0
100092cc:	7030      	strb	r0, [r6, #0]
100092ce:	061b      	lsls	r3, r3, #24
100092d0:	681c      	ldr	r4, [r3, #0]
100092d2:	4b1f      	ldr	r3, [pc, #124]	; (10009350 <__wrap_putchar+0x94>)
100092d4:	4680      	mov	r8, r0
100092d6:	a901      	add	r1, sp, #4
100092d8:	0018      	movs	r0, r3
100092da:	4699      	mov	r9, r3
100092dc:	f003 f81c 	bl	1000c318 <__mutex_try_enter_veneer>
100092e0:	1e07      	subs	r7, r0, #0
100092e2:	d020      	beq.n	10009326 <__wrap_putchar+0x6a>
100092e4:	4b1b      	ldr	r3, [pc, #108]	; (10009354 <__wrap_putchar+0x98>)
100092e6:	681c      	ldr	r4, [r3, #0]
100092e8:	2c00      	cmp	r4, #0
100092ea:	d028      	beq.n	1000933e <__wrap_putchar+0x82>
100092ec:	4d1a      	ldr	r5, [pc, #104]	; (10009358 <__wrap_putchar+0x9c>)
100092ee:	e002      	b.n	100092f6 <__wrap_putchar+0x3a>
100092f0:	68e4      	ldr	r4, [r4, #12]
100092f2:	2c00      	cmp	r4, #0
100092f4:	d00f      	beq.n	10009316 <__wrap_putchar+0x5a>
100092f6:	6823      	ldr	r3, [r4, #0]
100092f8:	2b00      	cmp	r3, #0
100092fa:	d0f9      	beq.n	100092f0 <__wrap_putchar+0x34>
100092fc:	682b      	ldr	r3, [r5, #0]
100092fe:	2b00      	cmp	r3, #0
10009300:	d001      	beq.n	10009306 <__wrap_putchar+0x4a>
10009302:	42a3      	cmp	r3, r4
10009304:	d1f4      	bne.n	100092f0 <__wrap_putchar+0x34>
10009306:	0020      	movs	r0, r4
10009308:	2201      	movs	r2, #1
1000930a:	0031      	movs	r1, r6
1000930c:	f7ff fecc 	bl	100090a8 <stdio_out_chars_crlf>
10009310:	68e4      	ldr	r4, [r4, #12]
10009312:	2c00      	cmp	r4, #0
10009314:	d1ef      	bne.n	100092f6 <__wrap_putchar+0x3a>
10009316:	2f00      	cmp	r7, #0
10009318:	d111      	bne.n	1000933e <__wrap_putchar+0x82>
1000931a:	4640      	mov	r0, r8
1000931c:	b003      	add	sp, #12
1000931e:	bcc0      	pop	{r6, r7}
10009320:	46b9      	mov	r9, r7
10009322:	46b0      	mov	r8, r6
10009324:	bdf0      	pop	{r4, r5, r6, r7, pc}
10009326:	9b01      	ldr	r3, [sp, #4]
10009328:	b264      	sxtb	r4, r4
1000932a:	429c      	cmp	r4, r3
1000932c:	d00b      	beq.n	10009346 <__wrap_putchar+0x8a>
1000932e:	4648      	mov	r0, r9
10009330:	f003 f80a 	bl	1000c348 <__mutex_enter_blocking_veneer>
10009334:	4b07      	ldr	r3, [pc, #28]	; (10009354 <__wrap_putchar+0x98>)
10009336:	2701      	movs	r7, #1
10009338:	681c      	ldr	r4, [r3, #0]
1000933a:	2c00      	cmp	r4, #0
1000933c:	d1d6      	bne.n	100092ec <__wrap_putchar+0x30>
1000933e:	4648      	mov	r0, r9
10009340:	f002 ffd2 	bl	1000c2e8 <__mutex_exit_veneer>
10009344:	e7e9      	b.n	1000931a <__wrap_putchar+0x5e>
10009346:	4b03      	ldr	r3, [pc, #12]	; (10009354 <__wrap_putchar+0x98>)
10009348:	681c      	ldr	r4, [r3, #0]
1000934a:	2c00      	cmp	r4, #0
1000934c:	d1ce      	bne.n	100092ec <__wrap_putchar+0x30>
1000934e:	e7e4      	b.n	1000931a <__wrap_putchar+0x5e>
10009350:	200004f0 	.word	0x200004f0
10009354:	20001110 	.word	0x20001110
10009358:	20001228 	.word	0x20001228

1000935c <__wrap_puts>:
1000935c:	b570      	push	{r4, r5, r6, lr}
1000935e:	0004      	movs	r4, r0
10009360:	f002 ff88 	bl	1000c274 <strlen>
10009364:	2300      	movs	r3, #0
10009366:	0001      	movs	r1, r0
10009368:	0005      	movs	r5, r0
1000936a:	2201      	movs	r2, #1
1000936c:	0020      	movs	r0, r4
1000936e:	f7ff ff27 	bl	100091c0 <stdio_put_string.isra.0>
10009372:	4b08      	ldr	r3, [pc, #32]	; (10009394 <__wrap_puts+0x38>)
10009374:	681c      	ldr	r4, [r3, #0]
10009376:	2c00      	cmp	r4, #0
10009378:	d006      	beq.n	10009388 <__wrap_puts+0x2c>
1000937a:	6863      	ldr	r3, [r4, #4]
1000937c:	2b00      	cmp	r3, #0
1000937e:	d005      	beq.n	1000938c <__wrap_puts+0x30>
10009380:	4798      	blx	r3
10009382:	68e4      	ldr	r4, [r4, #12]
10009384:	2c00      	cmp	r4, #0
10009386:	d1f8      	bne.n	1000937a <__wrap_puts+0x1e>
10009388:	0028      	movs	r0, r5
1000938a:	bd70      	pop	{r4, r5, r6, pc}
1000938c:	68e4      	ldr	r4, [r4, #12]
1000938e:	2c00      	cmp	r4, #0
10009390:	d1f3      	bne.n	1000937a <__wrap_puts+0x1e>
10009392:	e7f9      	b.n	10009388 <__wrap_puts+0x2c>
10009394:	20001110 	.word	0x20001110

10009398 <stdio_set_driver_enabled>:
10009398:	4a0a      	ldr	r2, [pc, #40]	; (100093c4 <stdio_set_driver_enabled+0x2c>)
1000939a:	6813      	ldr	r3, [r2, #0]
1000939c:	2b00      	cmp	r3, #0
1000939e:	d105      	bne.n	100093ac <stdio_set_driver_enabled+0x14>
100093a0:	e00c      	b.n	100093bc <stdio_set_driver_enabled+0x24>
100093a2:	001a      	movs	r2, r3
100093a4:	68db      	ldr	r3, [r3, #12]
100093a6:	320c      	adds	r2, #12
100093a8:	2b00      	cmp	r3, #0
100093aa:	d007      	beq.n	100093bc <stdio_set_driver_enabled+0x24>
100093ac:	4298      	cmp	r0, r3
100093ae:	d1f8      	bne.n	100093a2 <stdio_set_driver_enabled+0xa>
100093b0:	2900      	cmp	r1, #0
100093b2:	d102      	bne.n	100093ba <stdio_set_driver_enabled+0x22>
100093b4:	68c3      	ldr	r3, [r0, #12]
100093b6:	6013      	str	r3, [r2, #0]
100093b8:	60c1      	str	r1, [r0, #12]
100093ba:	4770      	bx	lr
100093bc:	2900      	cmp	r1, #0
100093be:	d0fc      	beq.n	100093ba <stdio_set_driver_enabled+0x22>
100093c0:	6010      	str	r0, [r2, #0]
100093c2:	e7fa      	b.n	100093ba <stdio_set_driver_enabled+0x22>
100093c4:	20001110 	.word	0x20001110

100093c8 <__wrap_vprintf>:
100093c8:	b5f0      	push	{r4, r5, r6, r7, lr}
100093ca:	4647      	mov	r7, r8
100093cc:	46ce      	mov	lr, r9
100093ce:	23d0      	movs	r3, #208	; 0xd0
100093d0:	b580      	push	{r7, lr}
100093d2:	061b      	lsls	r3, r3, #24
100093d4:	681d      	ldr	r5, [r3, #0]
100093d6:	4b2e      	ldr	r3, [pc, #184]	; (10009490 <__wrap_vprintf+0xc8>)
100093d8:	b0a5      	sub	sp, #148	; 0x94
100093da:	0007      	movs	r7, r0
100093dc:	000c      	movs	r4, r1
100093de:	0018      	movs	r0, r3
100093e0:	a903      	add	r1, sp, #12
100093e2:	4698      	mov	r8, r3
100093e4:	f002 ff98 	bl	1000c318 <__mutex_try_enter_veneer>
100093e8:	1e06      	subs	r6, r0, #0
100093ea:	d107      	bne.n	100093fc <__wrap_vprintf+0x34>
100093ec:	9b03      	ldr	r3, [sp, #12]
100093ee:	b26d      	sxtb	r5, r5
100093f0:	429d      	cmp	r5, r3
100093f2:	d003      	beq.n	100093fc <__wrap_vprintf+0x34>
100093f4:	4640      	mov	r0, r8
100093f6:	f002 ffa7 	bl	1000c348 <__mutex_enter_blocking_veneer>
100093fa:	3601      	adds	r6, #1
100093fc:	2284      	movs	r2, #132	; 0x84
100093fe:	2100      	movs	r1, #0
10009400:	a803      	add	r0, sp, #12
10009402:	f7ff fe3d 	bl	10009080 <__wrap_memset>
10009406:	0023      	movs	r3, r4
10009408:	003a      	movs	r2, r7
1000940a:	4822      	ldr	r0, [pc, #136]	; (10009494 <__wrap_vprintf+0xcc>)
1000940c:	a903      	add	r1, sp, #12
1000940e:	f7fe fed1 	bl	100081b4 <vfctprintf>
10009412:	9b03      	ldr	r3, [sp, #12]
10009414:	0007      	movs	r7, r0
10009416:	2b00      	cmp	r3, #0
10009418:	d114      	bne.n	10009444 <__wrap_vprintf+0x7c>
1000941a:	4b1f      	ldr	r3, [pc, #124]	; (10009498 <__wrap_vprintf+0xd0>)
1000941c:	681c      	ldr	r4, [r3, #0]
1000941e:	2c00      	cmp	r4, #0
10009420:	d006      	beq.n	10009430 <__wrap_vprintf+0x68>
10009422:	6863      	ldr	r3, [r4, #4]
10009424:	2b00      	cmp	r3, #0
10009426:	d00b      	beq.n	10009440 <__wrap_vprintf+0x78>
10009428:	4798      	blx	r3
1000942a:	68e4      	ldr	r4, [r4, #12]
1000942c:	2c00      	cmp	r4, #0
1000942e:	d1f8      	bne.n	10009422 <__wrap_vprintf+0x5a>
10009430:	2e00      	cmp	r6, #0
10009432:	d127      	bne.n	10009484 <__wrap_vprintf+0xbc>
10009434:	0038      	movs	r0, r7
10009436:	b025      	add	sp, #148	; 0x94
10009438:	bcc0      	pop	{r6, r7}
1000943a:	46b9      	mov	r9, r7
1000943c:	46b0      	mov	r8, r6
1000943e:	bdf0      	pop	{r4, r5, r6, r7, pc}
10009440:	68e4      	ldr	r4, [r4, #12]
10009442:	e7ec      	b.n	1000941e <__wrap_vprintf+0x56>
10009444:	4b14      	ldr	r3, [pc, #80]	; (10009498 <__wrap_vprintf+0xd0>)
10009446:	681d      	ldr	r5, [r3, #0]
10009448:	4699      	mov	r9, r3
1000944a:	2d00      	cmp	r5, #0
1000944c:	d01e      	beq.n	1000948c <__wrap_vprintf+0xc4>
1000944e:	4c13      	ldr	r4, [pc, #76]	; (1000949c <__wrap_vprintf+0xd4>)
10009450:	e002      	b.n	10009458 <__wrap_vprintf+0x90>
10009452:	68ed      	ldr	r5, [r5, #12]
10009454:	2d00      	cmp	r5, #0
10009456:	d011      	beq.n	1000947c <__wrap_vprintf+0xb4>
10009458:	682b      	ldr	r3, [r5, #0]
1000945a:	2b00      	cmp	r3, #0
1000945c:	d0f9      	beq.n	10009452 <__wrap_vprintf+0x8a>
1000945e:	6823      	ldr	r3, [r4, #0]
10009460:	2b00      	cmp	r3, #0
10009462:	d001      	beq.n	10009468 <__wrap_vprintf+0xa0>
10009464:	42ab      	cmp	r3, r5
10009466:	d1f4      	bne.n	10009452 <__wrap_vprintf+0x8a>
10009468:	9b03      	ldr	r3, [sp, #12]
1000946a:	0028      	movs	r0, r5
1000946c:	001a      	movs	r2, r3
1000946e:	a904      	add	r1, sp, #16
10009470:	9301      	str	r3, [sp, #4]
10009472:	f7ff fe19 	bl	100090a8 <stdio_out_chars_crlf>
10009476:	68ed      	ldr	r5, [r5, #12]
10009478:	2d00      	cmp	r5, #0
1000947a:	d1ed      	bne.n	10009458 <__wrap_vprintf+0x90>
1000947c:	464b      	mov	r3, r9
1000947e:	9503      	str	r5, [sp, #12]
10009480:	681c      	ldr	r4, [r3, #0]
10009482:	e7cc      	b.n	1000941e <__wrap_vprintf+0x56>
10009484:	4640      	mov	r0, r8
10009486:	f002 ff2f 	bl	1000c2e8 <__mutex_exit_veneer>
1000948a:	e7d3      	b.n	10009434 <__wrap_vprintf+0x6c>
1000948c:	9503      	str	r5, [sp, #12]
1000948e:	e7cf      	b.n	10009430 <__wrap_vprintf+0x68>
10009490:	200004f0 	.word	0x200004f0
10009494:	1000915d 	.word	0x1000915d
10009498:	20001110 	.word	0x20001110
1000949c:	20001228 	.word	0x20001228

100094a0 <__wrap_printf>:
100094a0:	b40f      	push	{r0, r1, r2, r3}
100094a2:	b500      	push	{lr}
100094a4:	b083      	sub	sp, #12
100094a6:	a904      	add	r1, sp, #16
100094a8:	c901      	ldmia	r1!, {r0}
100094aa:	9101      	str	r1, [sp, #4]
100094ac:	f7ff ff8c 	bl	100093c8 <__wrap_vprintf>
100094b0:	b003      	add	sp, #12
100094b2:	bc08      	pop	{r3}
100094b4:	b004      	add	sp, #16
100094b6:	4718      	bx	r3

100094b8 <stdio_init_all>:
100094b8:	b510      	push	{r4, lr}
100094ba:	f000 f93d 	bl	10009738 <stdio_usb_init>
100094be:	bd10      	pop	{r4, pc}

100094c0 <resetd_init>:
100094c0:	4770      	bx	lr
100094c2:	46c0      	nop			; (mov r8, r8)

100094c4 <resetd_reset>:
100094c4:	2200      	movs	r2, #0
100094c6:	4b01      	ldr	r3, [pc, #4]	; (100094cc <resetd_reset+0x8>)
100094c8:	701a      	strb	r2, [r3, #0]
100094ca:	4770      	bx	lr
100094cc:	20027153 	.word	0x20027153

100094d0 <resetd_open>:
100094d0:	794b      	ldrb	r3, [r1, #5]
100094d2:	2000      	movs	r0, #0
100094d4:	2bff      	cmp	r3, #255	; 0xff
100094d6:	d10b      	bne.n	100094f0 <resetd_open+0x20>
100094d8:	798b      	ldrb	r3, [r1, #6]
100094da:	2b00      	cmp	r3, #0
100094dc:	d108      	bne.n	100094f0 <resetd_open+0x20>
100094de:	79cb      	ldrb	r3, [r1, #7]
100094e0:	2b01      	cmp	r3, #1
100094e2:	d105      	bne.n	100094f0 <resetd_open+0x20>
100094e4:	2a08      	cmp	r2, #8
100094e6:	d903      	bls.n	100094f0 <resetd_open+0x20>
100094e8:	788a      	ldrb	r2, [r1, #2]
100094ea:	4b02      	ldr	r3, [pc, #8]	; (100094f4 <resetd_open+0x24>)
100094ec:	3009      	adds	r0, #9
100094ee:	701a      	strb	r2, [r3, #0]
100094f0:	4770      	bx	lr
100094f2:	46c0      	nop			; (mov r8, r8)
100094f4:	20027153 	.word	0x20027153

100094f8 <resetd_xfer_cb>:
100094f8:	2001      	movs	r0, #1
100094fa:	4770      	bx	lr

100094fc <resetd_control_xfer_cb>:
100094fc:	b570      	push	{r4, r5, r6, lr}
100094fe:	2900      	cmp	r1, #0
10009500:	d115      	bne.n	1000952e <resetd_control_xfer_cb+0x32>
10009502:	4915      	ldr	r1, [pc, #84]	; (10009558 <resetd_control_xfer_cb+0x5c>)
10009504:	7953      	ldrb	r3, [r2, #5]
10009506:	7910      	ldrb	r0, [r2, #4]
10009508:	7809      	ldrb	r1, [r1, #0]
1000950a:	021b      	lsls	r3, r3, #8
1000950c:	4303      	orrs	r3, r0
1000950e:	2000      	movs	r0, #0
10009510:	4299      	cmp	r1, r3
10009512:	d000      	beq.n	10009516 <resetd_control_xfer_cb+0x1a>
10009514:	bd70      	pop	{r4, r5, r6, pc}
10009516:	7853      	ldrb	r3, [r2, #1]
10009518:	2b01      	cmp	r3, #1
1000951a:	d00a      	beq.n	10009532 <resetd_control_xfer_cb+0x36>
1000951c:	2b02      	cmp	r3, #2
1000951e:	d1f9      	bne.n	10009514 <resetd_control_xfer_cb+0x18>
10009520:	2000      	movs	r0, #0
10009522:	2264      	movs	r2, #100	; 0x64
10009524:	2100      	movs	r1, #0
10009526:	f7fd f99b 	bl	10006860 <watchdog_reboot>
1000952a:	2001      	movs	r0, #1
1000952c:	e7f2      	b.n	10009514 <resetd_control_xfer_cb+0x18>
1000952e:	2001      	movs	r0, #1
10009530:	e7f0      	b.n	10009514 <resetd_control_xfer_cb+0x18>
10009532:	7894      	ldrb	r4, [r2, #2]
10009534:	78d2      	ldrb	r2, [r2, #3]
10009536:	0005      	movs	r5, r0
10009538:	0212      	lsls	r2, r2, #8
1000953a:	4314      	orrs	r4, r2
1000953c:	05d2      	lsls	r2, r2, #23
1000953e:	d502      	bpl.n	10009546 <resetd_control_xfer_cb+0x4a>
10009540:	0a62      	lsrs	r2, r4, #9
10009542:	4093      	lsls	r3, r2
10009544:	001d      	movs	r5, r3
10009546:	4805      	ldr	r0, [pc, #20]	; (1000955c <resetd_control_xfer_cb+0x60>)
10009548:	f7fe fe64 	bl	10008214 <rom_func_lookup>
1000954c:	217f      	movs	r1, #127	; 0x7f
1000954e:	0003      	movs	r3, r0
10009550:	4021      	ands	r1, r4
10009552:	0028      	movs	r0, r5
10009554:	4798      	blx	r3
10009556:	46c0      	nop			; (mov r8, r8)
10009558:	20027153 	.word	0x20027153
1000955c:	00004255 	.word	0x00004255

10009560 <usbd_app_driver_get_cb>:
10009560:	2301      	movs	r3, #1
10009562:	7003      	strb	r3, [r0, #0]
10009564:	4800      	ldr	r0, [pc, #0]	; (10009568 <usbd_app_driver_get_cb+0x8>)
10009566:	4770      	bx	lr
10009568:	1000d51c 	.word	0x1000d51c

1000956c <tud_cdc_line_coding_cb>:
1000956c:	7848      	ldrb	r0, [r1, #1]
1000956e:	780b      	ldrb	r3, [r1, #0]
10009570:	788a      	ldrb	r2, [r1, #2]
10009572:	0200      	lsls	r0, r0, #8
10009574:	4318      	orrs	r0, r3
10009576:	0412      	lsls	r2, r2, #16
10009578:	4310      	orrs	r0, r2
1000957a:	2296      	movs	r2, #150	; 0x96
1000957c:	78cb      	ldrb	r3, [r1, #3]
1000957e:	b510      	push	{r4, lr}
10009580:	061b      	lsls	r3, r3, #24
10009582:	4303      	orrs	r3, r0
10009584:	00d2      	lsls	r2, r2, #3
10009586:	4293      	cmp	r3, r2
10009588:	d000      	beq.n	1000958c <tud_cdc_line_coding_cb+0x20>
1000958a:	bd10      	pop	{r4, pc}
1000958c:	4803      	ldr	r0, [pc, #12]	; (1000959c <tud_cdc_line_coding_cb+0x30>)
1000958e:	f7fe fe41 	bl	10008214 <rom_func_lookup>
10009592:	2100      	movs	r1, #0
10009594:	0003      	movs	r3, r0
10009596:	0008      	movs	r0, r1
10009598:	4798      	blx	r3
1000959a:	46c0      	nop			; (mov r8, r8)
1000959c:	00004255 	.word	0x00004255

100095a0 <stdio_usb_in_chars>:
100095a0:	b570      	push	{r4, r5, r6, lr}
100095a2:	4c18      	ldr	r4, [pc, #96]	; (10009604 <stdio_usb_in_chars+0x64>)
100095a4:	b082      	sub	sp, #8
100095a6:	0006      	movs	r6, r0
100095a8:	000d      	movs	r5, r1
100095aa:	0020      	movs	r0, r4
100095ac:	a901      	add	r1, sp, #4
100095ae:	f002 feb3 	bl	1000c318 <__mutex_try_enter_veneer>
100095b2:	2800      	cmp	r0, #0
100095b4:	d108      	bne.n	100095c8 <stdio_usb_in_chars+0x28>
100095b6:	23d0      	movs	r3, #208	; 0xd0
100095b8:	061b      	lsls	r3, r3, #24
100095ba:	681b      	ldr	r3, [r3, #0]
100095bc:	9a01      	ldr	r2, [sp, #4]
100095be:	429a      	cmp	r2, r3
100095c0:	d01c      	beq.n	100095fc <stdio_usb_in_chars+0x5c>
100095c2:	0020      	movs	r0, r4
100095c4:	f002 fec0 	bl	1000c348 <__mutex_enter_blocking_veneer>
100095c8:	2000      	movs	r0, #0
100095ca:	f001 fe1f 	bl	1000b20c <tud_cdc_n_connected>
100095ce:	2800      	cmp	r0, #0
100095d0:	d107      	bne.n	100095e2 <stdio_usb_in_chars+0x42>
100095d2:	2503      	movs	r5, #3
100095d4:	426d      	negs	r5, r5
100095d6:	0020      	movs	r0, r4
100095d8:	f002 fe86 	bl	1000c2e8 <__mutex_exit_veneer>
100095dc:	0028      	movs	r0, r5
100095de:	b002      	add	sp, #8
100095e0:	bd70      	pop	{r4, r5, r6, pc}
100095e2:	2000      	movs	r0, #0
100095e4:	f001 fe2a 	bl	1000b23c <tud_cdc_n_available>
100095e8:	2800      	cmp	r0, #0
100095ea:	d0f2      	beq.n	100095d2 <stdio_usb_in_chars+0x32>
100095ec:	002a      	movs	r2, r5
100095ee:	0031      	movs	r1, r6
100095f0:	2000      	movs	r0, #0
100095f2:	f001 fe2f 	bl	1000b254 <tud_cdc_n_read>
100095f6:	1e05      	subs	r5, r0, #0
100095f8:	d0eb      	beq.n	100095d2 <stdio_usb_in_chars+0x32>
100095fa:	e7ec      	b.n	100095d6 <stdio_usb_in_chars+0x36>
100095fc:	2503      	movs	r5, #3
100095fe:	426d      	negs	r5, r5
10009600:	e7ec      	b.n	100095dc <stdio_usb_in_chars+0x3c>
10009602:	46c0      	nop			; (mov r8, r8)
10009604:	2002711c 	.word	0x2002711c

10009608 <stdio_usb_out_chars>:
10009608:	b5f0      	push	{r4, r5, r6, r7, lr}
1000960a:	46de      	mov	lr, fp
1000960c:	464f      	mov	r7, r9
1000960e:	4646      	mov	r6, r8
10009610:	b5c0      	push	{r6, r7, lr}
10009612:	4b33      	ldr	r3, [pc, #204]	; (100096e0 <stdio_usb_out_chars+0xd8>)
10009614:	b082      	sub	sp, #8
10009616:	4681      	mov	r9, r0
10009618:	000d      	movs	r5, r1
1000961a:	0018      	movs	r0, r3
1000961c:	a901      	add	r1, sp, #4
1000961e:	469b      	mov	fp, r3
10009620:	f002 fe7a 	bl	1000c318 <__mutex_try_enter_veneer>
10009624:	2800      	cmp	r0, #0
10009626:	d108      	bne.n	1000963a <stdio_usb_out_chars+0x32>
10009628:	23d0      	movs	r3, #208	; 0xd0
1000962a:	061b      	lsls	r3, r3, #24
1000962c:	681b      	ldr	r3, [r3, #0]
1000962e:	9a01      	ldr	r2, [sp, #4]
10009630:	429a      	cmp	r2, r3
10009632:	d04f      	beq.n	100096d4 <stdio_usb_out_chars+0xcc>
10009634:	4658      	mov	r0, fp
10009636:	f002 fe87 	bl	1000c348 <__mutex_enter_blocking_veneer>
1000963a:	2000      	movs	r0, #0
1000963c:	f001 fde6 	bl	1000b20c <tud_cdc_n_connected>
10009640:	2800      	cmp	r0, #0
10009642:	d03f      	beq.n	100096c4 <stdio_usb_out_chars+0xbc>
10009644:	2400      	movs	r4, #0
10009646:	2d00      	cmp	r5, #0
10009648:	dd41      	ble.n	100096ce <stdio_usb_out_chars+0xc6>
1000964a:	4e26      	ldr	r6, [pc, #152]	; (100096e4 <stdio_usb_out_chars+0xdc>)
1000964c:	e011      	b.n	10009672 <stdio_usb_out_chars+0x6a>
1000964e:	464b      	mov	r3, r9
10009650:	2000      	movs	r0, #0
10009652:	1919      	adds	r1, r3, r4
10009654:	f001 fe72 	bl	1000b33c <tud_cdc_n_write>
10009658:	4680      	mov	r8, r0
1000965a:	f000 fe65 	bl	1000a328 <tud_task>
1000965e:	2000      	movs	r0, #0
10009660:	f001 fe30 	bl	1000b2c4 <tud_cdc_n_write_flush>
10009664:	f7fc fdb0 	bl	100061c8 <time_us_64>
10009668:	6030      	str	r0, [r6, #0]
1000966a:	6071      	str	r1, [r6, #4]
1000966c:	4444      	add	r4, r8
1000966e:	42ac      	cmp	r4, r5
10009670:	da2d      	bge.n	100096ce <stdio_usb_out_chars+0xc6>
10009672:	2000      	movs	r0, #0
10009674:	f001 fe7c 	bl	1000b370 <tud_cdc_n_write_available>
10009678:	1b2f      	subs	r7, r5, r4
1000967a:	0002      	movs	r2, r0
1000967c:	42b8      	cmp	r0, r7
1000967e:	dd00      	ble.n	10009682 <stdio_usb_out_chars+0x7a>
10009680:	003a      	movs	r2, r7
10009682:	2a00      	cmp	r2, #0
10009684:	d1e3      	bne.n	1000964e <stdio_usb_out_chars+0x46>
10009686:	f000 fe4f 	bl	1000a328 <tud_task>
1000968a:	2000      	movs	r0, #0
1000968c:	f001 fe1a 	bl	1000b2c4 <tud_cdc_n_write_flush>
10009690:	2000      	movs	r0, #0
10009692:	f001 fdbb 	bl	1000b20c <tud_cdc_n_connected>
10009696:	2800      	cmp	r0, #0
10009698:	d019      	beq.n	100096ce <stdio_usb_out_chars+0xc6>
1000969a:	2000      	movs	r0, #0
1000969c:	f001 fe68 	bl	1000b370 <tud_cdc_n_write_available>
100096a0:	2800      	cmp	r0, #0
100096a2:	d1e4      	bne.n	1000966e <stdio_usb_out_chars+0x66>
100096a4:	f7fc fd90 	bl	100061c8 <time_us_64>
100096a8:	6832      	ldr	r2, [r6, #0]
100096aa:	6873      	ldr	r3, [r6, #4]
100096ac:	000f      	movs	r7, r1
100096ae:	2100      	movs	r1, #0
100096b0:	4684      	mov	ip, r0
100096b2:	480d      	ldr	r0, [pc, #52]	; (100096e8 <stdio_usb_out_chars+0xe0>)
100096b4:	1812      	adds	r2, r2, r0
100096b6:	414b      	adcs	r3, r1
100096b8:	429f      	cmp	r7, r3
100096ba:	d808      	bhi.n	100096ce <stdio_usb_out_chars+0xc6>
100096bc:	d1d7      	bne.n	1000966e <stdio_usb_out_chars+0x66>
100096be:	4594      	cmp	ip, r2
100096c0:	d9d5      	bls.n	1000966e <stdio_usb_out_chars+0x66>
100096c2:	e004      	b.n	100096ce <stdio_usb_out_chars+0xc6>
100096c4:	2000      	movs	r0, #0
100096c6:	2100      	movs	r1, #0
100096c8:	4b06      	ldr	r3, [pc, #24]	; (100096e4 <stdio_usb_out_chars+0xdc>)
100096ca:	6018      	str	r0, [r3, #0]
100096cc:	6059      	str	r1, [r3, #4]
100096ce:	4658      	mov	r0, fp
100096d0:	f002 fe0a 	bl	1000c2e8 <__mutex_exit_veneer>
100096d4:	b002      	add	sp, #8
100096d6:	bce0      	pop	{r5, r6, r7}
100096d8:	46bb      	mov	fp, r7
100096da:	46b1      	mov	r9, r6
100096dc:	46a8      	mov	r8, r5
100096de:	bdf0      	pop	{r4, r5, r6, r7, pc}
100096e0:	2002711c 	.word	0x2002711c
100096e4:	20000618 	.word	0x20000618
100096e8:	0007a120 	.word	0x0007a120

100096ec <timer_task>:
100096ec:	b510      	push	{r4, lr}
100096ee:	4b04      	ldr	r3, [pc, #16]	; (10009700 <timer_task+0x14>)
100096f0:	7818      	ldrb	r0, [r3, #0]
100096f2:	f7fb fe59 	bl	100053a8 <irq_set_pending>
100096f6:	20fa      	movs	r0, #250	; 0xfa
100096f8:	2100      	movs	r1, #0
100096fa:	0080      	lsls	r0, r0, #2
100096fc:	bd10      	pop	{r4, pc}
100096fe:	46c0      	nop			; (mov r8, r8)
10009700:	20027154 	.word	0x20027154

10009704 <usb_irq>:
10009704:	b510      	push	{r4, lr}
10009706:	4b02      	ldr	r3, [pc, #8]	; (10009710 <usb_irq+0xc>)
10009708:	7818      	ldrb	r0, [r3, #0]
1000970a:	f7fb fe4d 	bl	100053a8 <irq_set_pending>
1000970e:	bd10      	pop	{r4, pc}
10009710:	20027154 	.word	0x20027154

10009714 <low_priority_worker_irq>:
10009714:	b510      	push	{r4, lr}
10009716:	4c07      	ldr	r4, [pc, #28]	; (10009734 <low_priority_worker_irq+0x20>)
10009718:	2100      	movs	r1, #0
1000971a:	0020      	movs	r0, r4
1000971c:	f002 fdfc 	bl	1000c318 <__mutex_try_enter_veneer>
10009720:	2800      	cmp	r0, #0
10009722:	d100      	bne.n	10009726 <low_priority_worker_irq+0x12>
10009724:	bd10      	pop	{r4, pc}
10009726:	f000 fdff 	bl	1000a328 <tud_task>
1000972a:	0020      	movs	r0, r4
1000972c:	f002 fddc 	bl	1000c2e8 <__mutex_exit_veneer>
10009730:	e7f8      	b.n	10009724 <low_priority_worker_irq+0x10>
10009732:	46c0      	nop			; (mov r8, r8)
10009734:	2002711c 	.word	0x2002711c

10009738 <stdio_usb_init>:
10009738:	b5f0      	push	{r4, r5, r6, r7, lr}
1000973a:	4b24      	ldr	r3, [pc, #144]	; (100097cc <stdio_usb_init+0x94>)
1000973c:	b085      	sub	sp, #20
1000973e:	781b      	ldrb	r3, [r3, #0]
10009740:	f001 fffe 	bl	1000b740 <tusb_init>
10009744:	4822      	ldr	r0, [pc, #136]	; (100097d0 <stdio_usb_init+0x98>)
10009746:	f7fc ffff 	bl	10006748 <mutex_init>
1000974a:	2001      	movs	r0, #1
1000974c:	f7fc f8b4 	bl	100058b8 <user_irq_claim_unused>
10009750:	23ff      	movs	r3, #255	; 0xff
10009752:	4c20      	ldr	r4, [pc, #128]	; (100097d4 <stdio_usb_init+0x9c>)
10009754:	4920      	ldr	r1, [pc, #128]	; (100097d8 <stdio_usb_init+0xa0>)
10009756:	7020      	strb	r0, [r4, #0]
10009758:	4018      	ands	r0, r3
1000975a:	f7fb fe4b 	bl	100053f4 <irq_set_exclusive_handler>
1000975e:	7820      	ldrb	r0, [r4, #0]
10009760:	2101      	movs	r1, #1
10009762:	f7fb fe0f 	bl	10005384 <irq_set_enabled>
10009766:	2005      	movs	r0, #5
10009768:	f7fb fe26 	bl	100053b8 <irq_has_shared_handler>
1000976c:	1e04      	subs	r4, r0, #0
1000976e:	d00c      	beq.n	1000978a <stdio_usb_init+0x52>
10009770:	2200      	movs	r2, #0
10009772:	2005      	movs	r0, #5
10009774:	4919      	ldr	r1, [pc, #100]	; (100097dc <stdio_usb_init+0xa4>)
10009776:	f7fb fe67 	bl	10005448 <irq_add_shared_handler>
1000977a:	2101      	movs	r1, #1
1000977c:	4818      	ldr	r0, [pc, #96]	; (100097e0 <stdio_usb_init+0xa8>)
1000977e:	f7ff fe0b 	bl	10009398 <stdio_set_driver_enabled>
10009782:	2401      	movs	r4, #1
10009784:	0020      	movs	r0, r4
10009786:	b005      	add	sp, #20
10009788:	bdf0      	pop	{r4, r5, r6, r7, pc}
1000978a:	f7fc fb0b 	bl	10005da4 <alarm_pool_get_default>
1000978e:	0005      	movs	r5, r0
10009790:	f7fc fd1a 	bl	100061c8 <time_us_64>
10009794:	22fa      	movs	r2, #250	; 0xfa
10009796:	0006      	movs	r6, r0
10009798:	000f      	movs	r7, r1
1000979a:	2300      	movs	r3, #0
1000979c:	0092      	lsls	r2, r2, #2
1000979e:	1992      	adds	r2, r2, r6
100097a0:	417b      	adcs	r3, r7
100097a2:	4299      	cmp	r1, r3
100097a4:	d80e      	bhi.n	100097c4 <stdio_usb_init+0x8c>
100097a6:	d00b      	beq.n	100097c0 <stdio_usb_init+0x88>
100097a8:	2101      	movs	r1, #1
100097aa:	9102      	str	r1, [sp, #8]
100097ac:	2100      	movs	r1, #0
100097ae:	9101      	str	r1, [sp, #4]
100097b0:	490c      	ldr	r1, [pc, #48]	; (100097e4 <stdio_usb_init+0xac>)
100097b2:	0028      	movs	r0, r5
100097b4:	9100      	str	r1, [sp, #0]
100097b6:	f7fc faf9 	bl	10005dac <alarm_pool_add_alarm_at>
100097ba:	2800      	cmp	r0, #0
100097bc:	d0e2      	beq.n	10009784 <stdio_usb_init+0x4c>
100097be:	e7dc      	b.n	1000977a <stdio_usb_init+0x42>
100097c0:	4290      	cmp	r0, r2
100097c2:	d9f1      	bls.n	100097a8 <stdio_usb_init+0x70>
100097c4:	2201      	movs	r2, #1
100097c6:	4252      	negs	r2, r2
100097c8:	17d3      	asrs	r3, r2, #31
100097ca:	e7ed      	b.n	100097a8 <stdio_usb_init+0x70>
100097cc:	1000d72c 	.word	0x1000d72c
100097d0:	2002711c 	.word	0x2002711c
100097d4:	20027154 	.word	0x20027154
100097d8:	10009715 	.word	0x10009715
100097dc:	10009705 	.word	0x10009705
100097e0:	200004a0 	.word	0x200004a0
100097e4:	100096ed 	.word	0x100096ed

100097e8 <tud_descriptor_device_cb>:
100097e8:	4800      	ldr	r0, [pc, #0]	; (100097ec <tud_descriptor_device_cb+0x4>)
100097ea:	4770      	bx	lr
100097ec:	1000d5d4 	.word	0x1000d5d4

100097f0 <tud_descriptor_configuration_cb>:
100097f0:	4800      	ldr	r0, [pc, #0]	; (100097f4 <tud_descriptor_configuration_cb+0x4>)
100097f2:	4770      	bx	lr
100097f4:	1000d580 	.word	0x1000d580

100097f8 <tud_descriptor_string_cb>:
100097f8:	b570      	push	{r4, r5, r6, lr}
100097fa:	0004      	movs	r4, r0
100097fc:	4817      	ldr	r0, [pc, #92]	; (1000985c <tud_descriptor_string_cb+0x64>)
100097fe:	7803      	ldrb	r3, [r0, #0]
10009800:	2b00      	cmp	r3, #0
10009802:	d021      	beq.n	10009848 <tud_descriptor_string_cb+0x50>
10009804:	2c00      	cmp	r4, #0
10009806:	d106      	bne.n	10009816 <tud_descriptor_string_cb+0x1e>
10009808:	24c1      	movs	r4, #193	; 0xc1
1000980a:	4815      	ldr	r0, [pc, #84]	; (10009860 <tud_descriptor_string_cb+0x68>)
1000980c:	4b15      	ldr	r3, [pc, #84]	; (10009864 <tud_descriptor_string_cb+0x6c>)
1000980e:	00a4      	lsls	r4, r4, #2
10009810:	8043      	strh	r3, [r0, #2]
10009812:	8004      	strh	r4, [r0, #0]
10009814:	bd70      	pop	{r4, r5, r6, pc}
10009816:	2c05      	cmp	r4, #5
10009818:	d81d      	bhi.n	10009856 <tud_descriptor_string_cb+0x5e>
1000981a:	4b13      	ldr	r3, [pc, #76]	; (10009868 <tud_descriptor_string_cb+0x70>)
1000981c:	4810      	ldr	r0, [pc, #64]	; (10009860 <tud_descriptor_string_cb+0x68>)
1000981e:	00a4      	lsls	r4, r4, #2
10009820:	58e5      	ldr	r5, [r4, r3]
10009822:	1c81      	adds	r1, r0, #2
10009824:	2300      	movs	r3, #0
10009826:	e004      	b.n	10009832 <tud_descriptor_string_cb+0x3a>
10009828:	3301      	adds	r3, #1
1000982a:	800a      	strh	r2, [r1, #0]
1000982c:	3102      	adds	r1, #2
1000982e:	2b13      	cmp	r3, #19
10009830:	d00e      	beq.n	10009850 <tud_descriptor_string_cb+0x58>
10009832:	5cea      	ldrb	r2, [r5, r3]
10009834:	b2dc      	uxtb	r4, r3
10009836:	2a00      	cmp	r2, #0
10009838:	d1f6      	bne.n	10009828 <tud_descriptor_string_cb+0x30>
1000983a:	23c0      	movs	r3, #192	; 0xc0
1000983c:	3401      	adds	r4, #1
1000983e:	b2e4      	uxtb	r4, r4
10009840:	0064      	lsls	r4, r4, #1
10009842:	009b      	lsls	r3, r3, #2
10009844:	431c      	orrs	r4, r3
10009846:	e7e4      	b.n	10009812 <tud_descriptor_string_cb+0x1a>
10009848:	2111      	movs	r1, #17
1000984a:	f002 fa0f 	bl	1000bc6c <pico_get_unique_board_id_string>
1000984e:	e7d9      	b.n	10009804 <tud_descriptor_string_cb+0xc>
10009850:	24ca      	movs	r4, #202	; 0xca
10009852:	00a4      	lsls	r4, r4, #2
10009854:	e7dd      	b.n	10009812 <tud_descriptor_string_cb+0x1a>
10009856:	2000      	movs	r0, #0
10009858:	e7dc      	b.n	10009814 <tud_descriptor_string_cb+0x1c>
1000985a:	46c0      	nop			; (mov r8, r8)
1000985c:	20027134 	.word	0x20027134
10009860:	200010e8 	.word	0x200010e8
10009864:	00000409 	.word	0x00000409
10009868:	1000d5e8 	.word	0x1000d5e8

1000986c <dcd_rp2040_irq>:
1000986c:	b5f0      	push	{r4, r5, r6, r7, lr}
1000986e:	2398      	movs	r3, #152	; 0x98
10009870:	4657      	mov	r7, sl
10009872:	4645      	mov	r5, r8
10009874:	46de      	mov	lr, fp
10009876:	464e      	mov	r6, r9
10009878:	4a6c      	ldr	r2, [pc, #432]	; (10009a2c <dcd_rp2040_irq+0x1c0>)
1000987a:	b5e0      	push	{r5, r6, r7, lr}
1000987c:	58d7      	ldr	r7, [r2, r3]
1000987e:	2580      	movs	r5, #128	; 0x80
10009880:	003c      	movs	r4, r7
10009882:	026d      	lsls	r5, r5, #9
10009884:	3b88      	subs	r3, #136	; 0x88
10009886:	469a      	mov	sl, r3
10009888:	b083      	sub	sp, #12
1000988a:	402c      	ands	r4, r5
1000988c:	422f      	tst	r7, r5
1000988e:	d00f      	beq.n	100098b0 <dcd_rp2040_irq+0x44>
10009890:	2201      	movs	r2, #1
10009892:	2123      	movs	r1, #35	; 0x23
10009894:	4b66      	ldr	r3, [pc, #408]	; (10009a30 <dcd_rp2040_irq+0x1c4>)
10009896:	2000      	movs	r0, #0
10009898:	545a      	strb	r2, [r3, r1]
1000989a:	70da      	strb	r2, [r3, #3]
1000989c:	4965      	ldr	r1, [pc, #404]	; (10009a34 <dcd_rp2040_irq+0x1c8>)
1000989e:	f001 fa73 	bl	1000ad88 <dcd_event_setup_received>
100098a2:	2280      	movs	r2, #128	; 0x80
100098a4:	4b64      	ldr	r3, [pc, #400]	; (10009a38 <dcd_rp2040_irq+0x1cc>)
100098a6:	0292      	lsls	r2, r2, #10
100098a8:	651a      	str	r2, [r3, #80]	; 0x50
100098aa:	4b64      	ldr	r3, [pc, #400]	; (10009a3c <dcd_rp2040_irq+0x1d0>)
100098ac:	002c      	movs	r4, r5
100098ae:	469a      	mov	sl, r3
100098b0:	06fb      	lsls	r3, r7, #27
100098b2:	d417      	bmi.n	100098e4 <dcd_rp2040_irq+0x78>
100098b4:	2380      	movs	r3, #128	; 0x80
100098b6:	015b      	lsls	r3, r3, #5
100098b8:	421f      	tst	r7, r3
100098ba:	d145      	bne.n	10009948 <dcd_rp2040_irq+0xdc>
100098bc:	2380      	movs	r3, #128	; 0x80
100098be:	01db      	lsls	r3, r3, #7
100098c0:	421f      	tst	r7, r3
100098c2:	d000      	beq.n	100098c6 <dcd_rp2040_irq+0x5a>
100098c4:	e088      	b.n	100099d8 <dcd_rp2040_irq+0x16c>
100098c6:	2380      	movs	r3, #128	; 0x80
100098c8:	021b      	lsls	r3, r3, #8
100098ca:	421f      	tst	r7, r3
100098cc:	d000      	beq.n	100098d0 <dcd_rp2040_irq+0x64>
100098ce:	e091      	b.n	100099f4 <dcd_rp2040_irq+0x188>
100098d0:	42bc      	cmp	r4, r7
100098d2:	d000      	beq.n	100098d6 <dcd_rp2040_irq+0x6a>
100098d4:	e0a5      	b.n	10009a22 <dcd_rp2040_irq+0x1b6>
100098d6:	b003      	add	sp, #12
100098d8:	bcf0      	pop	{r4, r5, r6, r7}
100098da:	46bb      	mov	fp, r7
100098dc:	46b2      	mov	sl, r6
100098de:	46a9      	mov	r9, r5
100098e0:	46a0      	mov	r8, r4
100098e2:	bdf0      	pop	{r4, r5, r6, r7, pc}
100098e4:	4b51      	ldr	r3, [pc, #324]	; (10009a2c <dcd_rp2040_irq+0x1c0>)
100098e6:	6d9b      	ldr	r3, [r3, #88]	; 0x58
100098e8:	4698      	mov	r8, r3
100098ea:	2b00      	cmp	r3, #0
100098ec:	d027      	beq.n	1000993e <dcd_rp2040_irq+0xd2>
100098ee:	4b52      	ldr	r3, [pc, #328]	; (10009a38 <dcd_rp2040_irq+0x1cc>)
100098f0:	2400      	movs	r4, #0
100098f2:	469b      	mov	fp, r3
100098f4:	2301      	movs	r3, #1
100098f6:	4699      	mov	r9, r3
100098f8:	4643      	mov	r3, r8
100098fa:	2601      	movs	r6, #1
100098fc:	46b8      	mov	r8, r7
100098fe:	001f      	movs	r7, r3
10009900:	e004      	b.n	1000990c <dcd_rp2040_irq+0xa0>
10009902:	3401      	adds	r4, #1
10009904:	0076      	lsls	r6, r6, #1
10009906:	b2e4      	uxtb	r4, r4
10009908:	2c20      	cmp	r4, #32
1000990a:	d017      	beq.n	1000993c <dcd_rp2040_irq+0xd0>
1000990c:	4237      	tst	r7, r6
1000990e:	d0f8      	beq.n	10009902 <dcd_rp2040_irq+0x96>
10009910:	465b      	mov	r3, fp
10009912:	659e      	str	r6, [r3, #88]	; 0x58
10009914:	464b      	mov	r3, r9
10009916:	0865      	lsrs	r5, r4, #1
10009918:	43a3      	bics	r3, r4
1000991a:	006d      	lsls	r5, r5, #1
1000991c:	18ed      	adds	r5, r5, r3
1000991e:	4b44      	ldr	r3, [pc, #272]	; (10009a30 <dcd_rp2040_irq+0x1c4>)
10009920:	016d      	lsls	r5, r5, #5
10009922:	469c      	mov	ip, r3
10009924:	4465      	add	r5, ip
10009926:	0028      	movs	r0, r5
10009928:	f000 fb8a 	bl	1000a040 <hw_endpoint_xfer_continue>
1000992c:	2800      	cmp	r0, #0
1000992e:	d16c      	bne.n	10009a0a <dcd_rp2040_irq+0x19e>
10009930:	3401      	adds	r4, #1
10009932:	43b7      	bics	r7, r6
10009934:	b2e4      	uxtb	r4, r4
10009936:	0076      	lsls	r6, r6, #1
10009938:	2f00      	cmp	r7, #0
1000993a:	d1e5      	bne.n	10009908 <dcd_rp2040_irq+0x9c>
1000993c:	4647      	mov	r7, r8
1000993e:	2380      	movs	r3, #128	; 0x80
10009940:	015b      	lsls	r3, r3, #5
10009942:	4654      	mov	r4, sl
10009944:	421f      	tst	r7, r3
10009946:	d0b9      	beq.n	100098bc <dcd_rp2040_irq+0x50>
10009948:	431c      	orrs	r4, r3
1000994a:	2300      	movs	r3, #0
1000994c:	4a37      	ldr	r2, [pc, #220]	; (10009a2c <dcd_rp2040_irq+0x1c0>)
1000994e:	2100      	movs	r1, #0
10009950:	6013      	str	r3, [r2, #0]
10009952:	4a38      	ldr	r2, [pc, #224]	; (10009a34 <dcd_rp2040_irq+0x1c8>)
10009954:	483a      	ldr	r0, [pc, #232]	; (10009a40 <dcd_rp2040_irq+0x1d4>)
10009956:	6093      	str	r3, [r2, #8]
10009958:	60d3      	str	r3, [r2, #12]
1000995a:	4a3a      	ldr	r2, [pc, #232]	; (10009a44 <dcd_rp2040_irq+0x1d8>)
1000995c:	6093      	str	r3, [r2, #8]
1000995e:	60d3      	str	r3, [r2, #12]
10009960:	4a39      	ldr	r2, [pc, #228]	; (10009a48 <dcd_rp2040_irq+0x1dc>)
10009962:	6093      	str	r3, [r2, #8]
10009964:	60d3      	str	r3, [r2, #12]
10009966:	4a39      	ldr	r2, [pc, #228]	; (10009a4c <dcd_rp2040_irq+0x1e0>)
10009968:	6093      	str	r3, [r2, #8]
1000996a:	60d3      	str	r3, [r2, #12]
1000996c:	4a38      	ldr	r2, [pc, #224]	; (10009a50 <dcd_rp2040_irq+0x1e4>)
1000996e:	6093      	str	r3, [r2, #8]
10009970:	60d3      	str	r3, [r2, #12]
10009972:	4a38      	ldr	r2, [pc, #224]	; (10009a54 <dcd_rp2040_irq+0x1e8>)
10009974:	6093      	str	r3, [r2, #8]
10009976:	60d3      	str	r3, [r2, #12]
10009978:	4a37      	ldr	r2, [pc, #220]	; (10009a58 <dcd_rp2040_irq+0x1ec>)
1000997a:	6093      	str	r3, [r2, #8]
1000997c:	60d3      	str	r3, [r2, #12]
1000997e:	4a37      	ldr	r2, [pc, #220]	; (10009a5c <dcd_rp2040_irq+0x1f0>)
10009980:	6093      	str	r3, [r2, #8]
10009982:	60d3      	str	r3, [r2, #12]
10009984:	4a36      	ldr	r2, [pc, #216]	; (10009a60 <dcd_rp2040_irq+0x1f4>)
10009986:	6093      	str	r3, [r2, #8]
10009988:	60d3      	str	r3, [r2, #12]
1000998a:	4a36      	ldr	r2, [pc, #216]	; (10009a64 <dcd_rp2040_irq+0x1f8>)
1000998c:	6093      	str	r3, [r2, #8]
1000998e:	60d3      	str	r3, [r2, #12]
10009990:	4a35      	ldr	r2, [pc, #212]	; (10009a68 <dcd_rp2040_irq+0x1fc>)
10009992:	6093      	str	r3, [r2, #8]
10009994:	60d3      	str	r3, [r2, #12]
10009996:	4a35      	ldr	r2, [pc, #212]	; (10009a6c <dcd_rp2040_irq+0x200>)
10009998:	6093      	str	r3, [r2, #8]
1000999a:	60d3      	str	r3, [r2, #12]
1000999c:	4a34      	ldr	r2, [pc, #208]	; (10009a70 <dcd_rp2040_irq+0x204>)
1000999e:	6093      	str	r3, [r2, #8]
100099a0:	60d3      	str	r3, [r2, #12]
100099a2:	4a34      	ldr	r2, [pc, #208]	; (10009a74 <dcd_rp2040_irq+0x208>)
100099a4:	6093      	str	r3, [r2, #8]
100099a6:	60d3      	str	r3, [r2, #12]
100099a8:	4a33      	ldr	r2, [pc, #204]	; (10009a78 <dcd_rp2040_irq+0x20c>)
100099aa:	6093      	str	r3, [r2, #8]
100099ac:	60d3      	str	r3, [r2, #12]
100099ae:	22f0      	movs	r2, #240	; 0xf0
100099b0:	0092      	lsls	r2, r2, #2
100099b2:	f7ff fb65 	bl	10009080 <__wrap_memset>
100099b6:	4b31      	ldr	r3, [pc, #196]	; (10009a7c <dcd_rp2040_irq+0x210>)
100099b8:	4a31      	ldr	r2, [pc, #196]	; (10009a80 <dcd_rp2040_irq+0x214>)
100099ba:	2100      	movs	r1, #0
100099bc:	601a      	str	r2, [r3, #0]
100099be:	2000      	movs	r0, #0
100099c0:	2201      	movs	r2, #1
100099c2:	f001 f9b7 	bl	1000ad34 <dcd_event_bus_reset>
100099c6:	2280      	movs	r2, #128	; 0x80
100099c8:	4b1b      	ldr	r3, [pc, #108]	; (10009a38 <dcd_rp2040_irq+0x1cc>)
100099ca:	0312      	lsls	r2, r2, #12
100099cc:	651a      	str	r2, [r3, #80]	; 0x50
100099ce:	2380      	movs	r3, #128	; 0x80
100099d0:	01db      	lsls	r3, r3, #7
100099d2:	421f      	tst	r7, r3
100099d4:	d100      	bne.n	100099d8 <dcd_rp2040_irq+0x16c>
100099d6:	e776      	b.n	100098c6 <dcd_rp2040_irq+0x5a>
100099d8:	2201      	movs	r2, #1
100099da:	2104      	movs	r1, #4
100099dc:	2000      	movs	r0, #0
100099de:	431c      	orrs	r4, r3
100099e0:	f001 f918 	bl	1000ac14 <dcd_event_bus_signal>
100099e4:	2210      	movs	r2, #16
100099e6:	4b14      	ldr	r3, [pc, #80]	; (10009a38 <dcd_rp2040_irq+0x1cc>)
100099e8:	651a      	str	r2, [r3, #80]	; 0x50
100099ea:	2380      	movs	r3, #128	; 0x80
100099ec:	021b      	lsls	r3, r3, #8
100099ee:	421f      	tst	r7, r3
100099f0:	d100      	bne.n	100099f4 <dcd_rp2040_irq+0x188>
100099f2:	e76d      	b.n	100098d0 <dcd_rp2040_irq+0x64>
100099f4:	2201      	movs	r2, #1
100099f6:	2105      	movs	r1, #5
100099f8:	2000      	movs	r0, #0
100099fa:	431c      	orrs	r4, r3
100099fc:	f001 f90a 	bl	1000ac14 <dcd_event_bus_signal>
10009a00:	2280      	movs	r2, #128	; 0x80
10009a02:	4b0d      	ldr	r3, [pc, #52]	; (10009a38 <dcd_rp2040_irq+0x1cc>)
10009a04:	0112      	lsls	r2, r2, #4
10009a06:	651a      	str	r2, [r3, #80]	; 0x50
10009a08:	e762      	b.n	100098d0 <dcd_rp2040_irq+0x64>
10009a0a:	464b      	mov	r3, r9
10009a0c:	8aaa      	ldrh	r2, [r5, #20]
10009a0e:	78a9      	ldrb	r1, [r5, #2]
10009a10:	2000      	movs	r0, #0
10009a12:	9300      	str	r3, [sp, #0]
10009a14:	2300      	movs	r3, #0
10009a16:	f001 f9df 	bl	1000add8 <dcd_event_xfer_complete>
10009a1a:	0028      	movs	r0, r5
10009a1c:	f000 fa4c 	bl	10009eb8 <hw_endpoint_reset_transfer>
10009a20:	e786      	b.n	10009930 <dcd_rp2040_irq+0xc4>
10009a22:	0021      	movs	r1, r4
10009a24:	4817      	ldr	r0, [pc, #92]	; (10009a84 <dcd_rp2040_irq+0x218>)
10009a26:	4079      	eors	r1, r7
10009a28:	f7fd f8ec 	bl	10006c04 <panic>
10009a2c:	50110000 	.word	0x50110000
10009a30:	2000122c 	.word	0x2000122c
10009a34:	50100000 	.word	0x50100000
10009a38:	50113000 	.word	0x50113000
10009a3c:	00010010 	.word	0x00010010
10009a40:	2000126c 	.word	0x2000126c
10009a44:	50100008 	.word	0x50100008
10009a48:	50100010 	.word	0x50100010
10009a4c:	50100018 	.word	0x50100018
10009a50:	50100020 	.word	0x50100020
10009a54:	50100028 	.word	0x50100028
10009a58:	50100030 	.word	0x50100030
10009a5c:	50100038 	.word	0x50100038
10009a60:	50100040 	.word	0x50100040
10009a64:	50100048 	.word	0x50100048
10009a68:	50100050 	.word	0x50100050
10009a6c:	50100058 	.word	0x50100058
10009a70:	50100060 	.word	0x50100060
10009a74:	50100068 	.word	0x50100068
10009a78:	50100070 	.word	0x50100070
10009a7c:	20001864 	.word	0x20001864
10009a80:	50100180 	.word	0x50100180
10009a84:	1000d600 	.word	0x1000d600

10009a88 <dcd_int_enable>:
10009a88:	b510      	push	{r4, lr}
10009a8a:	2101      	movs	r1, #1
10009a8c:	2005      	movs	r0, #5
10009a8e:	f7fb fc79 	bl	10005384 <irq_set_enabled>
10009a92:	bd10      	pop	{r4, pc}

10009a94 <dcd_set_address>:
10009a94:	b510      	push	{r4, lr}
10009a96:	2200      	movs	r2, #0
10009a98:	2100      	movs	r1, #0
10009a9a:	4802      	ldr	r0, [pc, #8]	; (10009aa4 <dcd_set_address+0x10>)
10009a9c:	f000 fa34 	bl	10009f08 <hw_endpoint_xfer_start>
10009aa0:	bd10      	pop	{r4, pc}
10009aa2:	46c0      	nop			; (mov r8, r8)
10009aa4:	2000124c 	.word	0x2000124c

10009aa8 <dcd_connect>:
10009aa8:	2280      	movs	r2, #128	; 0x80
10009aaa:	4b02      	ldr	r3, [pc, #8]	; (10009ab4 <dcd_connect+0xc>)
10009aac:	0252      	lsls	r2, r2, #9
10009aae:	64da      	str	r2, [r3, #76]	; 0x4c
10009ab0:	4770      	bx	lr
10009ab2:	46c0      	nop			; (mov r8, r8)
10009ab4:	50112000 	.word	0x50112000

10009ab8 <dcd_init>:
10009ab8:	b5f0      	push	{r4, r5, r6, r7, lr}
10009aba:	46c6      	mov	lr, r8
10009abc:	b500      	push	{lr}
10009abe:	0006      	movs	r6, r0
10009ac0:	f000 f9d4 	bl	10009e6c <rp2040_usb_init>
10009ac4:	230c      	movs	r3, #12
10009ac6:	4d35      	ldr	r5, [pc, #212]	; (10009b9c <dcd_init+0xe4>)
10009ac8:	2005      	movs	r0, #5
10009aca:	67ab      	str	r3, [r5, #120]	; 0x78
10009acc:	4934      	ldr	r1, [pc, #208]	; (10009ba0 <dcd_init+0xe8>)
10009ace:	f7fb fc91 	bl	100053f4 <irq_set_exclusive_handler>
10009ad2:	2340      	movs	r3, #64	; 0x40
10009ad4:	4698      	mov	r8, r3
10009ad6:	4c33      	ldr	r4, [pc, #204]	; (10009ba4 <dcd_init+0xec>)
10009ad8:	2240      	movs	r2, #64	; 0x40
10009ada:	2100      	movs	r1, #0
10009adc:	0020      	movs	r0, r4
10009ade:	f7ff facf 	bl	10009080 <__wrap_memset>
10009ae2:	4643      	mov	r3, r8
10009ae4:	2701      	movs	r7, #1
10009ae6:	83a3      	strh	r3, [r4, #28]
10009ae8:	2121      	movs	r1, #33	; 0x21
10009aea:	2300      	movs	r3, #0
10009aec:	4a2e      	ldr	r2, [pc, #184]	; (10009ba8 <dcd_init+0xf0>)
10009aee:	7067      	strb	r7, [r4, #1]
10009af0:	60a2      	str	r2, [r4, #8]
10009af2:	6013      	str	r3, [r2, #0]
10009af4:	5463      	strb	r3, [r4, r1]
10009af6:	315f      	adds	r1, #95	; 0x5f
10009af8:	8461      	strh	r1, [r4, #34]	; 0x22
10009afa:	4641      	mov	r1, r8
10009afc:	87a1      	strh	r1, [r4, #60]	; 0x3c
10009afe:	3902      	subs	r1, #2
10009b00:	5463      	strb	r3, [r4, r1]
10009b02:	4a2a      	ldr	r2, [pc, #168]	; (10009bac <dcd_init+0xf4>)
10009b04:	492a      	ldr	r1, [pc, #168]	; (10009bb0 <dcd_init+0xf8>)
10009b06:	6063      	str	r3, [r4, #4]
10009b08:	60e2      	str	r2, [r4, #12]
10009b0a:	62a1      	str	r1, [r4, #40]	; 0x28
10009b0c:	600b      	str	r3, [r1, #0]
10009b0e:	62e2      	str	r2, [r4, #44]	; 0x2c
10009b10:	4a28      	ldr	r2, [pc, #160]	; (10009bb4 <dcd_init+0xfc>)
10009b12:	6263      	str	r3, [r4, #36]	; 0x24
10009b14:	6093      	str	r3, [r2, #8]
10009b16:	60d3      	str	r3, [r2, #12]
10009b18:	4a27      	ldr	r2, [pc, #156]	; (10009bb8 <dcd_init+0x100>)
10009b1a:	0020      	movs	r0, r4
10009b1c:	6093      	str	r3, [r2, #8]
10009b1e:	60d3      	str	r3, [r2, #12]
10009b20:	4a26      	ldr	r2, [pc, #152]	; (10009bbc <dcd_init+0x104>)
10009b22:	2100      	movs	r1, #0
10009b24:	6093      	str	r3, [r2, #8]
10009b26:	60d3      	str	r3, [r2, #12]
10009b28:	4a25      	ldr	r2, [pc, #148]	; (10009bc0 <dcd_init+0x108>)
10009b2a:	3040      	adds	r0, #64	; 0x40
10009b2c:	6093      	str	r3, [r2, #8]
10009b2e:	60d3      	str	r3, [r2, #12]
10009b30:	4a24      	ldr	r2, [pc, #144]	; (10009bc4 <dcd_init+0x10c>)
10009b32:	6093      	str	r3, [r2, #8]
10009b34:	60d3      	str	r3, [r2, #12]
10009b36:	4a24      	ldr	r2, [pc, #144]	; (10009bc8 <dcd_init+0x110>)
10009b38:	6093      	str	r3, [r2, #8]
10009b3a:	60d3      	str	r3, [r2, #12]
10009b3c:	4a23      	ldr	r2, [pc, #140]	; (10009bcc <dcd_init+0x114>)
10009b3e:	6093      	str	r3, [r2, #8]
10009b40:	60d3      	str	r3, [r2, #12]
10009b42:	4a23      	ldr	r2, [pc, #140]	; (10009bd0 <dcd_init+0x118>)
10009b44:	6093      	str	r3, [r2, #8]
10009b46:	60d3      	str	r3, [r2, #12]
10009b48:	4a22      	ldr	r2, [pc, #136]	; (10009bd4 <dcd_init+0x11c>)
10009b4a:	6093      	str	r3, [r2, #8]
10009b4c:	60d3      	str	r3, [r2, #12]
10009b4e:	4a22      	ldr	r2, [pc, #136]	; (10009bd8 <dcd_init+0x120>)
10009b50:	6093      	str	r3, [r2, #8]
10009b52:	60d3      	str	r3, [r2, #12]
10009b54:	4a21      	ldr	r2, [pc, #132]	; (10009bdc <dcd_init+0x124>)
10009b56:	6093      	str	r3, [r2, #8]
10009b58:	60d3      	str	r3, [r2, #12]
10009b5a:	4a21      	ldr	r2, [pc, #132]	; (10009be0 <dcd_init+0x128>)
10009b5c:	6093      	str	r3, [r2, #8]
10009b5e:	60d3      	str	r3, [r2, #12]
10009b60:	4a20      	ldr	r2, [pc, #128]	; (10009be4 <dcd_init+0x12c>)
10009b62:	6093      	str	r3, [r2, #8]
10009b64:	60d3      	str	r3, [r2, #12]
10009b66:	4a20      	ldr	r2, [pc, #128]	; (10009be8 <dcd_init+0x130>)
10009b68:	6093      	str	r3, [r2, #8]
10009b6a:	60d3      	str	r3, [r2, #12]
10009b6c:	4a1f      	ldr	r2, [pc, #124]	; (10009bec <dcd_init+0x134>)
10009b6e:	6093      	str	r3, [r2, #8]
10009b70:	60d3      	str	r3, [r2, #12]
10009b72:	22f0      	movs	r2, #240	; 0xf0
10009b74:	0092      	lsls	r2, r2, #2
10009b76:	f7ff fa83 	bl	10009080 <__wrap_memset>
10009b7a:	4b1d      	ldr	r3, [pc, #116]	; (10009bf0 <dcd_init+0x138>)
10009b7c:	4a1d      	ldr	r2, [pc, #116]	; (10009bf4 <dcd_init+0x13c>)
10009b7e:	0030      	movs	r0, r6
10009b80:	601a      	str	r2, [r3, #0]
10009b82:	2380      	movs	r3, #128	; 0x80
10009b84:	059b      	lsls	r3, r3, #22
10009b86:	642f      	str	r7, [r5, #64]	; 0x40
10009b88:	64eb      	str	r3, [r5, #76]	; 0x4c
10009b8a:	2390      	movs	r3, #144	; 0x90
10009b8c:	4a1a      	ldr	r2, [pc, #104]	; (10009bf8 <dcd_init+0x140>)
10009b8e:	50ea      	str	r2, [r5, r3]
10009b90:	f7ff ff8a 	bl	10009aa8 <dcd_connect>
10009b94:	bc80      	pop	{r7}
10009b96:	46b8      	mov	r8, r7
10009b98:	bdf0      	pop	{r4, r5, r6, r7, pc}
10009b9a:	46c0      	nop			; (mov r8, r8)
10009b9c:	50110000 	.word	0x50110000
10009ba0:	1000986d 	.word	0x1000986d
10009ba4:	2000122c 	.word	0x2000122c
10009ba8:	50100084 	.word	0x50100084
10009bac:	50100100 	.word	0x50100100
10009bb0:	50100080 	.word	0x50100080
10009bb4:	50100000 	.word	0x50100000
10009bb8:	50100008 	.word	0x50100008
10009bbc:	50100010 	.word	0x50100010
10009bc0:	50100018 	.word	0x50100018
10009bc4:	50100020 	.word	0x50100020
10009bc8:	50100028 	.word	0x50100028
10009bcc:	50100030 	.word	0x50100030
10009bd0:	50100038 	.word	0x50100038
10009bd4:	50100040 	.word	0x50100040
10009bd8:	50100048 	.word	0x50100048
10009bdc:	50100050 	.word	0x50100050
10009be0:	50100058 	.word	0x50100058
10009be4:	50100060 	.word	0x50100060
10009be8:	50100068 	.word	0x50100068
10009bec:	50100070 	.word	0x50100070
10009bf0:	20001864 	.word	0x20001864
10009bf4:	50100180 	.word	0x50100180
10009bf8:	0001d010 	.word	0x0001d010

10009bfc <dcd_edpt0_status_complete>:
10009bfc:	780b      	ldrb	r3, [r1, #0]
10009bfe:	065b      	lsls	r3, r3, #25
10009c00:	d102      	bne.n	10009c08 <dcd_edpt0_status_complete+0xc>
10009c02:	784b      	ldrb	r3, [r1, #1]
10009c04:	2b05      	cmp	r3, #5
10009c06:	d000      	beq.n	10009c0a <dcd_edpt0_status_complete+0xe>
10009c08:	4770      	bx	lr
10009c0a:	788a      	ldrb	r2, [r1, #2]
10009c0c:	4b01      	ldr	r3, [pc, #4]	; (10009c14 <dcd_edpt0_status_complete+0x18>)
10009c0e:	601a      	str	r2, [r3, #0]
10009c10:	e7fa      	b.n	10009c08 <dcd_edpt0_status_complete+0xc>
10009c12:	46c0      	nop			; (mov r8, r8)
10009c14:	50110000 	.word	0x50110000

10009c18 <dcd_edpt_open>:
10009c18:	b5f0      	push	{r4, r5, r6, r7, lr}
10009c1a:	46ce      	mov	lr, r9
10009c1c:	4647      	mov	r7, r8
10009c1e:	2307      	movs	r3, #7
10009c20:	b580      	push	{r7, lr}
10009c22:	7948      	ldrb	r0, [r1, #5]
10009c24:	788e      	ldrb	r6, [r1, #2]
10009c26:	790a      	ldrb	r2, [r1, #4]
10009c28:	4003      	ands	r3, r0
10009c2a:	78c8      	ldrb	r0, [r1, #3]
10009c2c:	217f      	movs	r1, #127	; 0x7f
10009c2e:	0780      	lsls	r0, r0, #30
10009c30:	4031      	ands	r1, r6
10009c32:	021b      	lsls	r3, r3, #8
10009c34:	09f4      	lsrs	r4, r6, #7
10009c36:	4313      	orrs	r3, r2
10009c38:	004f      	lsls	r7, r1, #1
10009c3a:	0f82      	lsrs	r2, r0, #30
10009c3c:	4694      	mov	ip, r2
10009c3e:	4691      	mov	r9, r2
10009c40:	4d2a      	ldr	r5, [pc, #168]	; (10009cec <dcd_edpt_open+0xd4>)
10009c42:	193a      	adds	r2, r7, r4
10009c44:	0152      	lsls	r2, r2, #5
10009c46:	18aa      	adds	r2, r5, r2
10009c48:	7096      	strb	r6, [r2, #2]
10009c4a:	2601      	movs	r6, #1
10009c4c:	4066      	eors	r6, r4
10009c4e:	7056      	strb	r6, [r2, #1]
10009c50:	4660      	mov	r0, ip
10009c52:	2600      	movs	r6, #0
10009c54:	8393      	strh	r3, [r2, #28]
10009c56:	70d6      	strb	r6, [r2, #3]
10009c58:	7790      	strb	r0, [r2, #30]
10009c5a:	00ca      	lsls	r2, r1, #3
10009c5c:	2c01      	cmp	r4, #1
10009c5e:	d029      	beq.n	10009cb4 <dcd_edpt_open+0x9c>
10009c60:	4823      	ldr	r0, [pc, #140]	; (10009cf0 <dcd_edpt_open+0xd8>)
10009c62:	4684      	mov	ip, r0
10009c64:	0188      	lsls	r0, r1, #6
10009c66:	4462      	add	r2, ip
10009c68:	4684      	mov	ip, r0
10009c6a:	44ac      	add	ip, r5
10009c6c:	4660      	mov	r0, ip
10009c6e:	6082      	str	r2, [r0, #8]
10009c70:	6016      	str	r6, [r2, #0]
10009c72:	2900      	cmp	r1, #0
10009c74:	d029      	beq.n	10009cca <dcd_edpt_open+0xb2>
10009c76:	4a1f      	ldr	r2, [pc, #124]	; (10009cf4 <dcd_edpt_open+0xdc>)
10009c78:	00c9      	lsls	r1, r1, #3
10009c7a:	4690      	mov	r8, r2
10009c7c:	4441      	add	r1, r8
10009c7e:	6041      	str	r1, [r0, #4]
10009c80:	223f      	movs	r2, #63	; 0x3f
10009c82:	333f      	adds	r3, #63	; 0x3f
10009c84:	4393      	bics	r3, r2
10009c86:	464a      	mov	r2, r9
10009c88:	2a02      	cmp	r2, #2
10009c8a:	d100      	bne.n	10009c8e <dcd_edpt_open+0x76>
10009c8c:	005b      	lsls	r3, r3, #1
10009c8e:	491a      	ldr	r1, [pc, #104]	; (10009cf8 <dcd_edpt_open+0xe0>)
10009c90:	193f      	adds	r7, r7, r4
10009c92:	680a      	ldr	r2, [r1, #0]
10009c94:	017f      	lsls	r7, r7, #5
10009c96:	18d3      	adds	r3, r2, r3
10009c98:	600b      	str	r3, [r1, #0]
10009c9a:	4b18      	ldr	r3, [pc, #96]	; (10009cfc <dcd_edpt_open+0xe4>)
10009c9c:	19ed      	adds	r5, r5, r7
10009c9e:	4053      	eors	r3, r2
10009ca0:	60ea      	str	r2, [r5, #12]
10009ca2:	464a      	mov	r2, r9
10009ca4:	0690      	lsls	r0, r2, #26
10009ca6:	4318      	orrs	r0, r3
10009ca8:	2380      	movs	r3, #128	; 0x80
10009caa:	061b      	lsls	r3, r3, #24
10009cac:	4318      	orrs	r0, r3
10009cae:	686b      	ldr	r3, [r5, #4]
10009cb0:	6018      	str	r0, [r3, #0]
10009cb2:	e010      	b.n	10009cd6 <dcd_edpt_open+0xbe>
10009cb4:	4812      	ldr	r0, [pc, #72]	; (10009d00 <dcd_edpt_open+0xe8>)
10009cb6:	4684      	mov	ip, r0
10009cb8:	0188      	lsls	r0, r1, #6
10009cba:	4462      	add	r2, ip
10009cbc:	4684      	mov	ip, r0
10009cbe:	44ac      	add	ip, r5
10009cc0:	4660      	mov	r0, ip
10009cc2:	6282      	str	r2, [r0, #40]	; 0x28
10009cc4:	6016      	str	r6, [r2, #0]
10009cc6:	2900      	cmp	r1, #0
10009cc8:	d10a      	bne.n	10009ce0 <dcd_edpt_open+0xc8>
10009cca:	2300      	movs	r3, #0
10009ccc:	0164      	lsls	r4, r4, #5
10009cce:	192d      	adds	r5, r5, r4
10009cd0:	606b      	str	r3, [r5, #4]
10009cd2:	4b0c      	ldr	r3, [pc, #48]	; (10009d04 <dcd_edpt_open+0xec>)
10009cd4:	60eb      	str	r3, [r5, #12]
10009cd6:	2001      	movs	r0, #1
10009cd8:	bcc0      	pop	{r6, r7}
10009cda:	46b9      	mov	r9, r7
10009cdc:	46b0      	mov	r8, r6
10009cde:	bdf0      	pop	{r4, r5, r6, r7, pc}
10009ce0:	4a06      	ldr	r2, [pc, #24]	; (10009cfc <dcd_edpt_open+0xe4>)
10009ce2:	00c9      	lsls	r1, r1, #3
10009ce4:	4690      	mov	r8, r2
10009ce6:	4441      	add	r1, r8
10009ce8:	6241      	str	r1, [r0, #36]	; 0x24
10009cea:	e7c9      	b.n	10009c80 <dcd_edpt_open+0x68>
10009cec:	2000122c 	.word	0x2000122c
10009cf0:	50100084 	.word	0x50100084
10009cf4:	50100004 	.word	0x50100004
10009cf8:	20001864 	.word	0x20001864
10009cfc:	50100000 	.word	0x50100000
10009d00:	50100080 	.word	0x50100080
10009d04:	50100100 	.word	0x50100100

10009d08 <dcd_edpt_close_all>:
10009d08:	2300      	movs	r3, #0
10009d0a:	4a1c      	ldr	r2, [pc, #112]	; (10009d7c <dcd_edpt_close_all+0x74>)
10009d0c:	b510      	push	{r4, lr}
10009d0e:	6093      	str	r3, [r2, #8]
10009d10:	60d3      	str	r3, [r2, #12]
10009d12:	4a1b      	ldr	r2, [pc, #108]	; (10009d80 <dcd_edpt_close_all+0x78>)
10009d14:	2100      	movs	r1, #0
10009d16:	6093      	str	r3, [r2, #8]
10009d18:	60d3      	str	r3, [r2, #12]
10009d1a:	4a1a      	ldr	r2, [pc, #104]	; (10009d84 <dcd_edpt_close_all+0x7c>)
10009d1c:	481a      	ldr	r0, [pc, #104]	; (10009d88 <dcd_edpt_close_all+0x80>)
10009d1e:	6093      	str	r3, [r2, #8]
10009d20:	60d3      	str	r3, [r2, #12]
10009d22:	4a1a      	ldr	r2, [pc, #104]	; (10009d8c <dcd_edpt_close_all+0x84>)
10009d24:	6093      	str	r3, [r2, #8]
10009d26:	60d3      	str	r3, [r2, #12]
10009d28:	4a19      	ldr	r2, [pc, #100]	; (10009d90 <dcd_edpt_close_all+0x88>)
10009d2a:	6093      	str	r3, [r2, #8]
10009d2c:	60d3      	str	r3, [r2, #12]
10009d2e:	4a19      	ldr	r2, [pc, #100]	; (10009d94 <dcd_edpt_close_all+0x8c>)
10009d30:	6093      	str	r3, [r2, #8]
10009d32:	60d3      	str	r3, [r2, #12]
10009d34:	4a18      	ldr	r2, [pc, #96]	; (10009d98 <dcd_edpt_close_all+0x90>)
10009d36:	6093      	str	r3, [r2, #8]
10009d38:	60d3      	str	r3, [r2, #12]
10009d3a:	4a18      	ldr	r2, [pc, #96]	; (10009d9c <dcd_edpt_close_all+0x94>)
10009d3c:	6093      	str	r3, [r2, #8]
10009d3e:	60d3      	str	r3, [r2, #12]
10009d40:	4a17      	ldr	r2, [pc, #92]	; (10009da0 <dcd_edpt_close_all+0x98>)
10009d42:	6093      	str	r3, [r2, #8]
10009d44:	60d3      	str	r3, [r2, #12]
10009d46:	4a17      	ldr	r2, [pc, #92]	; (10009da4 <dcd_edpt_close_all+0x9c>)
10009d48:	6093      	str	r3, [r2, #8]
10009d4a:	60d3      	str	r3, [r2, #12]
10009d4c:	4a16      	ldr	r2, [pc, #88]	; (10009da8 <dcd_edpt_close_all+0xa0>)
10009d4e:	6093      	str	r3, [r2, #8]
10009d50:	60d3      	str	r3, [r2, #12]
10009d52:	4a16      	ldr	r2, [pc, #88]	; (10009dac <dcd_edpt_close_all+0xa4>)
10009d54:	6093      	str	r3, [r2, #8]
10009d56:	60d3      	str	r3, [r2, #12]
10009d58:	4a15      	ldr	r2, [pc, #84]	; (10009db0 <dcd_edpt_close_all+0xa8>)
10009d5a:	6093      	str	r3, [r2, #8]
10009d5c:	60d3      	str	r3, [r2, #12]
10009d5e:	4a15      	ldr	r2, [pc, #84]	; (10009db4 <dcd_edpt_close_all+0xac>)
10009d60:	6093      	str	r3, [r2, #8]
10009d62:	60d3      	str	r3, [r2, #12]
10009d64:	4a14      	ldr	r2, [pc, #80]	; (10009db8 <dcd_edpt_close_all+0xb0>)
10009d66:	6093      	str	r3, [r2, #8]
10009d68:	60d3      	str	r3, [r2, #12]
10009d6a:	22f0      	movs	r2, #240	; 0xf0
10009d6c:	0092      	lsls	r2, r2, #2
10009d6e:	f7ff f987 	bl	10009080 <__wrap_memset>
10009d72:	4b12      	ldr	r3, [pc, #72]	; (10009dbc <dcd_edpt_close_all+0xb4>)
10009d74:	4a12      	ldr	r2, [pc, #72]	; (10009dc0 <dcd_edpt_close_all+0xb8>)
10009d76:	601a      	str	r2, [r3, #0]
10009d78:	bd10      	pop	{r4, pc}
10009d7a:	46c0      	nop			; (mov r8, r8)
10009d7c:	50100000 	.word	0x50100000
10009d80:	50100008 	.word	0x50100008
10009d84:	50100010 	.word	0x50100010
10009d88:	2000126c 	.word	0x2000126c
10009d8c:	50100018 	.word	0x50100018
10009d90:	50100020 	.word	0x50100020
10009d94:	50100028 	.word	0x50100028
10009d98:	50100030 	.word	0x50100030
10009d9c:	50100038 	.word	0x50100038
10009da0:	50100040 	.word	0x50100040
10009da4:	50100048 	.word	0x50100048
10009da8:	50100050 	.word	0x50100050
10009dac:	50100058 	.word	0x50100058
10009db0:	50100060 	.word	0x50100060
10009db4:	50100068 	.word	0x50100068
10009db8:	50100070 	.word	0x50100070
10009dbc:	20001864 	.word	0x20001864
10009dc0:	50100180 	.word	0x50100180

10009dc4 <dcd_edpt_xfer>:
10009dc4:	b510      	push	{r4, lr}
10009dc6:	207f      	movs	r0, #127	; 0x7f
10009dc8:	000c      	movs	r4, r1
10009dca:	4020      	ands	r0, r4
10009dcc:	0040      	lsls	r0, r0, #1
10009dce:	09e4      	lsrs	r4, r4, #7
10009dd0:	0011      	movs	r1, r2
10009dd2:	1900      	adds	r0, r0, r4
10009dd4:	001a      	movs	r2, r3
10009dd6:	4b03      	ldr	r3, [pc, #12]	; (10009de4 <dcd_edpt_xfer+0x20>)
10009dd8:	0140      	lsls	r0, r0, #5
10009dda:	18c0      	adds	r0, r0, r3
10009ddc:	f000 f894 	bl	10009f08 <hw_endpoint_xfer_start>
10009de0:	2001      	movs	r0, #1
10009de2:	bd10      	pop	{r4, pc}
10009de4:	2000122c 	.word	0x2000122c

10009de8 <dcd_edpt_stall>:
10009de8:	227f      	movs	r2, #127	; 0x7f
10009dea:	0013      	movs	r3, r2
10009dec:	b510      	push	{r4, lr}
10009dee:	400b      	ands	r3, r1
10009df0:	420a      	tst	r2, r1
10009df2:	d00b      	beq.n	10009e0c <dcd_edpt_stall+0x24>
10009df4:	09c9      	lsrs	r1, r1, #7
10009df6:	2280      	movs	r2, #128	; 0x80
10009df8:	0058      	lsls	r0, r3, #1
10009dfa:	1840      	adds	r0, r0, r1
10009dfc:	4906      	ldr	r1, [pc, #24]	; (10009e18 <dcd_edpt_stall+0x30>)
10009dfe:	0140      	lsls	r0, r0, #5
10009e00:	1840      	adds	r0, r0, r1
10009e02:	0112      	lsls	r2, r2, #4
10009e04:	2100      	movs	r1, #0
10009e06:	f000 f85d 	bl	10009ec4 <_hw_endpoint_buffer_control_update32>
10009e0a:	bd10      	pop	{r4, pc}
10009e0c:	2202      	movs	r2, #2
10009e0e:	4803      	ldr	r0, [pc, #12]	; (10009e1c <dcd_edpt_stall+0x34>)
10009e10:	09c9      	lsrs	r1, r1, #7
10009e12:	1a52      	subs	r2, r2, r1
10009e14:	6682      	str	r2, [r0, #104]	; 0x68
10009e16:	e7ee      	b.n	10009df6 <dcd_edpt_stall+0xe>
10009e18:	2000122c 	.word	0x2000122c
10009e1c:	50112000 	.word	0x50112000

10009e20 <dcd_edpt_clear_stall>:
10009e20:	227f      	movs	r2, #127	; 0x7f
10009e22:	0010      	movs	r0, r2
10009e24:	b510      	push	{r4, lr}
10009e26:	4008      	ands	r0, r1
10009e28:	420a      	tst	r2, r1
10009e2a:	d100      	bne.n	10009e2e <dcd_edpt_clear_stall+0xe>
10009e2c:	bd10      	pop	{r4, pc}
10009e2e:	2300      	movs	r3, #0
10009e30:	09c9      	lsrs	r1, r1, #7
10009e32:	0040      	lsls	r0, r0, #1
10009e34:	1840      	adds	r0, r0, r1
10009e36:	4904      	ldr	r1, [pc, #16]	; (10009e48 <dcd_edpt_clear_stall+0x28>)
10009e38:	0140      	lsls	r0, r0, #5
10009e3a:	1808      	adds	r0, r1, r0
10009e3c:	2200      	movs	r2, #0
10009e3e:	4903      	ldr	r1, [pc, #12]	; (10009e4c <dcd_edpt_clear_stall+0x2c>)
10009e40:	70c3      	strb	r3, [r0, #3]
10009e42:	f000 f83f 	bl	10009ec4 <_hw_endpoint_buffer_control_update32>
10009e46:	e7f1      	b.n	10009e2c <dcd_edpt_clear_stall+0xc>
10009e48:	2000122c 	.word	0x2000122c
10009e4c:	fffff7ff 	.word	0xfffff7ff

10009e50 <_hw_endpoint_buffer_control_update32.part.0.isra.0>:
10009e50:	217f      	movs	r1, #127	; 0x7f
10009e52:	09c3      	lsrs	r3, r0, #7
10009e54:	4a03      	ldr	r2, [pc, #12]	; (10009e64 <_hw_endpoint_buffer_control_update32.part.0.isra.0+0x14>)
10009e56:	009b      	lsls	r3, r3, #2
10009e58:	4001      	ands	r1, r0
10009e5a:	b510      	push	{r4, lr}
10009e5c:	589a      	ldr	r2, [r3, r2]
10009e5e:	4802      	ldr	r0, [pc, #8]	; (10009e68 <_hw_endpoint_buffer_control_update32.part.0.isra.0+0x18>)
10009e60:	f7fc fed0 	bl	10006c04 <panic>
10009e64:	200004b4 	.word	0x200004b4
10009e68:	1000d614 	.word	0x1000d614

10009e6c <rp2040_usb_init>:
10009e6c:	2280      	movs	r2, #128	; 0x80
10009e6e:	4b0d      	ldr	r3, [pc, #52]	; (10009ea4 <rp2040_usb_init+0x38>)
10009e70:	0452      	lsls	r2, r2, #17
10009e72:	b510      	push	{r4, lr}
10009e74:	601a      	str	r2, [r3, #0]
10009e76:	4b0c      	ldr	r3, [pc, #48]	; (10009ea8 <rp2040_usb_init+0x3c>)
10009e78:	490c      	ldr	r1, [pc, #48]	; (10009eac <rp2040_usb_init+0x40>)
10009e7a:	601a      	str	r2, [r3, #0]
10009e7c:	0010      	movs	r0, r2
10009e7e:	688b      	ldr	r3, [r1, #8]
10009e80:	4398      	bics	r0, r3
10009e82:	d1fb      	bne.n	10009e7c <rp2040_usb_init+0x10>
10009e84:	4c0a      	ldr	r4, [pc, #40]	; (10009eb0 <rp2040_usb_init+0x44>)
10009e86:	229c      	movs	r2, #156	; 0x9c
10009e88:	2100      	movs	r1, #0
10009e8a:	0020      	movs	r0, r4
10009e8c:	f7ff f8f8 	bl	10009080 <__wrap_memset>
10009e90:	2280      	movs	r2, #128	; 0x80
10009e92:	2100      	movs	r1, #0
10009e94:	0152      	lsls	r2, r2, #5
10009e96:	4807      	ldr	r0, [pc, #28]	; (10009eb4 <rp2040_usb_init+0x48>)
10009e98:	f7ff f8f2 	bl	10009080 <__wrap_memset>
10009e9c:	2309      	movs	r3, #9
10009e9e:	6763      	str	r3, [r4, #116]	; 0x74
10009ea0:	bd10      	pop	{r4, pc}
10009ea2:	46c0      	nop			; (mov r8, r8)
10009ea4:	4000e000 	.word	0x4000e000
10009ea8:	4000f000 	.word	0x4000f000
10009eac:	4000c000 	.word	0x4000c000
10009eb0:	50110000 	.word	0x50110000
10009eb4:	50100000 	.word	0x50100000

10009eb8 <hw_endpoint_reset_transfer>:
10009eb8:	2300      	movs	r3, #0
10009eba:	7403      	strb	r3, [r0, #16]
10009ebc:	8243      	strh	r3, [r0, #18]
10009ebe:	8283      	strh	r3, [r0, #20]
10009ec0:	6183      	str	r3, [r0, #24]
10009ec2:	4770      	bx	lr

10009ec4 <_hw_endpoint_buffer_control_update32>:
10009ec4:	b510      	push	{r4, lr}
10009ec6:	6883      	ldr	r3, [r0, #8]
10009ec8:	2900      	cmp	r1, #0
10009eca:	d001      	beq.n	10009ed0 <_hw_endpoint_buffer_control_update32+0xc>
10009ecc:	681c      	ldr	r4, [r3, #0]
10009ece:	4021      	ands	r1, r4
10009ed0:	2a00      	cmp	r2, #0
10009ed2:	d011      	beq.n	10009ef8 <_hw_endpoint_buffer_control_update32+0x34>
10009ed4:	2480      	movs	r4, #128	; 0x80
10009ed6:	00e4      	lsls	r4, r4, #3
10009ed8:	4311      	orrs	r1, r2
10009eda:	4222      	tst	r2, r4
10009edc:	d00c      	beq.n	10009ef8 <_hw_endpoint_buffer_control_update32+0x34>
10009ede:	681a      	ldr	r2, [r3, #0]
10009ee0:	4222      	tst	r2, r4
10009ee2:	d10b      	bne.n	10009efc <_hw_endpoint_buffer_control_update32+0x38>
10009ee4:	4a07      	ldr	r2, [pc, #28]	; (10009f04 <_hw_endpoint_buffer_control_update32+0x40>)
10009ee6:	400a      	ands	r2, r1
10009ee8:	601a      	str	r2, [r3, #0]
10009eea:	e7ff      	b.n	10009eec <_hw_endpoint_buffer_control_update32+0x28>
10009eec:	e7ff      	b.n	10009eee <_hw_endpoint_buffer_control_update32+0x2a>
10009eee:	e7ff      	b.n	10009ef0 <_hw_endpoint_buffer_control_update32+0x2c>
10009ef0:	e7ff      	b.n	10009ef2 <_hw_endpoint_buffer_control_update32+0x2e>
10009ef2:	e7ff      	b.n	10009ef4 <_hw_endpoint_buffer_control_update32+0x30>
10009ef4:	e7ff      	b.n	10009ef6 <_hw_endpoint_buffer_control_update32+0x32>
10009ef6:	6883      	ldr	r3, [r0, #8]
10009ef8:	6019      	str	r1, [r3, #0]
10009efa:	bd10      	pop	{r4, pc}
10009efc:	7880      	ldrb	r0, [r0, #2]
10009efe:	f7ff ffa7 	bl	10009e50 <_hw_endpoint_buffer_control_update32.part.0.isra.0>
10009f02:	46c0      	nop			; (mov r8, r8)
10009f04:	fffffbff 	.word	0xfffffbff

10009f08 <hw_endpoint_xfer_start>:
10009f08:	b5f0      	push	{r4, r5, r6, r7, lr}
10009f0a:	46c6      	mov	lr, r8
10009f0c:	2300      	movs	r3, #0
10009f0e:	b500      	push	{lr}
10009f10:	8283      	strh	r3, [r0, #20]
10009f12:	3301      	adds	r3, #1
10009f14:	7403      	strb	r3, [r0, #16]
10009f16:	6843      	ldr	r3, [r0, #4]
10009f18:	0004      	movs	r4, r0
10009f1a:	681e      	ldr	r6, [r3, #0]
10009f1c:	8b83      	ldrh	r3, [r0, #28]
10009f1e:	6181      	str	r1, [r0, #24]
10009f20:	1c1f      	adds	r7, r3, #0
10009f22:	4293      	cmp	r3, r2
10009f24:	d900      	bls.n	10009f28 <hw_endpoint_xfer_start+0x20>
10009f26:	1c17      	adds	r7, r2, #0
10009f28:	2580      	movs	r5, #128	; 0x80
10009f2a:	b2bf      	uxth	r7, r7
10009f2c:	1bd2      	subs	r2, r2, r7
10009f2e:	b293      	uxth	r3, r2
10009f30:	78e2      	ldrb	r2, [r4, #3]
10009f32:	00ed      	lsls	r5, r5, #3
10009f34:	8263      	strh	r3, [r4, #18]
10009f36:	433d      	orrs	r5, r7
10009f38:	2a00      	cmp	r2, #0
10009f3a:	d002      	beq.n	10009f42 <hw_endpoint_xfer_start+0x3a>
10009f3c:	2590      	movs	r5, #144	; 0x90
10009f3e:	01ad      	lsls	r5, r5, #6
10009f40:	433d      	orrs	r5, r7
10009f42:	2001      	movs	r0, #1
10009f44:	4042      	eors	r2, r0
10009f46:	70e2      	strb	r2, [r4, #3]
10009f48:	7862      	ldrb	r2, [r4, #1]
10009f4a:	2a00      	cmp	r2, #0
10009f4c:	d051      	beq.n	10009ff2 <hw_endpoint_xfer_start+0xea>
10009f4e:	2b00      	cmp	r3, #0
10009f50:	d11d      	bne.n	10009f8e <hw_endpoint_xfer_start+0x86>
10009f52:	23a0      	movs	r3, #160	; 0xa0
10009f54:	01db      	lsls	r3, r3, #7
10009f56:	431d      	orrs	r5, r3
10009f58:	4b35      	ldr	r3, [pc, #212]	; (1000a030 <hw_endpoint_xfer_start+0x128>)
10009f5a:	6c1b      	ldr	r3, [r3, #64]	; 0x40
10009f5c:	4b35      	ldr	r3, [pc, #212]	; (1000a034 <hw_endpoint_xfer_start+0x12c>)
10009f5e:	4033      	ands	r3, r6
10009f60:	2680      	movs	r6, #128	; 0x80
10009f62:	05b6      	lsls	r6, r6, #22
10009f64:	431e      	orrs	r6, r3
10009f66:	6863      	ldr	r3, [r4, #4]
10009f68:	68a2      	ldr	r2, [r4, #8]
10009f6a:	601e      	str	r6, [r3, #0]
10009f6c:	6813      	ldr	r3, [r2, #0]
10009f6e:	055b      	lsls	r3, r3, #21
10009f70:	d45a      	bmi.n	1000a028 <hw_endpoint_xfer_start+0x120>
10009f72:	4b31      	ldr	r3, [pc, #196]	; (1000a038 <hw_endpoint_xfer_start+0x130>)
10009f74:	402b      	ands	r3, r5
10009f76:	6013      	str	r3, [r2, #0]
10009f78:	e7ff      	b.n	10009f7a <hw_endpoint_xfer_start+0x72>
10009f7a:	e7ff      	b.n	10009f7c <hw_endpoint_xfer_start+0x74>
10009f7c:	e7ff      	b.n	10009f7e <hw_endpoint_xfer_start+0x76>
10009f7e:	e7ff      	b.n	10009f80 <hw_endpoint_xfer_start+0x78>
10009f80:	e7ff      	b.n	10009f82 <hw_endpoint_xfer_start+0x7a>
10009f82:	e7ff      	b.n	10009f84 <hw_endpoint_xfer_start+0x7c>
10009f84:	68a3      	ldr	r3, [r4, #8]
10009f86:	601d      	str	r5, [r3, #0]
10009f88:	bc80      	pop	{r7}
10009f8a:	46b8      	mov	r8, r7
10009f8c:	bdf0      	pop	{r4, r5, r6, r7, pc}
10009f8e:	2280      	movs	r2, #128	; 0x80
10009f90:	0152      	lsls	r2, r2, #5
10009f92:	4315      	orrs	r5, r2
10009f94:	4a26      	ldr	r2, [pc, #152]	; (1000a030 <hw_endpoint_xfer_start+0x128>)
10009f96:	6c12      	ldr	r2, [r2, #64]	; 0x40
10009f98:	0792      	lsls	r2, r2, #30
10009f9a:	d403      	bmi.n	10009fa4 <hw_endpoint_xfer_start+0x9c>
10009f9c:	78a2      	ldrb	r2, [r4, #2]
10009f9e:	09d2      	lsrs	r2, r2, #7
10009fa0:	2a01      	cmp	r2, #1
10009fa2:	d1db      	bne.n	10009f5c <hw_endpoint_xfer_start+0x54>
10009fa4:	8ba2      	ldrh	r2, [r4, #28]
10009fa6:	1c11      	adds	r1, r2, #0
10009fa8:	429a      	cmp	r2, r3
10009faa:	d900      	bls.n	10009fae <hw_endpoint_xfer_start+0xa6>
10009fac:	1c19      	adds	r1, r3, #0
10009fae:	2780      	movs	r7, #128	; 0x80
10009fb0:	b28a      	uxth	r2, r1
10009fb2:	00ff      	lsls	r7, r7, #3
10009fb4:	1a9b      	subs	r3, r3, r2
10009fb6:	4690      	mov	r8, r2
10009fb8:	4317      	orrs	r7, r2
10009fba:	78e2      	ldrb	r2, [r4, #3]
10009fbc:	b29b      	uxth	r3, r3
10009fbe:	8263      	strh	r3, [r4, #18]
10009fc0:	2a00      	cmp	r2, #0
10009fc2:	d003      	beq.n	10009fcc <hw_endpoint_xfer_start+0xc4>
10009fc4:	2790      	movs	r7, #144	; 0x90
10009fc6:	4641      	mov	r1, r8
10009fc8:	01bf      	lsls	r7, r7, #6
10009fca:	430f      	orrs	r7, r1
10009fcc:	2101      	movs	r1, #1
10009fce:	404a      	eors	r2, r1
10009fd0:	70e2      	strb	r2, [r4, #3]
10009fd2:	7862      	ldrb	r2, [r4, #1]
10009fd4:	2a00      	cmp	r2, #0
10009fd6:	d019      	beq.n	1000a00c <hw_endpoint_xfer_start+0x104>
10009fd8:	2b00      	cmp	r3, #0
10009fda:	d102      	bne.n	10009fe2 <hw_endpoint_xfer_start+0xda>
10009fdc:	2380      	movs	r3, #128	; 0x80
10009fde:	01db      	lsls	r3, r3, #7
10009fe0:	431f      	orrs	r7, r3
10009fe2:	4b16      	ldr	r3, [pc, #88]	; (1000a03c <hw_endpoint_xfer_start+0x134>)
10009fe4:	043f      	lsls	r7, r7, #16
10009fe6:	4033      	ands	r3, r6
10009fe8:	26a0      	movs	r6, #160	; 0xa0
10009fea:	05f6      	lsls	r6, r6, #23
10009fec:	433d      	orrs	r5, r7
10009fee:	431e      	orrs	r6, r3
10009ff0:	e7b9      	b.n	10009f66 <hw_endpoint_xfer_start+0x5e>
10009ff2:	003a      	movs	r2, r7
10009ff4:	68e0      	ldr	r0, [r4, #12]
10009ff6:	f7ff f849 	bl	1000908c <__wrap___aeabi_memcpy>
10009ffa:	69a3      	ldr	r3, [r4, #24]
10009ffc:	469c      	mov	ip, r3
10009ffe:	2380      	movs	r3, #128	; 0x80
1000a000:	4467      	add	r7, ip
1000a002:	021b      	lsls	r3, r3, #8
1000a004:	431d      	orrs	r5, r3
1000a006:	61a7      	str	r7, [r4, #24]
1000a008:	8a63      	ldrh	r3, [r4, #18]
1000a00a:	e7a0      	b.n	10009f4e <hw_endpoint_xfer_start+0x46>
1000a00c:	68e0      	ldr	r0, [r4, #12]
1000a00e:	4642      	mov	r2, r8
1000a010:	69a1      	ldr	r1, [r4, #24]
1000a012:	3040      	adds	r0, #64	; 0x40
1000a014:	f7ff f83a 	bl	1000908c <__wrap___aeabi_memcpy>
1000a018:	69a3      	ldr	r3, [r4, #24]
1000a01a:	4443      	add	r3, r8
1000a01c:	61a3      	str	r3, [r4, #24]
1000a01e:	2380      	movs	r3, #128	; 0x80
1000a020:	021b      	lsls	r3, r3, #8
1000a022:	431f      	orrs	r7, r3
1000a024:	8a63      	ldrh	r3, [r4, #18]
1000a026:	e7d7      	b.n	10009fd8 <hw_endpoint_xfer_start+0xd0>
1000a028:	78a0      	ldrb	r0, [r4, #2]
1000a02a:	f7ff ff11 	bl	10009e50 <_hw_endpoint_buffer_control_update32.part.0.isra.0>
1000a02e:	46c0      	nop			; (mov r8, r8)
1000a030:	50110000 	.word	0x50110000
1000a034:	afffffff 	.word	0xafffffff
1000a038:	fffffbff 	.word	0xfffffbff
1000a03c:	dfffffff 	.word	0xdfffffff

1000a040 <hw_endpoint_xfer_continue>:
1000a040:	b5f0      	push	{r4, r5, r6, r7, lr}
1000a042:	46c6      	mov	lr, r8
1000a044:	b500      	push	{lr}
1000a046:	7c06      	ldrb	r6, [r0, #16]
1000a048:	0004      	movs	r4, r0
1000a04a:	2e00      	cmp	r6, #0
1000a04c:	d100      	bne.n	1000a050 <hw_endpoint_xfer_continue+0x10>
1000a04e:	e0d3      	b.n	1000a1f8 <hw_endpoint_xfer_continue+0x1b8>
1000a050:	6883      	ldr	r3, [r0, #8]
1000a052:	681a      	ldr	r2, [r3, #0]
1000a054:	681d      	ldr	r5, [r3, #0]
1000a056:	7843      	ldrb	r3, [r0, #1]
1000a058:	05ad      	lsls	r5, r5, #22
1000a05a:	0dad      	lsrs	r5, r5, #22
1000a05c:	2b00      	cmp	r3, #0
1000a05e:	d151      	bne.n	1000a104 <hw_endpoint_xfer_continue+0xc4>
1000a060:	8a83      	ldrh	r3, [r0, #20]
1000a062:	18eb      	adds	r3, r5, r3
1000a064:	b29b      	uxth	r3, r3
1000a066:	8283      	strh	r3, [r0, #20]
1000a068:	8ba1      	ldrh	r1, [r4, #28]
1000a06a:	428d      	cmp	r5, r1
1000a06c:	d207      	bcs.n	1000a07e <hw_endpoint_xfer_continue+0x3e>
1000a06e:	2300      	movs	r3, #0
1000a070:	8263      	strh	r3, [r4, #18]
1000a072:	6863      	ldr	r3, [r4, #4]
1000a074:	681b      	ldr	r3, [r3, #0]
1000a076:	0030      	movs	r0, r6
1000a078:	bc80      	pop	{r7}
1000a07a:	46b8      	mov	r8, r7
1000a07c:	bdf0      	pop	{r4, r5, r6, r7, pc}
1000a07e:	6862      	ldr	r2, [r4, #4]
1000a080:	6812      	ldr	r2, [r2, #0]
1000a082:	0052      	lsls	r2, r2, #1
1000a084:	d502      	bpl.n	1000a08c <hw_endpoint_xfer_continue+0x4c>
1000a086:	428d      	cmp	r5, r1
1000a088:	d100      	bne.n	1000a08c <hw_endpoint_xfer_continue+0x4c>
1000a08a:	e075      	b.n	1000a178 <hw_endpoint_xfer_continue+0x138>
1000a08c:	8a63      	ldrh	r3, [r4, #18]
1000a08e:	2b00      	cmp	r3, #0
1000a090:	d0f1      	beq.n	1000a076 <hw_endpoint_xfer_continue+0x36>
1000a092:	6862      	ldr	r2, [r4, #4]
1000a094:	1c1f      	adds	r7, r3, #0
1000a096:	6816      	ldr	r6, [r2, #0]
1000a098:	428b      	cmp	r3, r1
1000a09a:	d900      	bls.n	1000a09e <hw_endpoint_xfer_continue+0x5e>
1000a09c:	1c0f      	adds	r7, r1, #0
1000a09e:	2580      	movs	r5, #128	; 0x80
1000a0a0:	b2bf      	uxth	r7, r7
1000a0a2:	1bdb      	subs	r3, r3, r7
1000a0a4:	78e2      	ldrb	r2, [r4, #3]
1000a0a6:	b29b      	uxth	r3, r3
1000a0a8:	00ed      	lsls	r5, r5, #3
1000a0aa:	8263      	strh	r3, [r4, #18]
1000a0ac:	433d      	orrs	r5, r7
1000a0ae:	2a00      	cmp	r2, #0
1000a0b0:	d002      	beq.n	1000a0b8 <hw_endpoint_xfer_continue+0x78>
1000a0b2:	2590      	movs	r5, #144	; 0x90
1000a0b4:	01ad      	lsls	r5, r5, #6
1000a0b6:	433d      	orrs	r5, r7
1000a0b8:	2101      	movs	r1, #1
1000a0ba:	404a      	eors	r2, r1
1000a0bc:	70e2      	strb	r2, [r4, #3]
1000a0be:	7862      	ldrb	r2, [r4, #1]
1000a0c0:	2a00      	cmp	r2, #0
1000a0c2:	d068      	beq.n	1000a196 <hw_endpoint_xfer_continue+0x156>
1000a0c4:	2b00      	cmp	r3, #0
1000a0c6:	d12a      	bne.n	1000a11e <hw_endpoint_xfer_continue+0xde>
1000a0c8:	23a0      	movs	r3, #160	; 0xa0
1000a0ca:	01db      	lsls	r3, r3, #7
1000a0cc:	431d      	orrs	r5, r3
1000a0ce:	4b4f      	ldr	r3, [pc, #316]	; (1000a20c <hw_endpoint_xfer_continue+0x1cc>)
1000a0d0:	6c1b      	ldr	r3, [r3, #64]	; 0x40
1000a0d2:	4b4f      	ldr	r3, [pc, #316]	; (1000a210 <hw_endpoint_xfer_continue+0x1d0>)
1000a0d4:	4033      	ands	r3, r6
1000a0d6:	2680      	movs	r6, #128	; 0x80
1000a0d8:	05b6      	lsls	r6, r6, #22
1000a0da:	431e      	orrs	r6, r3
1000a0dc:	6863      	ldr	r3, [r4, #4]
1000a0de:	68a2      	ldr	r2, [r4, #8]
1000a0e0:	601e      	str	r6, [r3, #0]
1000a0e2:	6813      	ldr	r3, [r2, #0]
1000a0e4:	055b      	lsls	r3, r3, #21
1000a0e6:	d500      	bpl.n	1000a0ea <hw_endpoint_xfer_continue+0xaa>
1000a0e8:	e08d      	b.n	1000a206 <hw_endpoint_xfer_continue+0x1c6>
1000a0ea:	4b4a      	ldr	r3, [pc, #296]	; (1000a214 <hw_endpoint_xfer_continue+0x1d4>)
1000a0ec:	402b      	ands	r3, r5
1000a0ee:	6013      	str	r3, [r2, #0]
1000a0f0:	e7ff      	b.n	1000a0f2 <hw_endpoint_xfer_continue+0xb2>
1000a0f2:	e7ff      	b.n	1000a0f4 <hw_endpoint_xfer_continue+0xb4>
1000a0f4:	e7ff      	b.n	1000a0f6 <hw_endpoint_xfer_continue+0xb6>
1000a0f6:	e7ff      	b.n	1000a0f8 <hw_endpoint_xfer_continue+0xb8>
1000a0f8:	e7ff      	b.n	1000a0fa <hw_endpoint_xfer_continue+0xba>
1000a0fa:	e7ff      	b.n	1000a0fc <hw_endpoint_xfer_continue+0xbc>
1000a0fc:	68a3      	ldr	r3, [r4, #8]
1000a0fe:	2600      	movs	r6, #0
1000a100:	601d      	str	r5, [r3, #0]
1000a102:	e7b8      	b.n	1000a076 <hw_endpoint_xfer_continue+0x36>
1000a104:	002a      	movs	r2, r5
1000a106:	68c1      	ldr	r1, [r0, #12]
1000a108:	6980      	ldr	r0, [r0, #24]
1000a10a:	f7fe ffbf 	bl	1000908c <__wrap___aeabi_memcpy>
1000a10e:	8aa3      	ldrh	r3, [r4, #20]
1000a110:	69a2      	ldr	r2, [r4, #24]
1000a112:	18eb      	adds	r3, r5, r3
1000a114:	b29b      	uxth	r3, r3
1000a116:	1952      	adds	r2, r2, r5
1000a118:	82a3      	strh	r3, [r4, #20]
1000a11a:	61a2      	str	r2, [r4, #24]
1000a11c:	e7a4      	b.n	1000a068 <hw_endpoint_xfer_continue+0x28>
1000a11e:	2280      	movs	r2, #128	; 0x80
1000a120:	0152      	lsls	r2, r2, #5
1000a122:	4315      	orrs	r5, r2
1000a124:	4a39      	ldr	r2, [pc, #228]	; (1000a20c <hw_endpoint_xfer_continue+0x1cc>)
1000a126:	6c12      	ldr	r2, [r2, #64]	; 0x40
1000a128:	0792      	lsls	r2, r2, #30
1000a12a:	d403      	bmi.n	1000a134 <hw_endpoint_xfer_continue+0xf4>
1000a12c:	78a2      	ldrb	r2, [r4, #2]
1000a12e:	09d2      	lsrs	r2, r2, #7
1000a130:	2a01      	cmp	r2, #1
1000a132:	d1ce      	bne.n	1000a0d2 <hw_endpoint_xfer_continue+0x92>
1000a134:	8ba2      	ldrh	r2, [r4, #28]
1000a136:	1c11      	adds	r1, r2, #0
1000a138:	429a      	cmp	r2, r3
1000a13a:	d83f      	bhi.n	1000a1bc <hw_endpoint_xfer_continue+0x17c>
1000a13c:	2780      	movs	r7, #128	; 0x80
1000a13e:	b28a      	uxth	r2, r1
1000a140:	00ff      	lsls	r7, r7, #3
1000a142:	1a9b      	subs	r3, r3, r2
1000a144:	4690      	mov	r8, r2
1000a146:	4317      	orrs	r7, r2
1000a148:	78e2      	ldrb	r2, [r4, #3]
1000a14a:	b29b      	uxth	r3, r3
1000a14c:	8263      	strh	r3, [r4, #18]
1000a14e:	2a00      	cmp	r2, #0
1000a150:	d12f      	bne.n	1000a1b2 <hw_endpoint_xfer_continue+0x172>
1000a152:	2101      	movs	r1, #1
1000a154:	404a      	eors	r2, r1
1000a156:	70e2      	strb	r2, [r4, #3]
1000a158:	7862      	ldrb	r2, [r4, #1]
1000a15a:	2a00      	cmp	r2, #0
1000a15c:	d03e      	beq.n	1000a1dc <hw_endpoint_xfer_continue+0x19c>
1000a15e:	2b00      	cmp	r3, #0
1000a160:	d102      	bne.n	1000a168 <hw_endpoint_xfer_continue+0x128>
1000a162:	2380      	movs	r3, #128	; 0x80
1000a164:	01db      	lsls	r3, r3, #7
1000a166:	431f      	orrs	r7, r3
1000a168:	4b2b      	ldr	r3, [pc, #172]	; (1000a218 <hw_endpoint_xfer_continue+0x1d8>)
1000a16a:	043f      	lsls	r7, r7, #16
1000a16c:	4033      	ands	r3, r6
1000a16e:	26a0      	movs	r6, #160	; 0xa0
1000a170:	05f6      	lsls	r6, r6, #23
1000a172:	433d      	orrs	r5, r7
1000a174:	431e      	orrs	r6, r3
1000a176:	e7b1      	b.n	1000a0dc <hw_endpoint_xfer_continue+0x9c>
1000a178:	68a2      	ldr	r2, [r4, #8]
1000a17a:	6815      	ldr	r5, [r2, #0]
1000a17c:	7862      	ldrb	r2, [r4, #1]
1000a17e:	01ad      	lsls	r5, r5, #6
1000a180:	0dad      	lsrs	r5, r5, #22
1000a182:	2a00      	cmp	r2, #0
1000a184:	d11c      	bne.n	1000a1c0 <hw_endpoint_xfer_continue+0x180>
1000a186:	18eb      	adds	r3, r5, r3
1000a188:	82a3      	strh	r3, [r4, #20]
1000a18a:	428d      	cmp	r5, r1
1000a18c:	d300      	bcc.n	1000a190 <hw_endpoint_xfer_continue+0x150>
1000a18e:	e77d      	b.n	1000a08c <hw_endpoint_xfer_continue+0x4c>
1000a190:	2300      	movs	r3, #0
1000a192:	8263      	strh	r3, [r4, #18]
1000a194:	e76f      	b.n	1000a076 <hw_endpoint_xfer_continue+0x36>
1000a196:	003a      	movs	r2, r7
1000a198:	69a1      	ldr	r1, [r4, #24]
1000a19a:	68e0      	ldr	r0, [r4, #12]
1000a19c:	f7fe ff76 	bl	1000908c <__wrap___aeabi_memcpy>
1000a1a0:	69a3      	ldr	r3, [r4, #24]
1000a1a2:	469c      	mov	ip, r3
1000a1a4:	2380      	movs	r3, #128	; 0x80
1000a1a6:	4467      	add	r7, ip
1000a1a8:	021b      	lsls	r3, r3, #8
1000a1aa:	431d      	orrs	r5, r3
1000a1ac:	61a7      	str	r7, [r4, #24]
1000a1ae:	8a63      	ldrh	r3, [r4, #18]
1000a1b0:	e788      	b.n	1000a0c4 <hw_endpoint_xfer_continue+0x84>
1000a1b2:	2790      	movs	r7, #144	; 0x90
1000a1b4:	4641      	mov	r1, r8
1000a1b6:	01bf      	lsls	r7, r7, #6
1000a1b8:	430f      	orrs	r7, r1
1000a1ba:	e7ca      	b.n	1000a152 <hw_endpoint_xfer_continue+0x112>
1000a1bc:	1c19      	adds	r1, r3, #0
1000a1be:	e7bd      	b.n	1000a13c <hw_endpoint_xfer_continue+0xfc>
1000a1c0:	68e1      	ldr	r1, [r4, #12]
1000a1c2:	002a      	movs	r2, r5
1000a1c4:	3140      	adds	r1, #64	; 0x40
1000a1c6:	69a0      	ldr	r0, [r4, #24]
1000a1c8:	f7fe ff60 	bl	1000908c <__wrap___aeabi_memcpy>
1000a1cc:	8aa3      	ldrh	r3, [r4, #20]
1000a1ce:	8ba1      	ldrh	r1, [r4, #28]
1000a1d0:	18eb      	adds	r3, r5, r3
1000a1d2:	82a3      	strh	r3, [r4, #20]
1000a1d4:	69a3      	ldr	r3, [r4, #24]
1000a1d6:	195b      	adds	r3, r3, r5
1000a1d8:	61a3      	str	r3, [r4, #24]
1000a1da:	e7d6      	b.n	1000a18a <hw_endpoint_xfer_continue+0x14a>
1000a1dc:	68e0      	ldr	r0, [r4, #12]
1000a1de:	4642      	mov	r2, r8
1000a1e0:	69a1      	ldr	r1, [r4, #24]
1000a1e2:	3040      	adds	r0, #64	; 0x40
1000a1e4:	f7fe ff52 	bl	1000908c <__wrap___aeabi_memcpy>
1000a1e8:	69a3      	ldr	r3, [r4, #24]
1000a1ea:	4443      	add	r3, r8
1000a1ec:	61a3      	str	r3, [r4, #24]
1000a1ee:	2380      	movs	r3, #128	; 0x80
1000a1f0:	021b      	lsls	r3, r3, #8
1000a1f2:	431f      	orrs	r7, r3
1000a1f4:	8a63      	ldrh	r3, [r4, #18]
1000a1f6:	e7b2      	b.n	1000a15e <hw_endpoint_xfer_continue+0x11e>
1000a1f8:	237f      	movs	r3, #127	; 0x7f
1000a1fa:	7881      	ldrb	r1, [r0, #2]
1000a1fc:	4a07      	ldr	r2, [pc, #28]	; (1000a21c <hw_endpoint_xfer_continue+0x1dc>)
1000a1fe:	4808      	ldr	r0, [pc, #32]	; (1000a220 <hw_endpoint_xfer_continue+0x1e0>)
1000a200:	4019      	ands	r1, r3
1000a202:	f7fc fcff 	bl	10006c04 <panic>
1000a206:	78a0      	ldrb	r0, [r4, #2]
1000a208:	f7ff fe22 	bl	10009e50 <_hw_endpoint_buffer_control_update32.part.0.isra.0>
1000a20c:	50110000 	.word	0x50110000
1000a210:	afffffff 	.word	0xafffffff
1000a214:	fffffbff 	.word	0xfffffbff
1000a218:	dfffffff 	.word	0xdfffffff
1000a21c:	200004b4 	.word	0x200004b4
1000a220:	1000d634 	.word	0x1000d634

1000a224 <tud_mounted>:
1000a224:	4b02      	ldr	r3, [pc, #8]	; (1000a230 <tud_mounted+0xc>)
1000a226:	7858      	ldrb	r0, [r3, #1]
1000a228:	1e43      	subs	r3, r0, #1
1000a22a:	4198      	sbcs	r0, r3
1000a22c:	b2c0      	uxtb	r0, r0
1000a22e:	4770      	bx	lr
1000a230:	20000b80 	.word	0x20000b80

1000a234 <tud_suspended>:
1000a234:	4b02      	ldr	r3, [pc, #8]	; (1000a240 <tud_suspended+0xc>)
1000a236:	7818      	ldrb	r0, [r3, #0]
1000a238:	0740      	lsls	r0, r0, #29
1000a23a:	0fc0      	lsrs	r0, r0, #31
1000a23c:	4770      	bx	lr
1000a23e:	46c0      	nop			; (mov r8, r8)
1000a240:	20000b80 	.word	0x20000b80

1000a244 <tud_inited>:
1000a244:	4b01      	ldr	r3, [pc, #4]	; (1000a24c <tud_inited+0x8>)
1000a246:	7818      	ldrb	r0, [r3, #0]
1000a248:	4770      	bx	lr
1000a24a:	46c0      	nop			; (mov r8, r8)
1000a24c:	2002714e 	.word	0x2002714e

1000a250 <tud_init>:
1000a250:	b5f8      	push	{r3, r4, r5, r6, r7, lr}
1000a252:	4647      	mov	r7, r8
1000a254:	46ce      	mov	lr, r9
1000a256:	b580      	push	{r7, lr}
1000a258:	4f29      	ldr	r7, [pc, #164]	; (1000a300 <tud_init+0xb0>)
1000a25a:	0005      	movs	r5, r0
1000a25c:	783b      	ldrb	r3, [r7, #0]
1000a25e:	2b00      	cmp	r3, #0
1000a260:	d004      	beq.n	1000a26c <tud_init+0x1c>
1000a262:	2001      	movs	r0, #1
1000a264:	bcc0      	pop	{r6, r7}
1000a266:	46b9      	mov	r9, r7
1000a268:	46b0      	mov	r8, r6
1000a26a:	bdf8      	pop	{r3, r4, r5, r6, r7, pc}
1000a26c:	2253      	movs	r2, #83	; 0x53
1000a26e:	2100      	movs	r1, #0
1000a270:	4824      	ldr	r0, [pc, #144]	; (1000a304 <tud_init+0xb4>)
1000a272:	f7fe ff05 	bl	10009080 <__wrap_memset>
1000a276:	4c24      	ldr	r4, [pc, #144]	; (1000a308 <tud_init+0xb8>)
1000a278:	0020      	movs	r0, r4
1000a27a:	f7fc fa65 	bl	10006748 <mutex_init>
1000a27e:	4b23      	ldr	r3, [pc, #140]	; (1000a30c <tud_init+0xbc>)
1000a280:	601c      	str	r4, [r3, #0]
1000a282:	4c23      	ldr	r4, [pc, #140]	; (1000a310 <tud_init+0xc0>)
1000a284:	0020      	movs	r0, r4
1000a286:	301c      	adds	r0, #28
1000a288:	f7fc fa7a 	bl	10006780 <critical_section_init>
1000a28c:	0020      	movs	r0, r4
1000a28e:	f001 fca1 	bl	1000bbd4 <tu_fifo_clear>
1000a292:	4b20      	ldr	r3, [pc, #128]	; (1000a314 <tud_init+0xc4>)
1000a294:	4e20      	ldr	r6, [pc, #128]	; (1000a318 <tud_init+0xc8>)
1000a296:	601c      	str	r4, [r3, #0]
1000a298:	4b20      	ldr	r3, [pc, #128]	; (1000a31c <tud_init+0xcc>)
1000a29a:	4698      	mov	r8, r3
1000a29c:	2b00      	cmp	r3, #0
1000a29e:	d004      	beq.n	1000a2aa <tud_init+0x5a>
1000a2a0:	0030      	movs	r0, r6
1000a2a2:	f7ff f95d 	bl	10009560 <usbd_app_driver_get_cb>
1000a2a6:	4b1e      	ldr	r3, [pc, #120]	; (1000a320 <tud_init+0xd0>)
1000a2a8:	6018      	str	r0, [r3, #0]
1000a2aa:	4642      	mov	r2, r8
1000a2ac:	2400      	movs	r4, #0
1000a2ae:	7833      	ldrb	r3, [r6, #0]
1000a2b0:	2a00      	cmp	r2, #0
1000a2b2:	d01d      	beq.n	1000a2f0 <tud_init+0xa0>
1000a2b4:	4a1b      	ldr	r2, [pc, #108]	; (1000a324 <tud_init+0xd4>)
1000a2b6:	4690      	mov	r8, r2
1000a2b8:	4a19      	ldr	r2, [pc, #100]	; (1000a320 <tud_init+0xd0>)
1000a2ba:	4691      	mov	r9, r2
1000a2bc:	429c      	cmp	r4, r3
1000a2be:	d310      	bcc.n	1000a2e2 <tud_init+0x92>
1000a2c0:	d11b      	bne.n	1000a2fa <tud_init+0xaa>
1000a2c2:	4643      	mov	r3, r8
1000a2c4:	4798      	blx	r3
1000a2c6:	3401      	adds	r4, #1
1000a2c8:	7833      	ldrb	r3, [r6, #0]
1000a2ca:	b2e4      	uxtb	r4, r4
1000a2cc:	42a3      	cmp	r3, r4
1000a2ce:	d2f5      	bcs.n	1000a2bc <tud_init+0x6c>
1000a2d0:	0028      	movs	r0, r5
1000a2d2:	f7ff fbf1 	bl	10009ab8 <dcd_init>
1000a2d6:	0028      	movs	r0, r5
1000a2d8:	f7ff fbd6 	bl	10009a88 <dcd_int_enable>
1000a2dc:	2301      	movs	r3, #1
1000a2de:	703b      	strb	r3, [r7, #0]
1000a2e0:	e7bf      	b.n	1000a262 <tud_init+0x12>
1000a2e2:	464a      	mov	r2, r9
1000a2e4:	0063      	lsls	r3, r4, #1
1000a2e6:	6812      	ldr	r2, [r2, #0]
1000a2e8:	191b      	adds	r3, r3, r4
1000a2ea:	00db      	lsls	r3, r3, #3
1000a2ec:	589b      	ldr	r3, [r3, r2]
1000a2ee:	e7e9      	b.n	1000a2c4 <tud_init+0x74>
1000a2f0:	f001 f84a 	bl	1000b388 <cdcd_init>
1000a2f4:	7833      	ldrb	r3, [r6, #0]
1000a2f6:	2b00      	cmp	r3, #0
1000a2f8:	d0ea      	beq.n	1000a2d0 <tud_init+0x80>
1000a2fa:	2300      	movs	r3, #0
1000a2fc:	681b      	ldr	r3, [r3, #0]
1000a2fe:	deff      	udf	#255	; 0xff
1000a300:	2002714e 	.word	0x2002714e
1000a304:	20000b80 	.word	0x20000b80
1000a308:	20000b38 	.word	0x20000b38
1000a30c:	20000bd4 	.word	0x20000bd4
1000a310:	200004bc 	.word	0x200004bc
1000a314:	20000bd8 	.word	0x20000bd8
1000a318:	2002714d 	.word	0x2002714d
1000a31c:	10009561 	.word	0x10009561
1000a320:	20000848 	.word	0x20000848
1000a324:	1000b389 	.word	0x1000b389

1000a328 <tud_task>:
1000a328:	b5f0      	push	{r4, r5, r6, r7, lr}
1000a32a:	46de      	mov	lr, fp
1000a32c:	4657      	mov	r7, sl
1000a32e:	464e      	mov	r6, r9
1000a330:	4645      	mov	r5, r8
1000a332:	b5e0      	push	{r5, r6, r7, lr}
1000a334:	b08b      	sub	sp, #44	; 0x2c
1000a336:	f001 fa09 	bl	1000b74c <tusb_inited>
1000a33a:	2800      	cmp	r0, #0
1000a33c:	d100      	bne.n	1000a340 <tud_task+0x18>
1000a33e:	e144      	b.n	1000a5ca <tud_task+0x2a2>
1000a340:	4bc2      	ldr	r3, [pc, #776]	; (1000a64c <tud_task+0x324>)
1000a342:	4ec3      	ldr	r6, [pc, #780]	; (1000a650 <tud_task+0x328>)
1000a344:	469b      	mov	fp, r3
1000a346:	ac07      	add	r4, sp, #28
1000a348:	6835      	ldr	r5, [r6, #0]
1000a34a:	69ea      	ldr	r2, [r5, #28]
1000a34c:	f3ef 8110 	mrs	r1, PRIMASK
1000a350:	b672      	cpsid	i
1000a352:	6813      	ldr	r3, [r2, #0]
1000a354:	2b00      	cmp	r3, #0
1000a356:	d0fc      	beq.n	1000a352 <tud_task+0x2a>
1000a358:	f3bf 8f5f 	dmb	sy
1000a35c:	6229      	str	r1, [r5, #32]
1000a35e:	0028      	movs	r0, r5
1000a360:	0021      	movs	r1, r4
1000a362:	f001 faab 	bl	1000b8bc <tu_fifo_read>
1000a366:	69ea      	ldr	r2, [r5, #28]
1000a368:	6a2b      	ldr	r3, [r5, #32]
1000a36a:	f3bf 8f5f 	dmb	sy
1000a36e:	2100      	movs	r1, #0
1000a370:	6011      	str	r1, [r2, #0]
1000a372:	f383 8810 	msr	PRIMASK, r3
1000a376:	2800      	cmp	r0, #0
1000a378:	d100      	bne.n	1000a37c <tud_task+0x54>
1000a37a:	e126      	b.n	1000a5ca <tud_task+0x2a2>
1000a37c:	7863      	ldrb	r3, [r4, #1]
1000a37e:	2b08      	cmp	r3, #8
1000a380:	d8e2      	bhi.n	1000a348 <tud_task+0x20>
1000a382:	465a      	mov	r2, fp
1000a384:	009b      	lsls	r3, r3, #2
1000a386:	58d3      	ldr	r3, [r2, r3]
1000a388:	469f      	mov	pc, r3
1000a38a:	6863      	ldr	r3, [r4, #4]
1000a38c:	2b00      	cmp	r3, #0
1000a38e:	d0db      	beq.n	1000a348 <tud_task+0x20>
1000a390:	68a0      	ldr	r0, [r4, #8]
1000a392:	4798      	blx	r3
1000a394:	e7d8      	b.n	1000a348 <tud_task+0x20>
1000a396:	227f      	movs	r2, #127	; 0x7f
1000a398:	7921      	ldrb	r1, [r4, #4]
1000a39a:	4bae      	ldr	r3, [pc, #696]	; (1000a654 <tud_task+0x32c>)
1000a39c:	400a      	ands	r2, r1
1000a39e:	0055      	lsls	r5, r2, #1
1000a3a0:	09c8      	lsrs	r0, r1, #7
1000a3a2:	195b      	adds	r3, r3, r5
1000a3a4:	181b      	adds	r3, r3, r0
1000a3a6:	0018      	movs	r0, r3
1000a3a8:	2701      	movs	r7, #1
1000a3aa:	3030      	adds	r0, #48	; 0x30
1000a3ac:	78c5      	ldrb	r5, [r0, #3]
1000a3ae:	43bd      	bics	r5, r7
1000a3b0:	70c5      	strb	r5, [r0, #3]
1000a3b2:	78c5      	ldrb	r5, [r0, #3]
1000a3b4:	3703      	adds	r7, #3
1000a3b6:	43bd      	bics	r5, r7
1000a3b8:	70c5      	strb	r5, [r0, #3]
1000a3ba:	2a00      	cmp	r2, #0
1000a3bc:	d100      	bne.n	1000a3c0 <tud_task+0x98>
1000a3be:	e10b      	b.n	1000a5d8 <tud_task+0x2b0>
1000a3c0:	4aa5      	ldr	r2, [pc, #660]	; (1000a658 <tud_task+0x330>)
1000a3c2:	7cdb      	ldrb	r3, [r3, #19]
1000a3c4:	2a00      	cmp	r2, #0
1000a3c6:	d006      	beq.n	1000a3d6 <tud_task+0xae>
1000a3c8:	4aa4      	ldr	r2, [pc, #656]	; (1000a65c <tud_task+0x334>)
1000a3ca:	7812      	ldrb	r2, [r2, #0]
1000a3cc:	4293      	cmp	r3, r2
1000a3ce:	d200      	bcs.n	1000a3d2 <tud_task+0xaa>
1000a3d0:	e191      	b.n	1000a6f6 <tud_task+0x3ce>
1000a3d2:	1a9b      	subs	r3, r3, r2
1000a3d4:	b2db      	uxtb	r3, r3
1000a3d6:	2b00      	cmp	r3, #0
1000a3d8:	d000      	beq.n	1000a3dc <tud_task+0xb4>
1000a3da:	e0f6      	b.n	1000a5ca <tud_task+0x2a2>
1000a3dc:	4da0      	ldr	r5, [pc, #640]	; (1000a660 <tud_task+0x338>)
1000a3de:	7962      	ldrb	r2, [r4, #5]
1000a3e0:	7820      	ldrb	r0, [r4, #0]
1000a3e2:	68a3      	ldr	r3, [r4, #8]
1000a3e4:	47a8      	blx	r5
1000a3e6:	e7af      	b.n	1000a348 <tud_task+0x20>
1000a3e8:	2201      	movs	r2, #1
1000a3ea:	4f9a      	ldr	r7, [pc, #616]	; (1000a654 <tud_task+0x32c>)
1000a3ec:	2101      	movs	r1, #1
1000a3ee:	783b      	ldrb	r3, [r7, #0]
1000a3f0:	2004      	movs	r0, #4
1000a3f2:	4313      	orrs	r3, r2
1000a3f4:	703b      	strb	r3, [r7, #0]
1000a3f6:	2333      	movs	r3, #51	; 0x33
1000a3f8:	5cfa      	ldrb	r2, [r7, r3]
1000a3fa:	438a      	bics	r2, r1
1000a3fc:	54fa      	strb	r2, [r7, r3]
1000a3fe:	5cfa      	ldrb	r2, [r7, r3]
1000a400:	4382      	bics	r2, r0
1000a402:	54fa      	strb	r2, [r7, r3]
1000a404:	3301      	adds	r3, #1
1000a406:	5cfa      	ldrb	r2, [r7, r3]
1000a408:	438a      	bics	r2, r1
1000a40a:	54fa      	strb	r2, [r7, r3]
1000a40c:	5cfa      	ldrb	r2, [r7, r3]
1000a40e:	4382      	bics	r2, r0
1000a410:	54fa      	strb	r2, [r7, r3]
1000a412:	7823      	ldrb	r3, [r4, #0]
1000a414:	2000      	movs	r0, #0
1000a416:	469a      	mov	sl, r3
1000a418:	f000 fe66 	bl	1000b0e8 <usbd_control_set_complete_callback>
1000a41c:	2260      	movs	r2, #96	; 0x60
1000a41e:	7923      	ldrb	r3, [r4, #4]
1000a420:	401a      	ands	r2, r3
1000a422:	2a60      	cmp	r2, #96	; 0x60
1000a424:	d00d      	beq.n	1000a442 <tud_task+0x11a>
1000a426:	2a40      	cmp	r2, #64	; 0x40
1000a428:	d100      	bne.n	1000a42c <tud_task+0x104>
1000a42a:	e0f2      	b.n	1000a612 <tud_task+0x2ea>
1000a42c:	06db      	lsls	r3, r3, #27
1000a42e:	0edb      	lsrs	r3, r3, #27
1000a430:	2b01      	cmp	r3, #1
1000a432:	d100      	bne.n	1000a436 <tud_task+0x10e>
1000a434:	e16a      	b.n	1000a70c <tud_task+0x3e4>
1000a436:	2b02      	cmp	r3, #2
1000a438:	d100      	bne.n	1000a43c <tud_task+0x114>
1000a43a:	e121      	b.n	1000a680 <tud_task+0x358>
1000a43c:	2b00      	cmp	r3, #0
1000a43e:	d100      	bne.n	1000a442 <tud_task+0x11a>
1000a440:	e0f6      	b.n	1000a630 <tud_task+0x308>
1000a442:	7820      	ldrb	r0, [r4, #0]
1000a444:	2100      	movs	r1, #0
1000a446:	f7ff fccf 	bl	10009de8 <dcd_edpt_stall>
1000a44a:	2180      	movs	r1, #128	; 0x80
1000a44c:	7820      	ldrb	r0, [r4, #0]
1000a44e:	f7ff fccb 	bl	10009de8 <dcd_edpt_stall>
1000a452:	e779      	b.n	1000a348 <tud_task+0x20>
1000a454:	4b7f      	ldr	r3, [pc, #508]	; (1000a654 <tud_task+0x32c>)
1000a456:	781b      	ldrb	r3, [r3, #0]
1000a458:	07db      	lsls	r3, r3, #31
1000a45a:	d400      	bmi.n	1000a45e <tud_task+0x136>
1000a45c:	e774      	b.n	1000a348 <tud_task+0x20>
1000a45e:	4b81      	ldr	r3, [pc, #516]	; (1000a664 <tud_task+0x33c>)
1000a460:	2b00      	cmp	r3, #0
1000a462:	d100      	bne.n	1000a466 <tud_task+0x13e>
1000a464:	e770      	b.n	1000a348 <tud_task+0x20>
1000a466:	e000      	b.n	1000a46a <tud_task+0x142>
1000a468:	bf00      	nop
1000a46a:	e76d      	b.n	1000a348 <tud_task+0x20>
1000a46c:	4b79      	ldr	r3, [pc, #484]	; (1000a654 <tud_task+0x32c>)
1000a46e:	781a      	ldrb	r2, [r3, #0]
1000a470:	07d2      	lsls	r2, r2, #31
1000a472:	d400      	bmi.n	1000a476 <tud_task+0x14e>
1000a474:	e768      	b.n	1000a348 <tud_task+0x20>
1000a476:	4a7c      	ldr	r2, [pc, #496]	; (1000a668 <tud_task+0x340>)
1000a478:	2a00      	cmp	r2, #0
1000a47a:	d100      	bne.n	1000a47e <tud_task+0x156>
1000a47c:	e764      	b.n	1000a348 <tud_task+0x20>
1000a47e:	7818      	ldrb	r0, [r3, #0]
1000a480:	0700      	lsls	r0, r0, #28
1000a482:	0fc0      	lsrs	r0, r0, #31
1000a484:	e000      	b.n	1000a488 <tud_task+0x160>
1000a486:	bf00      	nop
1000a488:	e75e      	b.n	1000a348 <tud_task+0x20>
1000a48a:	4d74      	ldr	r5, [pc, #464]	; (1000a65c <tud_task+0x334>)
1000a48c:	4a72      	ldr	r2, [pc, #456]	; (1000a658 <tud_task+0x330>)
1000a48e:	2700      	movs	r7, #0
1000a490:	782b      	ldrb	r3, [r5, #0]
1000a492:	2a00      	cmp	r2, #0
1000a494:	d100      	bne.n	1000a498 <tud_task+0x170>
1000a496:	e0b6      	b.n	1000a606 <tud_task+0x2de>
1000a498:	4a74      	ldr	r2, [pc, #464]	; (1000a66c <tud_task+0x344>)
1000a49a:	4690      	mov	r8, r2
1000a49c:	429f      	cmp	r7, r3
1000a49e:	d308      	bcc.n	1000a4b2 <tud_task+0x18a>
1000a4a0:	429f      	cmp	r7, r3
1000a4a2:	d000      	beq.n	1000a4a6 <tud_task+0x17e>
1000a4a4:	e0b2      	b.n	1000a60c <tud_task+0x2e4>
1000a4a6:	3701      	adds	r7, #1
1000a4a8:	b2ff      	uxtb	r7, r7
1000a4aa:	429f      	cmp	r7, r3
1000a4ac:	d900      	bls.n	1000a4b0 <tud_task+0x188>
1000a4ae:	e74b      	b.n	1000a348 <tud_task+0x20>
1000a4b0:	d2f6      	bcs.n	1000a4a0 <tud_task+0x178>
1000a4b2:	4641      	mov	r1, r8
1000a4b4:	6809      	ldr	r1, [r1, #0]
1000a4b6:	007a      	lsls	r2, r7, #1
1000a4b8:	468c      	mov	ip, r1
1000a4ba:	19d2      	adds	r2, r2, r7
1000a4bc:	00d2      	lsls	r2, r2, #3
1000a4be:	4462      	add	r2, ip
1000a4c0:	6952      	ldr	r2, [r2, #20]
1000a4c2:	2a00      	cmp	r2, #0
1000a4c4:	d0ef      	beq.n	1000a4a6 <tud_task+0x17e>
1000a4c6:	7820      	ldrb	r0, [r4, #0]
1000a4c8:	4790      	blx	r2
1000a4ca:	3701      	adds	r7, #1
1000a4cc:	782b      	ldrb	r3, [r5, #0]
1000a4ce:	b2ff      	uxtb	r7, r7
1000a4d0:	429f      	cmp	r7, r3
1000a4d2:	d9e3      	bls.n	1000a49c <tud_task+0x174>
1000a4d4:	e738      	b.n	1000a348 <tud_task+0x20>
1000a4d6:	7823      	ldrb	r3, [r4, #0]
1000a4d8:	4d60      	ldr	r5, [pc, #384]	; (1000a65c <tud_task+0x334>)
1000a4da:	4a5f      	ldr	r2, [pc, #380]	; (1000a658 <tud_task+0x330>)
1000a4dc:	4698      	mov	r8, r3
1000a4de:	2700      	movs	r7, #0
1000a4e0:	782b      	ldrb	r3, [r5, #0]
1000a4e2:	2a00      	cmp	r2, #0
1000a4e4:	d100      	bne.n	1000a4e8 <tud_task+0x1c0>
1000a4e6:	e086      	b.n	1000a5f6 <tud_task+0x2ce>
1000a4e8:	4a61      	ldr	r2, [pc, #388]	; (1000a670 <tud_task+0x348>)
1000a4ea:	4691      	mov	r9, r2
1000a4ec:	4a5f      	ldr	r2, [pc, #380]	; (1000a66c <tud_task+0x344>)
1000a4ee:	4692      	mov	sl, r2
1000a4f0:	002a      	movs	r2, r5
1000a4f2:	4645      	mov	r5, r8
1000a4f4:	4690      	mov	r8, r2
1000a4f6:	42bb      	cmp	r3, r7
1000a4f8:	d85e      	bhi.n	1000a5b8 <tud_task+0x290>
1000a4fa:	d000      	beq.n	1000a4fe <tud_task+0x1d6>
1000a4fc:	e078      	b.n	1000a5f0 <tud_task+0x2c8>
1000a4fe:	464b      	mov	r3, r9
1000a500:	0028      	movs	r0, r5
1000a502:	4798      	blx	r3
1000a504:	4643      	mov	r3, r8
1000a506:	3701      	adds	r7, #1
1000a508:	781b      	ldrb	r3, [r3, #0]
1000a50a:	b2ff      	uxtb	r7, r7
1000a50c:	42bb      	cmp	r3, r7
1000a50e:	d2f2      	bcs.n	1000a4f6 <tud_task+0x1ce>
1000a510:	4d50      	ldr	r5, [pc, #320]	; (1000a654 <tud_task+0x32c>)
1000a512:	2253      	movs	r2, #83	; 0x53
1000a514:	2100      	movs	r1, #0
1000a516:	0028      	movs	r0, r5
1000a518:	f7fe fdb2 	bl	10009080 <__wrap_memset>
1000a51c:	2210      	movs	r2, #16
1000a51e:	21ff      	movs	r1, #255	; 0xff
1000a520:	1ce8      	adds	r0, r5, #3
1000a522:	f7fe fdad 	bl	10009080 <__wrap_memset>
1000a526:	0028      	movs	r0, r5
1000a528:	2220      	movs	r2, #32
1000a52a:	21ff      	movs	r1, #255	; 0xff
1000a52c:	3013      	adds	r0, #19
1000a52e:	f7fe fda7 	bl	10009080 <__wrap_memset>
1000a532:	f000 fdcf 	bl	1000b0d4 <usbd_control_reset>
1000a536:	4b4f      	ldr	r3, [pc, #316]	; (1000a674 <tud_task+0x34c>)
1000a538:	2b00      	cmp	r3, #0
1000a53a:	d100      	bne.n	1000a53e <tud_task+0x216>
1000a53c:	e704      	b.n	1000a348 <tud_task+0x20>
1000a53e:	e000      	b.n	1000a542 <tud_task+0x21a>
1000a540:	bf00      	nop
1000a542:	e701      	b.n	1000a348 <tud_task+0x20>
1000a544:	7823      	ldrb	r3, [r4, #0]
1000a546:	4d45      	ldr	r5, [pc, #276]	; (1000a65c <tud_task+0x334>)
1000a548:	4a43      	ldr	r2, [pc, #268]	; (1000a658 <tud_task+0x330>)
1000a54a:	4698      	mov	r8, r3
1000a54c:	2700      	movs	r7, #0
1000a54e:	782b      	ldrb	r3, [r5, #0]
1000a550:	2a00      	cmp	r2, #0
1000a552:	d047      	beq.n	1000a5e4 <tud_task+0x2bc>
1000a554:	4a46      	ldr	r2, [pc, #280]	; (1000a670 <tud_task+0x348>)
1000a556:	4691      	mov	r9, r2
1000a558:	4a44      	ldr	r2, [pc, #272]	; (1000a66c <tud_task+0x344>)
1000a55a:	4692      	mov	sl, r2
1000a55c:	002a      	movs	r2, r5
1000a55e:	4645      	mov	r5, r8
1000a560:	4690      	mov	r8, r2
1000a562:	429f      	cmp	r7, r3
1000a564:	d31f      	bcc.n	1000a5a6 <tud_task+0x27e>
1000a566:	d143      	bne.n	1000a5f0 <tud_task+0x2c8>
1000a568:	464b      	mov	r3, r9
1000a56a:	0028      	movs	r0, r5
1000a56c:	4798      	blx	r3
1000a56e:	4643      	mov	r3, r8
1000a570:	3701      	adds	r7, #1
1000a572:	781b      	ldrb	r3, [r3, #0]
1000a574:	b2ff      	uxtb	r7, r7
1000a576:	42bb      	cmp	r3, r7
1000a578:	d2f3      	bcs.n	1000a562 <tud_task+0x23a>
1000a57a:	4d36      	ldr	r5, [pc, #216]	; (1000a654 <tud_task+0x32c>)
1000a57c:	2253      	movs	r2, #83	; 0x53
1000a57e:	2100      	movs	r1, #0
1000a580:	0028      	movs	r0, r5
1000a582:	f7fe fd7d 	bl	10009080 <__wrap_memset>
1000a586:	2210      	movs	r2, #16
1000a588:	21ff      	movs	r1, #255	; 0xff
1000a58a:	1ce8      	adds	r0, r5, #3
1000a58c:	f7fe fd78 	bl	10009080 <__wrap_memset>
1000a590:	0028      	movs	r0, r5
1000a592:	2220      	movs	r2, #32
1000a594:	21ff      	movs	r1, #255	; 0xff
1000a596:	3013      	adds	r0, #19
1000a598:	f7fe fd72 	bl	10009080 <__wrap_memset>
1000a59c:	f000 fd9a 	bl	1000b0d4 <usbd_control_reset>
1000a5a0:	7923      	ldrb	r3, [r4, #4]
1000a5a2:	70ab      	strb	r3, [r5, #2]
1000a5a4:	e6d0      	b.n	1000a348 <tud_task+0x20>
1000a5a6:	4652      	mov	r2, sl
1000a5a8:	6812      	ldr	r2, [r2, #0]
1000a5aa:	007b      	lsls	r3, r7, #1
1000a5ac:	4694      	mov	ip, r2
1000a5ae:	19db      	adds	r3, r3, r7
1000a5b0:	00db      	lsls	r3, r3, #3
1000a5b2:	4463      	add	r3, ip
1000a5b4:	685b      	ldr	r3, [r3, #4]
1000a5b6:	e7d8      	b.n	1000a56a <tud_task+0x242>
1000a5b8:	4652      	mov	r2, sl
1000a5ba:	6812      	ldr	r2, [r2, #0]
1000a5bc:	007b      	lsls	r3, r7, #1
1000a5be:	4694      	mov	ip, r2
1000a5c0:	19db      	adds	r3, r3, r7
1000a5c2:	00db      	lsls	r3, r3, #3
1000a5c4:	4463      	add	r3, ip
1000a5c6:	685b      	ldr	r3, [r3, #4]
1000a5c8:	e79a      	b.n	1000a500 <tud_task+0x1d8>
1000a5ca:	b00b      	add	sp, #44	; 0x2c
1000a5cc:	bcf0      	pop	{r4, r5, r6, r7}
1000a5ce:	46bb      	mov	fp, r7
1000a5d0:	46b2      	mov	sl, r6
1000a5d2:	46a9      	mov	r9, r5
1000a5d4:	46a0      	mov	r8, r4
1000a5d6:	bdf0      	pop	{r4, r5, r6, r7, pc}
1000a5d8:	7962      	ldrb	r2, [r4, #5]
1000a5da:	7820      	ldrb	r0, [r4, #0]
1000a5dc:	68a3      	ldr	r3, [r4, #8]
1000a5de:	f000 fd97 	bl	1000b110 <usbd_control_xfer_cb>
1000a5e2:	e6b1      	b.n	1000a348 <tud_task+0x20>
1000a5e4:	4640      	mov	r0, r8
1000a5e6:	f000 ff0d 	bl	1000b404 <cdcd_reset>
1000a5ea:	782b      	ldrb	r3, [r5, #0]
1000a5ec:	2b00      	cmp	r3, #0
1000a5ee:	d0c4      	beq.n	1000a57a <tud_task+0x252>
1000a5f0:	2300      	movs	r3, #0
1000a5f2:	685b      	ldr	r3, [r3, #4]
1000a5f4:	deff      	udf	#255	; 0xff
1000a5f6:	4640      	mov	r0, r8
1000a5f8:	f000 ff04 	bl	1000b404 <cdcd_reset>
1000a5fc:	782b      	ldrb	r3, [r5, #0]
1000a5fe:	2b00      	cmp	r3, #0
1000a600:	d100      	bne.n	1000a604 <tud_task+0x2dc>
1000a602:	e785      	b.n	1000a510 <tud_task+0x1e8>
1000a604:	e7f4      	b.n	1000a5f0 <tud_task+0x2c8>
1000a606:	2b00      	cmp	r3, #0
1000a608:	d100      	bne.n	1000a60c <tud_task+0x2e4>
1000a60a:	e69d      	b.n	1000a348 <tud_task+0x20>
1000a60c:	2300      	movs	r3, #0
1000a60e:	695b      	ldr	r3, [r3, #20]
1000a610:	deff      	udf	#255	; 0xff
1000a612:	4819      	ldr	r0, [pc, #100]	; (1000a678 <tud_task+0x350>)
1000a614:	2800      	cmp	r0, #0
1000a616:	d100      	bne.n	1000a61a <tud_task+0x2f2>
1000a618:	e713      	b.n	1000a442 <tud_task+0x11a>
1000a61a:	f000 fd65 	bl	1000b0e8 <usbd_control_set_complete_callback>
1000a61e:	2100      	movs	r1, #0
1000a620:	4650      	mov	r0, sl
1000a622:	aa08      	add	r2, sp, #32
1000a624:	e000      	b.n	1000a628 <tud_task+0x300>
1000a626:	bf00      	nop
1000a628:	2800      	cmp	r0, #0
1000a62a:	d000      	beq.n	1000a62e <tud_task+0x306>
1000a62c:	e68c      	b.n	1000a348 <tud_task+0x20>
1000a62e:	e708      	b.n	1000a442 <tud_task+0x11a>
1000a630:	2a20      	cmp	r2, #32
1000a632:	d100      	bne.n	1000a636 <tud_task+0x30e>
1000a634:	e09f      	b.n	1000a776 <tud_task+0x44e>
1000a636:	2a00      	cmp	r2, #0
1000a638:	d000      	beq.n	1000a63c <tud_task+0x314>
1000a63a:	e702      	b.n	1000a442 <tud_task+0x11a>
1000a63c:	7963      	ldrb	r3, [r4, #5]
1000a63e:	2b09      	cmp	r3, #9
1000a640:	d900      	bls.n	1000a644 <tud_task+0x31c>
1000a642:	e6fe      	b.n	1000a442 <tud_task+0x11a>
1000a644:	4a0d      	ldr	r2, [pc, #52]	; (1000a67c <tud_task+0x354>)
1000a646:	009b      	lsls	r3, r3, #2
1000a648:	58d3      	ldr	r3, [r2, r3]
1000a64a:	469f      	mov	pc, r3
1000a64c:	1000d668 	.word	0x1000d668
1000a650:	20000bd8 	.word	0x20000bd8
1000a654:	20000b80 	.word	0x20000b80
1000a658:	10009561 	.word	0x10009561
1000a65c:	2002714d 	.word	0x2002714d
1000a660:	1000b5f9 	.word	0x1000b5f9
	...
1000a66c:	20000848 	.word	0x20000848
1000a670:	1000b405 	.word	0x1000b405
	...
1000a67c:	1000d68c 	.word	0x1000d68c
1000a680:	2370      	movs	r3, #112	; 0x70
1000a682:	7a21      	ldrb	r1, [r4, #8]
1000a684:	420b      	tst	r3, r1
1000a686:	d000      	beq.n	1000a68a <tud_task+0x362>
1000a688:	e6db      	b.n	1000a442 <tud_task+0x11a>
1000a68a:	330f      	adds	r3, #15
1000a68c:	400b      	ands	r3, r1
1000a68e:	005b      	lsls	r3, r3, #1
1000a690:	18f8      	adds	r0, r7, r3
1000a692:	09cd      	lsrs	r5, r1, #7
1000a694:	9300      	str	r3, [sp, #0]
1000a696:	4bc1      	ldr	r3, [pc, #772]	; (1000a99c <tud_task+0x674>)
1000a698:	1940      	adds	r0, r0, r5
1000a69a:	7cc0      	ldrb	r0, [r0, #19]
1000a69c:	2b00      	cmp	r3, #0
1000a69e:	d006      	beq.n	1000a6ae <tud_task+0x386>
1000a6a0:	4bbf      	ldr	r3, [pc, #764]	; (1000a9a0 <tud_task+0x678>)
1000a6a2:	781b      	ldrb	r3, [r3, #0]
1000a6a4:	4298      	cmp	r0, r3
1000a6a6:	d200      	bcs.n	1000a6aa <tud_task+0x382>
1000a6a8:	e088      	b.n	1000a7bc <tud_task+0x494>
1000a6aa:	1ac0      	subs	r0, r0, r3
1000a6ac:	b2c0      	uxtb	r0, r0
1000a6ae:	2800      	cmp	r0, #0
1000a6b0:	d17e      	bne.n	1000a7b0 <tud_task+0x488>
1000a6b2:	2a00      	cmp	r2, #0
1000a6b4:	d000      	beq.n	1000a6b8 <tud_task+0x390>
1000a6b6:	e115      	b.n	1000a8e4 <tud_task+0x5bc>
1000a6b8:	4bba      	ldr	r3, [pc, #744]	; (1000a9a4 <tud_task+0x67c>)
1000a6ba:	9301      	str	r3, [sp, #4]
1000a6bc:	7963      	ldrb	r3, [r4, #5]
1000a6be:	4698      	mov	r8, r3
1000a6c0:	2302      	movs	r3, #2
1000a6c2:	4642      	mov	r2, r8
1000a6c4:	4699      	mov	r9, r3
1000a6c6:	439a      	bics	r2, r3
1000a6c8:	2a01      	cmp	r2, #1
1000a6ca:	d100      	bne.n	1000a6ce <tud_task+0x3a6>
1000a6cc:	e10e      	b.n	1000a8ec <tud_task+0x5c4>
1000a6ce:	4643      	mov	r3, r8
1000a6d0:	2b00      	cmp	r3, #0
1000a6d2:	d000      	beq.n	1000a6d6 <tud_task+0x3ae>
1000a6d4:	e6b5      	b.n	1000a442 <tud_task+0x11a>
1000a6d6:	9b00      	ldr	r3, [sp, #0]
1000a6d8:	aa06      	add	r2, sp, #24
1000a6da:	18fb      	adds	r3, r7, r3
1000a6dc:	195d      	adds	r5, r3, r5
1000a6de:	3530      	adds	r5, #48	; 0x30
1000a6e0:	78eb      	ldrb	r3, [r5, #3]
1000a6e2:	3202      	adds	r2, #2
1000a6e4:	079b      	lsls	r3, r3, #30
1000a6e6:	0fdb      	lsrs	r3, r3, #31
1000a6e8:	8013      	strh	r3, [r2, #0]
1000a6ea:	4650      	mov	r0, sl
1000a6ec:	2302      	movs	r3, #2
1000a6ee:	a908      	add	r1, sp, #32
1000a6f0:	f000 fc92 	bl	1000b018 <tud_control_xfer>
1000a6f4:	e628      	b.n	1000a348 <tud_task+0x20>
1000a6f6:	005a      	lsls	r2, r3, #1
1000a6f8:	18d3      	adds	r3, r2, r3
1000a6fa:	4aab      	ldr	r2, [pc, #684]	; (1000a9a8 <tud_task+0x680>)
1000a6fc:	00db      	lsls	r3, r3, #3
1000a6fe:	6812      	ldr	r2, [r2, #0]
1000a700:	18d3      	adds	r3, r2, r3
1000a702:	2b00      	cmp	r3, #0
1000a704:	d100      	bne.n	1000a708 <tud_task+0x3e0>
1000a706:	e760      	b.n	1000a5ca <tud_task+0x2a2>
1000a708:	691d      	ldr	r5, [r3, #16]
1000a70a:	e668      	b.n	1000a3de <tud_task+0xb6>
1000a70c:	7a23      	ldrb	r3, [r4, #8]
1000a70e:	2b0f      	cmp	r3, #15
1000a710:	d900      	bls.n	1000a714 <tud_task+0x3ec>
1000a712:	e696      	b.n	1000a442 <tud_task+0x11a>
1000a714:	4aa1      	ldr	r2, [pc, #644]	; (1000a99c <tud_task+0x674>)
1000a716:	18fb      	adds	r3, r7, r3
1000a718:	78db      	ldrb	r3, [r3, #3]
1000a71a:	2a00      	cmp	r2, #0
1000a71c:	d005      	beq.n	1000a72a <tud_task+0x402>
1000a71e:	4aa0      	ldr	r2, [pc, #640]	; (1000a9a0 <tud_task+0x678>)
1000a720:	7812      	ldrb	r2, [r2, #0]
1000a722:	4293      	cmp	r3, r2
1000a724:	d364      	bcc.n	1000a7f0 <tud_task+0x4c8>
1000a726:	1a9b      	subs	r3, r3, r2
1000a728:	b2db      	uxtb	r3, r3
1000a72a:	2b00      	cmp	r3, #0
1000a72c:	d000      	beq.n	1000a730 <tud_task+0x408>
1000a72e:	e688      	b.n	1000a442 <tud_task+0x11a>
1000a730:	489e      	ldr	r0, [pc, #632]	; (1000a9ac <tud_task+0x684>)
1000a732:	4d9c      	ldr	r5, [pc, #624]	; (1000a9a4 <tud_task+0x67c>)
1000a734:	f000 fcd8 	bl	1000b0e8 <usbd_control_set_complete_callback>
1000a738:	2100      	movs	r1, #0
1000a73a:	4650      	mov	r0, sl
1000a73c:	68eb      	ldr	r3, [r5, #12]
1000a73e:	aa08      	add	r2, sp, #32
1000a740:	4798      	blx	r3
1000a742:	2800      	cmp	r0, #0
1000a744:	d000      	beq.n	1000a748 <tud_task+0x420>
1000a746:	e5ff      	b.n	1000a348 <tud_task+0x20>
1000a748:	2260      	movs	r2, #96	; 0x60
1000a74a:	0015      	movs	r5, r2
1000a74c:	7923      	ldrb	r3, [r4, #4]
1000a74e:	401d      	ands	r5, r3
1000a750:	421a      	tst	r2, r3
1000a752:	d000      	beq.n	1000a756 <tud_task+0x42e>
1000a754:	e675      	b.n	1000a442 <tud_task+0x11a>
1000a756:	7963      	ldrb	r3, [r4, #5]
1000a758:	3b0a      	subs	r3, #10
1000a75a:	2b01      	cmp	r3, #1
1000a75c:	d900      	bls.n	1000a760 <tud_task+0x438>
1000a75e:	e670      	b.n	1000a442 <tud_task+0x11a>
1000a760:	f000 fcc2 	bl	1000b0e8 <usbd_control_set_complete_callback>
1000a764:	7963      	ldrb	r3, [r4, #5]
1000a766:	2b0a      	cmp	r3, #10
1000a768:	d100      	bne.n	1000a76c <tud_task+0x444>
1000a76a:	e0ee      	b.n	1000a94a <tud_task+0x622>
1000a76c:	4650      	mov	r0, sl
1000a76e:	a908      	add	r1, sp, #32
1000a770:	f000 fc3a 	bl	1000afe8 <tud_control_status>
1000a774:	e5e8      	b.n	1000a348 <tud_task+0x20>
1000a776:	7a23      	ldrb	r3, [r4, #8]
1000a778:	2b0f      	cmp	r3, #15
1000a77a:	d900      	bls.n	1000a77e <tud_task+0x456>
1000a77c:	e661      	b.n	1000a442 <tud_task+0x11a>
1000a77e:	4a87      	ldr	r2, [pc, #540]	; (1000a99c <tud_task+0x674>)
1000a780:	18fb      	adds	r3, r7, r3
1000a782:	78db      	ldrb	r3, [r3, #3]
1000a784:	2a00      	cmp	r2, #0
1000a786:	d006      	beq.n	1000a796 <tud_task+0x46e>
1000a788:	4a85      	ldr	r2, [pc, #532]	; (1000a9a0 <tud_task+0x678>)
1000a78a:	7812      	ldrb	r2, [r2, #0]
1000a78c:	4293      	cmp	r3, r2
1000a78e:	d200      	bcs.n	1000a792 <tud_task+0x46a>
1000a790:	e0d0      	b.n	1000a934 <tud_task+0x60c>
1000a792:	1a9b      	subs	r3, r3, r2
1000a794:	b2db      	uxtb	r3, r3
1000a796:	2b00      	cmp	r3, #0
1000a798:	d000      	beq.n	1000a79c <tud_task+0x474>
1000a79a:	e652      	b.n	1000a442 <tud_task+0x11a>
1000a79c:	4883      	ldr	r0, [pc, #524]	; (1000a9ac <tud_task+0x684>)
1000a79e:	4d81      	ldr	r5, [pc, #516]	; (1000a9a4 <tud_task+0x67c>)
1000a7a0:	f000 fca2 	bl	1000b0e8 <usbd_control_set_complete_callback>
1000a7a4:	2100      	movs	r1, #0
1000a7a6:	4650      	mov	r0, sl
1000a7a8:	68eb      	ldr	r3, [r5, #12]
1000a7aa:	aa08      	add	r2, sp, #32
1000a7ac:	4798      	blx	r3
1000a7ae:	e73b      	b.n	1000a628 <tud_task+0x300>
1000a7b0:	2a00      	cmp	r2, #0
1000a7b2:	d000      	beq.n	1000a7b6 <tud_task+0x48e>
1000a7b4:	e645      	b.n	1000a442 <tud_task+0x11a>
1000a7b6:	2300      	movs	r3, #0
1000a7b8:	9301      	str	r3, [sp, #4]
1000a7ba:	e77f      	b.n	1000a6bc <tud_task+0x394>
1000a7bc:	0043      	lsls	r3, r0, #1
1000a7be:	469c      	mov	ip, r3
1000a7c0:	4b79      	ldr	r3, [pc, #484]	; (1000a9a8 <tud_task+0x680>)
1000a7c2:	4460      	add	r0, ip
1000a7c4:	681b      	ldr	r3, [r3, #0]
1000a7c6:	00c0      	lsls	r0, r0, #3
1000a7c8:	469c      	mov	ip, r3
1000a7ca:	0003      	movs	r3, r0
1000a7cc:	4463      	add	r3, ip
1000a7ce:	9301      	str	r3, [sp, #4]
1000a7d0:	2a00      	cmp	r2, #0
1000a7d2:	d100      	bne.n	1000a7d6 <tud_task+0x4ae>
1000a7d4:	e772      	b.n	1000a6bc <tud_task+0x394>
1000a7d6:	2b00      	cmp	r3, #0
1000a7d8:	d100      	bne.n	1000a7dc <tud_task+0x4b4>
1000a7da:	e632      	b.n	1000a442 <tud_task+0x11a>
1000a7dc:	68d8      	ldr	r0, [r3, #12]
1000a7de:	f000 fc83 	bl	1000b0e8 <usbd_control_set_complete_callback>
1000a7e2:	9b01      	ldr	r3, [sp, #4]
1000a7e4:	2100      	movs	r1, #0
1000a7e6:	4650      	mov	r0, sl
1000a7e8:	68db      	ldr	r3, [r3, #12]
1000a7ea:	aa08      	add	r2, sp, #32
1000a7ec:	4798      	blx	r3
1000a7ee:	e71b      	b.n	1000a628 <tud_task+0x300>
1000a7f0:	4a6d      	ldr	r2, [pc, #436]	; (1000a9a8 <tud_task+0x680>)
1000a7f2:	005d      	lsls	r5, r3, #1
1000a7f4:	18eb      	adds	r3, r5, r3
1000a7f6:	6815      	ldr	r5, [r2, #0]
1000a7f8:	00db      	lsls	r3, r3, #3
1000a7fa:	18ed      	adds	r5, r5, r3
1000a7fc:	2d00      	cmp	r5, #0
1000a7fe:	d100      	bne.n	1000a802 <tud_task+0x4da>
1000a800:	e61f      	b.n	1000a442 <tud_task+0x11a>
1000a802:	68e8      	ldr	r0, [r5, #12]
1000a804:	e796      	b.n	1000a734 <tud_task+0x40c>
1000a806:	88e3      	ldrh	r3, [r4, #6]
1000a808:	2b01      	cmp	r3, #1
1000a80a:	d000      	beq.n	1000a80e <tud_task+0x4e6>
1000a80c:	e619      	b.n	1000a442 <tud_task+0x11a>
1000a80e:	2208      	movs	r2, #8
1000a810:	783b      	ldrb	r3, [r7, #0]
1000a812:	4650      	mov	r0, sl
1000a814:	4393      	bics	r3, r2
1000a816:	a908      	add	r1, sp, #32
1000a818:	703b      	strb	r3, [r7, #0]
1000a81a:	f000 fbe5 	bl	1000afe8 <tud_control_status>
1000a81e:	e593      	b.n	1000a348 <tud_task+0x20>
1000a820:	2002      	movs	r0, #2
1000a822:	7839      	ldrb	r1, [r7, #0]
1000a824:	ab06      	add	r3, sp, #24
1000a826:	1c9a      	adds	r2, r3, #2
1000a828:	068b      	lsls	r3, r1, #26
1000a82a:	0889      	lsrs	r1, r1, #2
1000a82c:	0fdb      	lsrs	r3, r3, #31
1000a82e:	4001      	ands	r1, r0
1000a830:	430b      	orrs	r3, r1
1000a832:	e759      	b.n	1000a6e8 <tud_task+0x3c0>
1000a834:	79a3      	ldrb	r3, [r4, #6]
1000a836:	9301      	str	r3, [sp, #4]
1000a838:	001a      	movs	r2, r3
1000a83a:	787b      	ldrb	r3, [r7, #1]
1000a83c:	429a      	cmp	r2, r3
1000a83e:	d007      	beq.n	1000a850 <tud_task+0x528>
1000a840:	787b      	ldrb	r3, [r7, #1]
1000a842:	2b00      	cmp	r3, #0
1000a844:	d000      	beq.n	1000a848 <tud_task+0x520>
1000a846:	e11e      	b.n	1000aa86 <tud_task+0x75e>
1000a848:	9b01      	ldr	r3, [sp, #4]
1000a84a:	2b00      	cmp	r3, #0
1000a84c:	d000      	beq.n	1000a850 <tud_task+0x528>
1000a84e:	e0b3      	b.n	1000a9b8 <tud_task+0x690>
1000a850:	9b01      	ldr	r3, [sp, #4]
1000a852:	4650      	mov	r0, sl
1000a854:	a908      	add	r1, sp, #32
1000a856:	707b      	strb	r3, [r7, #1]
1000a858:	f000 fbc6 	bl	1000afe8 <tud_control_status>
1000a85c:	e574      	b.n	1000a348 <tud_task+0x20>
1000a85e:	787b      	ldrb	r3, [r7, #1]
1000a860:	aa06      	add	r2, sp, #24
1000a862:	3202      	adds	r2, #2
1000a864:	7013      	strb	r3, [r2, #0]
1000a866:	4650      	mov	r0, sl
1000a868:	2301      	movs	r3, #1
1000a86a:	a908      	add	r1, sp, #32
1000a86c:	f000 fbd4 	bl	1000b018 <tud_control_xfer>
1000a870:	e56a      	b.n	1000a348 <tud_task+0x20>
1000a872:	88e0      	ldrh	r0, [r4, #6]
1000a874:	0a03      	lsrs	r3, r0, #8
1000a876:	b2c0      	uxtb	r0, r0
1000a878:	2b0f      	cmp	r3, #15
1000a87a:	d900      	bls.n	1000a87e <tud_task+0x556>
1000a87c:	e5e1      	b.n	1000a442 <tud_task+0x11a>
1000a87e:	494c      	ldr	r1, [pc, #304]	; (1000a9b0 <tud_task+0x688>)
1000a880:	009a      	lsls	r2, r3, #2
1000a882:	588a      	ldr	r2, [r1, r2]
1000a884:	4697      	mov	pc, r2
1000a886:	a808      	add	r0, sp, #32
1000a888:	f000 fc34 	bl	1000b0f4 <usbd_control_set_request>
1000a88c:	4650      	mov	r0, sl
1000a88e:	79a1      	ldrb	r1, [r4, #6]
1000a890:	f7ff f900 	bl	10009a94 <dcd_set_address>
1000a894:	2202      	movs	r2, #2
1000a896:	783b      	ldrb	r3, [r7, #0]
1000a898:	4313      	orrs	r3, r2
1000a89a:	703b      	strb	r3, [r7, #0]
1000a89c:	e554      	b.n	1000a348 <tud_task+0x20>
1000a89e:	88e3      	ldrh	r3, [r4, #6]
1000a8a0:	2b01      	cmp	r3, #1
1000a8a2:	d000      	beq.n	1000a8a6 <tud_task+0x57e>
1000a8a4:	e5cd      	b.n	1000a442 <tud_task+0x11a>
1000a8a6:	2208      	movs	r2, #8
1000a8a8:	783b      	ldrb	r3, [r7, #0]
1000a8aa:	4650      	mov	r0, sl
1000a8ac:	4313      	orrs	r3, r2
1000a8ae:	a908      	add	r1, sp, #32
1000a8b0:	703b      	strb	r3, [r7, #0]
1000a8b2:	f000 fb99 	bl	1000afe8 <tud_control_status>
1000a8b6:	e547      	b.n	1000a348 <tud_task+0x20>
1000a8b8:	2b02      	cmp	r3, #2
1000a8ba:	d100      	bne.n	1000a8be <tud_task+0x596>
1000a8bc:	e194      	b.n	1000abe8 <tud_task+0x8c0>
1000a8be:	4b3d      	ldr	r3, [pc, #244]	; (1000a9b4 <tud_task+0x68c>)
1000a8c0:	2b00      	cmp	r3, #0
1000a8c2:	d100      	bne.n	1000a8c6 <tud_task+0x59e>
1000a8c4:	e5bd      	b.n	1000a442 <tud_task+0x11a>
1000a8c6:	e000      	b.n	1000a8ca <tud_task+0x5a2>
1000a8c8:	bf00      	nop
1000a8ca:	0002      	movs	r2, r0
1000a8cc:	2a00      	cmp	r2, #0
1000a8ce:	d100      	bne.n	1000a8d2 <tud_task+0x5aa>
1000a8d0:	e5b7      	b.n	1000a442 <tud_task+0x11a>
1000a8d2:	78d3      	ldrb	r3, [r2, #3]
1000a8d4:	7891      	ldrb	r1, [r2, #2]
1000a8d6:	021b      	lsls	r3, r3, #8
1000a8d8:	430b      	orrs	r3, r1
1000a8da:	4650      	mov	r0, sl
1000a8dc:	a908      	add	r1, sp, #32
1000a8de:	f000 fb9b 	bl	1000b018 <tud_control_xfer>
1000a8e2:	e6a1      	b.n	1000a628 <tud_task+0x300>
1000a8e4:	4b2f      	ldr	r3, [pc, #188]	; (1000a9a4 <tud_task+0x67c>)
1000a8e6:	4831      	ldr	r0, [pc, #196]	; (1000a9ac <tud_task+0x684>)
1000a8e8:	9301      	str	r3, [sp, #4]
1000a8ea:	e778      	b.n	1000a7de <tud_task+0x4b6>
1000a8ec:	88e2      	ldrh	r2, [r4, #6]
1000a8ee:	2a00      	cmp	r2, #0
1000a8f0:	d109      	bne.n	1000a906 <tud_task+0x5de>
1000a8f2:	4643      	mov	r3, r8
1000a8f4:	2b01      	cmp	r3, #1
1000a8f6:	d03d      	beq.n	1000a974 <tud_task+0x64c>
1000a8f8:	9b00      	ldr	r3, [sp, #0]
1000a8fa:	18fb      	adds	r3, r7, r3
1000a8fc:	195d      	adds	r5, r3, r5
1000a8fe:	3530      	adds	r5, #48	; 0x30
1000a900:	78eb      	ldrb	r3, [r5, #3]
1000a902:	079b      	lsls	r3, r3, #30
1000a904:	d52a      	bpl.n	1000a95c <tud_task+0x634>
1000a906:	9d01      	ldr	r5, [sp, #4]
1000a908:	2d00      	cmp	r5, #0
1000a90a:	d100      	bne.n	1000a90e <tud_task+0x5e6>
1000a90c:	e51c      	b.n	1000a348 <tud_task+0x20>
1000a90e:	68eb      	ldr	r3, [r5, #12]
1000a910:	0018      	movs	r0, r3
1000a912:	9300      	str	r3, [sp, #0]
1000a914:	f000 fbe8 	bl	1000b0e8 <usbd_control_set_complete_callback>
1000a918:	68eb      	ldr	r3, [r5, #12]
1000a91a:	2100      	movs	r1, #0
1000a91c:	aa08      	add	r2, sp, #32
1000a91e:	4650      	mov	r0, sl
1000a920:	4798      	blx	r3
1000a922:	2000      	movs	r0, #0
1000a924:	f000 fbe0 	bl	1000b0e8 <usbd_control_set_complete_callback>
1000a928:	2334      	movs	r3, #52	; 0x34
1000a92a:	5cfb      	ldrb	r3, [r7, r3]
1000a92c:	07db      	lsls	r3, r3, #31
1000a92e:	d500      	bpl.n	1000a932 <tud_task+0x60a>
1000a930:	e50a      	b.n	1000a348 <tud_task+0x20>
1000a932:	e71b      	b.n	1000a76c <tud_task+0x444>
1000a934:	4a1c      	ldr	r2, [pc, #112]	; (1000a9a8 <tud_task+0x680>)
1000a936:	005d      	lsls	r5, r3, #1
1000a938:	18eb      	adds	r3, r5, r3
1000a93a:	6815      	ldr	r5, [r2, #0]
1000a93c:	00db      	lsls	r3, r3, #3
1000a93e:	18ed      	adds	r5, r5, r3
1000a940:	2d00      	cmp	r5, #0
1000a942:	d100      	bne.n	1000a946 <tud_task+0x61e>
1000a944:	e57d      	b.n	1000a442 <tud_task+0x11a>
1000a946:	68e8      	ldr	r0, [r5, #12]
1000a948:	e72a      	b.n	1000a7a0 <tud_task+0x478>
1000a94a:	ab06      	add	r3, sp, #24
1000a94c:	1c9a      	adds	r2, r3, #2
1000a94e:	4650      	mov	r0, sl
1000a950:	2301      	movs	r3, #1
1000a952:	a908      	add	r1, sp, #32
1000a954:	7015      	strb	r5, [r2, #0]
1000a956:	f000 fb5f 	bl	1000b018 <tud_control_xfer>
1000a95a:	e4f5      	b.n	1000a348 <tud_task+0x20>
1000a95c:	4650      	mov	r0, sl
1000a95e:	f7ff fa43 	bl	10009de8 <dcd_edpt_stall>
1000a962:	2202      	movs	r2, #2
1000a964:	78eb      	ldrb	r3, [r5, #3]
1000a966:	4313      	orrs	r3, r2
1000a968:	2201      	movs	r2, #1
1000a96a:	70eb      	strb	r3, [r5, #3]
1000a96c:	78eb      	ldrb	r3, [r5, #3]
1000a96e:	4313      	orrs	r3, r2
1000a970:	70eb      	strb	r3, [r5, #3]
1000a972:	e7c8      	b.n	1000a906 <tud_task+0x5de>
1000a974:	9b00      	ldr	r3, [sp, #0]
1000a976:	18fb      	adds	r3, r7, r3
1000a978:	195d      	adds	r5, r3, r5
1000a97a:	3530      	adds	r5, #48	; 0x30
1000a97c:	78eb      	ldrb	r3, [r5, #3]
1000a97e:	079b      	lsls	r3, r3, #30
1000a980:	d5c1      	bpl.n	1000a906 <tud_task+0x5de>
1000a982:	4650      	mov	r0, sl
1000a984:	f7ff fa4c 	bl	10009e20 <dcd_edpt_clear_stall>
1000a988:	464a      	mov	r2, r9
1000a98a:	78eb      	ldrb	r3, [r5, #3]
1000a98c:	4393      	bics	r3, r2
1000a98e:	4642      	mov	r2, r8
1000a990:	70eb      	strb	r3, [r5, #3]
1000a992:	78eb      	ldrb	r3, [r5, #3]
1000a994:	4393      	bics	r3, r2
1000a996:	70eb      	strb	r3, [r5, #3]
1000a998:	e7b5      	b.n	1000a906 <tud_task+0x5de>
1000a99a:	46c0      	nop			; (mov r8, r8)
1000a99c:	10009561 	.word	0x10009561
1000a9a0:	2002714d 	.word	0x2002714d
1000a9a4:	1000d6f4 	.word	0x1000d6f4
1000a9a8:	20000848 	.word	0x20000848
1000a9ac:	1000b515 	.word	0x1000b515
1000a9b0:	1000d6b4 	.word	0x1000d6b4
1000a9b4:	00000000 	.word	0x00000000
1000a9b8:	1e58      	subs	r0, r3, #1
1000a9ba:	b2c0      	uxtb	r0, r0
1000a9bc:	f7fe ff18 	bl	100097f0 <tud_descriptor_configuration_cb>
1000a9c0:	2800      	cmp	r0, #0
1000a9c2:	d100      	bne.n	1000a9c6 <tud_task+0x69e>
1000a9c4:	e53d      	b.n	1000a442 <tud_task+0x11a>
1000a9c6:	7843      	ldrb	r3, [r0, #1]
1000a9c8:	9304      	str	r3, [sp, #16]
1000a9ca:	2b02      	cmp	r3, #2
1000a9cc:	d000      	beq.n	1000a9d0 <tud_task+0x6a8>
1000a9ce:	e538      	b.n	1000a442 <tud_task+0x11a>
1000a9d0:	2101      	movs	r1, #1
1000a9d2:	79c3      	ldrb	r3, [r0, #7]
1000a9d4:	119a      	asrs	r2, r3, #6
1000a9d6:	115b      	asrs	r3, r3, #5
1000a9d8:	400a      	ands	r2, r1
1000a9da:	400b      	ands	r3, r1
1000a9dc:	0152      	lsls	r2, r2, #5
1000a9de:	011b      	lsls	r3, r3, #4
1000a9e0:	4313      	orrs	r3, r2
1000a9e2:	783a      	ldrb	r2, [r7, #0]
1000a9e4:	312f      	adds	r1, #47	; 0x2f
1000a9e6:	438a      	bics	r2, r1
1000a9e8:	4313      	orrs	r3, r2
1000a9ea:	703b      	strb	r3, [r7, #0]
1000a9ec:	2309      	movs	r3, #9
1000a9ee:	4699      	mov	r9, r3
1000a9f0:	78c3      	ldrb	r3, [r0, #3]
1000a9f2:	7882      	ldrb	r2, [r0, #2]
1000a9f4:	021b      	lsls	r3, r3, #8
1000a9f6:	4313      	orrs	r3, r2
1000a9f8:	18c3      	adds	r3, r0, r3
1000a9fa:	4481      	add	r9, r0
1000a9fc:	9303      	str	r3, [sp, #12]
1000a9fe:	9b03      	ldr	r3, [sp, #12]
1000aa00:	454b      	cmp	r3, r9
1000aa02:	d800      	bhi.n	1000aa06 <tud_task+0x6de>
1000aa04:	e0e9      	b.n	1000abda <tud_task+0x8b2>
1000aa06:	464b      	mov	r3, r9
1000aa08:	2201      	movs	r2, #1
1000aa0a:	785b      	ldrb	r3, [r3, #1]
1000aa0c:	9200      	str	r2, [sp, #0]
1000aa0e:	2b0b      	cmp	r3, #11
1000aa10:	d107      	bne.n	1000aa22 <tud_task+0x6fa>
1000aa12:	464b      	mov	r3, r9
1000aa14:	78db      	ldrb	r3, [r3, #3]
1000aa16:	9300      	str	r3, [sp, #0]
1000aa18:	464b      	mov	r3, r9
1000aa1a:	781b      	ldrb	r3, [r3, #0]
1000aa1c:	4499      	add	r9, r3
1000aa1e:	464b      	mov	r3, r9
1000aa20:	785b      	ldrb	r3, [r3, #1]
1000aa22:	2b04      	cmp	r3, #4
1000aa24:	d000      	beq.n	1000aa28 <tud_task+0x700>
1000aa26:	e50c      	b.n	1000a442 <tud_task+0x11a>
1000aa28:	464a      	mov	r2, r9
1000aa2a:	9b03      	ldr	r3, [sp, #12]
1000aa2c:	2500      	movs	r5, #0
1000aa2e:	1a9b      	subs	r3, r3, r2
1000aa30:	b29b      	uxth	r3, r3
1000aa32:	9302      	str	r3, [sp, #8]
1000aa34:	4a6e      	ldr	r2, [pc, #440]	; (1000abf0 <tud_task+0x8c8>)
1000aa36:	4b6f      	ldr	r3, [pc, #444]	; (1000abf4 <tud_task+0x8cc>)
1000aa38:	781b      	ldrb	r3, [r3, #0]
1000aa3a:	2a00      	cmp	r2, #0
1000aa3c:	d116      	bne.n	1000aa6c <tud_task+0x744>
1000aa3e:	e062      	b.n	1000ab06 <tud_task+0x7de>
1000aa40:	42ab      	cmp	r3, r5
1000aa42:	d171      	bne.n	1000ab28 <tud_task+0x800>
1000aa44:	4a6c      	ldr	r2, [pc, #432]	; (1000abf8 <tud_task+0x8d0>)
1000aa46:	4b6d      	ldr	r3, [pc, #436]	; (1000abfc <tud_task+0x8d4>)
1000aa48:	4690      	mov	r8, r2
1000aa4a:	4649      	mov	r1, r9
1000aa4c:	4650      	mov	r0, sl
1000aa4e:	9a02      	ldr	r2, [sp, #8]
1000aa50:	4798      	blx	r3
1000aa52:	4684      	mov	ip, r0
1000aa54:	2808      	cmp	r0, #8
1000aa56:	d902      	bls.n	1000aa5e <tud_task+0x736>
1000aa58:	9a02      	ldr	r2, [sp, #8]
1000aa5a:	4282      	cmp	r2, r0
1000aa5c:	d269      	bcs.n	1000ab32 <tud_task+0x80a>
1000aa5e:	4b65      	ldr	r3, [pc, #404]	; (1000abf4 <tud_task+0x8cc>)
1000aa60:	3501      	adds	r5, #1
1000aa62:	781b      	ldrb	r3, [r3, #0]
1000aa64:	b2ed      	uxtb	r5, r5
1000aa66:	42ab      	cmp	r3, r5
1000aa68:	d200      	bcs.n	1000aa6c <tud_task+0x744>
1000aa6a:	e4ea      	b.n	1000a442 <tud_task+0x11a>
1000aa6c:	42ab      	cmp	r3, r5
1000aa6e:	d9e7      	bls.n	1000aa40 <tud_task+0x718>
1000aa70:	4a63      	ldr	r2, [pc, #396]	; (1000ac00 <tud_task+0x8d8>)
1000aa72:	006b      	lsls	r3, r5, #1
1000aa74:	6812      	ldr	r2, [r2, #0]
1000aa76:	195b      	adds	r3, r3, r5
1000aa78:	4690      	mov	r8, r2
1000aa7a:	00db      	lsls	r3, r3, #3
1000aa7c:	4498      	add	r8, r3
1000aa7e:	4643      	mov	r3, r8
1000aa80:	9205      	str	r2, [sp, #20]
1000aa82:	689b      	ldr	r3, [r3, #8]
1000aa84:	e7e1      	b.n	1000aa4a <tud_task+0x722>
1000aa86:	4650      	mov	r0, sl
1000aa88:	f7ff f93e 	bl	10009d08 <dcd_edpt_close_all>
1000aa8c:	78bb      	ldrb	r3, [r7, #2]
1000aa8e:	4d59      	ldr	r5, [pc, #356]	; (1000abf4 <tud_task+0x8cc>)
1000aa90:	4a57      	ldr	r2, [pc, #348]	; (1000abf0 <tud_task+0x8c8>)
1000aa92:	9300      	str	r3, [sp, #0]
1000aa94:	2100      	movs	r1, #0
1000aa96:	782b      	ldrb	r3, [r5, #0]
1000aa98:	2a00      	cmp	r2, #0
1000aa9a:	d02d      	beq.n	1000aaf8 <tud_task+0x7d0>
1000aa9c:	4a58      	ldr	r2, [pc, #352]	; (1000ac00 <tud_task+0x8d8>)
1000aa9e:	4690      	mov	r8, r2
1000aaa0:	002a      	movs	r2, r5
1000aaa2:	000d      	movs	r5, r1
1000aaa4:	4691      	mov	r9, r2
1000aaa6:	429d      	cmp	r5, r3
1000aaa8:	d31d      	bcc.n	1000aae6 <tud_task+0x7be>
1000aaaa:	d000      	beq.n	1000aaae <tud_task+0x786>
1000aaac:	e5a0      	b.n	1000a5f0 <tud_task+0x2c8>
1000aaae:	4b55      	ldr	r3, [pc, #340]	; (1000ac04 <tud_task+0x8dc>)
1000aab0:	4650      	mov	r0, sl
1000aab2:	4798      	blx	r3
1000aab4:	464b      	mov	r3, r9
1000aab6:	3501      	adds	r5, #1
1000aab8:	781b      	ldrb	r3, [r3, #0]
1000aaba:	b2ed      	uxtb	r5, r5
1000aabc:	42ab      	cmp	r3, r5
1000aabe:	d2f2      	bcs.n	1000aaa6 <tud_task+0x77e>
1000aac0:	2253      	movs	r2, #83	; 0x53
1000aac2:	2100      	movs	r1, #0
1000aac4:	0038      	movs	r0, r7
1000aac6:	f7fe fadb 	bl	10009080 <__wrap_memset>
1000aaca:	2210      	movs	r2, #16
1000aacc:	21ff      	movs	r1, #255	; 0xff
1000aace:	1cf8      	adds	r0, r7, #3
1000aad0:	f7fe fad6 	bl	10009080 <__wrap_memset>
1000aad4:	0038      	movs	r0, r7
1000aad6:	2220      	movs	r2, #32
1000aad8:	21ff      	movs	r1, #255	; 0xff
1000aada:	3013      	adds	r0, #19
1000aadc:	f7fe fad0 	bl	10009080 <__wrap_memset>
1000aae0:	9b00      	ldr	r3, [sp, #0]
1000aae2:	70bb      	strb	r3, [r7, #2]
1000aae4:	e6b0      	b.n	1000a848 <tud_task+0x520>
1000aae6:	4642      	mov	r2, r8
1000aae8:	6812      	ldr	r2, [r2, #0]
1000aaea:	006b      	lsls	r3, r5, #1
1000aaec:	4694      	mov	ip, r2
1000aaee:	195b      	adds	r3, r3, r5
1000aaf0:	00db      	lsls	r3, r3, #3
1000aaf2:	4463      	add	r3, ip
1000aaf4:	685b      	ldr	r3, [r3, #4]
1000aaf6:	e7db      	b.n	1000aab0 <tud_task+0x788>
1000aaf8:	4650      	mov	r0, sl
1000aafa:	f000 fc83 	bl	1000b404 <cdcd_reset>
1000aafe:	782b      	ldrb	r3, [r5, #0]
1000ab00:	2b00      	cmp	r3, #0
1000ab02:	d0dd      	beq.n	1000aac0 <tud_task+0x798>
1000ab04:	e574      	b.n	1000a5f0 <tud_task+0x2c8>
1000ab06:	9b02      	ldr	r3, [sp, #8]
1000ab08:	4649      	mov	r1, r9
1000ab0a:	001a      	movs	r2, r3
1000ab0c:	4650      	mov	r0, sl
1000ab0e:	4698      	mov	r8, r3
1000ab10:	f000 fc8e 	bl	1000b430 <cdcd_open>
1000ab14:	4684      	mov	ip, r0
1000ab16:	2808      	cmp	r0, #8
1000ab18:	d901      	bls.n	1000ab1e <tud_task+0x7f6>
1000ab1a:	4540      	cmp	r0, r8
1000ab1c:	d907      	bls.n	1000ab2e <tud_task+0x806>
1000ab1e:	4b35      	ldr	r3, [pc, #212]	; (1000abf4 <tud_task+0x8cc>)
1000ab20:	781b      	ldrb	r3, [r3, #0]
1000ab22:	2b00      	cmp	r3, #0
1000ab24:	d100      	bne.n	1000ab28 <tud_task+0x800>
1000ab26:	e48c      	b.n	1000a442 <tud_task+0x11a>
1000ab28:	2300      	movs	r3, #0
1000ab2a:	689b      	ldr	r3, [r3, #8]
1000ab2c:	deff      	udf	#255	; 0xff
1000ab2e:	4b32      	ldr	r3, [pc, #200]	; (1000abf8 <tud_task+0x8d0>)
1000ab30:	4698      	mov	r8, r3
1000ab32:	9b00      	ldr	r3, [sp, #0]
1000ab34:	2b01      	cmp	r3, #1
1000ab36:	d048      	beq.n	1000abca <tud_task+0x8a2>
1000ab38:	9b00      	ldr	r3, [sp, #0]
1000ab3a:	2b00      	cmp	r3, #0
1000ab3c:	d010      	beq.n	1000ab60 <tud_task+0x838>
1000ab3e:	464b      	mov	r3, r9
1000ab40:	7899      	ldrb	r1, [r3, #2]
1000ab42:	2300      	movs	r3, #0
1000ab44:	e005      	b.n	1000ab52 <tud_task+0x82a>
1000ab46:	70d5      	strb	r5, [r2, #3]
1000ab48:	3301      	adds	r3, #1
1000ab4a:	9a00      	ldr	r2, [sp, #0]
1000ab4c:	b2db      	uxtb	r3, r3
1000ab4e:	4293      	cmp	r3, r2
1000ab50:	d206      	bcs.n	1000ab60 <tud_task+0x838>
1000ab52:	18ca      	adds	r2, r1, r3
1000ab54:	b2d2      	uxtb	r2, r2
1000ab56:	18ba      	adds	r2, r7, r2
1000ab58:	78d0      	ldrb	r0, [r2, #3]
1000ab5a:	28ff      	cmp	r0, #255	; 0xff
1000ab5c:	d0f3      	beq.n	1000ab46 <tud_task+0x81e>
1000ab5e:	e470      	b.n	1000a442 <tud_task+0x11a>
1000ab60:	0038      	movs	r0, r7
1000ab62:	46e0      	mov	r8, ip
1000ab64:	002b      	movs	r3, r5
1000ab66:	4649      	mov	r1, r9
1000ab68:	4662      	mov	r2, ip
1000ab6a:	3013      	adds	r0, #19
1000ab6c:	f000 fe2e 	bl	1000b7cc <tu_edpt_bind_driver>
1000ab70:	4b20      	ldr	r3, [pc, #128]	; (1000abf4 <tud_task+0x8cc>)
1000ab72:	44c1      	add	r9, r8
1000ab74:	781b      	ldrb	r3, [r3, #0]
1000ab76:	42ab      	cmp	r3, r5
1000ab78:	d300      	bcc.n	1000ab7c <tud_task+0x854>
1000ab7a:	e740      	b.n	1000a9fe <tud_task+0x6d6>
1000ab7c:	e461      	b.n	1000a442 <tud_task+0x11a>
1000ab7e:	4b22      	ldr	r3, [pc, #136]	; (1000ac08 <tud_task+0x8e0>)
1000ab80:	2b00      	cmp	r3, #0
1000ab82:	d100      	bne.n	1000ab86 <tud_task+0x85e>
1000ab84:	e45d      	b.n	1000a442 <tud_task+0x11a>
1000ab86:	e000      	b.n	1000ab8a <tud_task+0x862>
1000ab88:	bf00      	nop
1000ab8a:	0002      	movs	r2, r0
1000ab8c:	e6a1      	b.n	1000a8d2 <tud_task+0x5aa>
1000ab8e:	f7fe fe2b 	bl	100097e8 <tud_descriptor_device_cb>
1000ab92:	2312      	movs	r3, #18
1000ab94:	0002      	movs	r2, r0
1000ab96:	a908      	add	r1, sp, #32
1000ab98:	4650      	mov	r0, sl
1000ab9a:	f000 fa3d 	bl	1000b018 <tud_control_xfer>
1000ab9e:	e543      	b.n	1000a628 <tud_task+0x300>
1000aba0:	4b1a      	ldr	r3, [pc, #104]	; (1000ac0c <tud_task+0x8e4>)
1000aba2:	2b00      	cmp	r3, #0
1000aba4:	d100      	bne.n	1000aba8 <tud_task+0x880>
1000aba6:	e44c      	b.n	1000a442 <tud_task+0x11a>
1000aba8:	e000      	b.n	1000abac <tud_task+0x884>
1000abaa:	bf00      	nop
1000abac:	1e02      	subs	r2, r0, #0
1000abae:	d100      	bne.n	1000abb2 <tud_task+0x88a>
1000abb0:	e447      	b.n	1000a442 <tud_task+0x11a>
1000abb2:	4650      	mov	r0, sl
1000abb4:	7813      	ldrb	r3, [r2, #0]
1000abb6:	a908      	add	r1, sp, #32
1000abb8:	f000 fa2e 	bl	1000b018 <tud_control_xfer>
1000abbc:	e534      	b.n	1000a628 <tud_task+0x300>
1000abbe:	8921      	ldrh	r1, [r4, #8]
1000abc0:	f7fe fe1a 	bl	100097f8 <tud_descriptor_string_cb>
1000abc4:	1e02      	subs	r2, r0, #0
1000abc6:	d1f4      	bne.n	1000abb2 <tud_task+0x88a>
1000abc8:	e43b      	b.n	1000a442 <tud_task+0x11a>
1000abca:	4642      	mov	r2, r8
1000abcc:	4b0b      	ldr	r3, [pc, #44]	; (1000abfc <tud_task+0x8d4>)
1000abce:	6892      	ldr	r2, [r2, #8]
1000abd0:	429a      	cmp	r2, r3
1000abd2:	d1b4      	bne.n	1000ab3e <tud_task+0x816>
1000abd4:	9b04      	ldr	r3, [sp, #16]
1000abd6:	9300      	str	r3, [sp, #0]
1000abd8:	e7b1      	b.n	1000ab3e <tud_task+0x816>
1000abda:	4b0d      	ldr	r3, [pc, #52]	; (1000ac10 <tud_task+0x8e8>)
1000abdc:	2b00      	cmp	r3, #0
1000abde:	d100      	bne.n	1000abe2 <tud_task+0x8ba>
1000abe0:	e636      	b.n	1000a850 <tud_task+0x528>
1000abe2:	e000      	b.n	1000abe6 <tud_task+0x8be>
1000abe4:	bf00      	nop
1000abe6:	e633      	b.n	1000a850 <tud_task+0x528>
1000abe8:	f7fe fe02 	bl	100097f0 <tud_descriptor_configuration_cb>
1000abec:	0002      	movs	r2, r0
1000abee:	e66d      	b.n	1000a8cc <tud_task+0x5a4>
1000abf0:	10009561 	.word	0x10009561
1000abf4:	2002714d 	.word	0x2002714d
1000abf8:	1000d6f4 	.word	0x1000d6f4
1000abfc:	1000b431 	.word	0x1000b431
1000ac00:	20000848 	.word	0x20000848
1000ac04:	1000b405 	.word	0x1000b405
	...

1000ac14 <dcd_event_bus_signal>:
1000ac14:	b530      	push	{r4, r5, lr}
1000ac16:	b087      	sub	sp, #28
1000ac18:	0005      	movs	r5, r0
1000ac1a:	000c      	movs	r4, r1
1000ac1c:	220c      	movs	r2, #12
1000ac1e:	2100      	movs	r1, #0
1000ac20:	4668      	mov	r0, sp
1000ac22:	f7fe fa2d 	bl	10009080 <__wrap_memset>
1000ac26:	466b      	mov	r3, sp
1000ac28:	701d      	strb	r5, [r3, #0]
1000ac2a:	705c      	strb	r4, [r3, #1]
1000ac2c:	2c04      	cmp	r4, #4
1000ac2e:	d04f      	beq.n	1000acd0 <dcd_event_bus_signal+0xbc>
1000ac30:	d809      	bhi.n	1000ac46 <dcd_event_bus_signal+0x32>
1000ac32:	2c02      	cmp	r4, #2
1000ac34:	d034      	beq.n	1000aca0 <dcd_event_bus_signal+0x8c>
1000ac36:	2c03      	cmp	r4, #3
1000ac38:	d119      	bne.n	1000ac6e <dcd_event_bus_signal+0x5a>
1000ac3a:	4b3c      	ldr	r3, [pc, #240]	; (1000ad2c <dcd_event_bus_signal+0x118>)
1000ac3c:	781a      	ldrb	r2, [r3, #0]
1000ac3e:	0752      	lsls	r2, r2, #29
1000ac40:	d458      	bmi.n	1000acf4 <dcd_event_bus_signal+0xe0>
1000ac42:	b007      	add	sp, #28
1000ac44:	bd30      	pop	{r4, r5, pc}
1000ac46:	2c05      	cmp	r4, #5
1000ac48:	d111      	bne.n	1000ac6e <dcd_event_bus_signal+0x5a>
1000ac4a:	4b38      	ldr	r3, [pc, #224]	; (1000ad2c <dcd_event_bus_signal+0x118>)
1000ac4c:	781a      	ldrb	r2, [r3, #0]
1000ac4e:	07d2      	lsls	r2, r2, #31
1000ac50:	d5f7      	bpl.n	1000ac42 <dcd_event_bus_signal+0x2e>
1000ac52:	2104      	movs	r1, #4
1000ac54:	781a      	ldrb	r2, [r3, #0]
1000ac56:	438a      	bics	r2, r1
1000ac58:	701a      	strb	r2, [r3, #0]
1000ac5a:	4b35      	ldr	r3, [pc, #212]	; (1000ad30 <dcd_event_bus_signal+0x11c>)
1000ac5c:	681c      	ldr	r4, [r3, #0]
1000ac5e:	69e2      	ldr	r2, [r4, #28]
1000ac60:	f3ef 8110 	mrs	r1, PRIMASK
1000ac64:	b672      	cpsid	i
1000ac66:	6813      	ldr	r3, [r2, #0]
1000ac68:	2b00      	cmp	r3, #0
1000ac6a:	d109      	bne.n	1000ac80 <dcd_event_bus_signal+0x6c>
1000ac6c:	e7fb      	b.n	1000ac66 <dcd_event_bus_signal+0x52>
1000ac6e:	4b30      	ldr	r3, [pc, #192]	; (1000ad30 <dcd_event_bus_signal+0x11c>)
1000ac70:	681c      	ldr	r4, [r3, #0]
1000ac72:	69e2      	ldr	r2, [r4, #28]
1000ac74:	f3ef 8110 	mrs	r1, PRIMASK
1000ac78:	b672      	cpsid	i
1000ac7a:	6813      	ldr	r3, [r2, #0]
1000ac7c:	2b00      	cmp	r3, #0
1000ac7e:	d0fc      	beq.n	1000ac7a <dcd_event_bus_signal+0x66>
1000ac80:	f3bf 8f5f 	dmb	sy
1000ac84:	6221      	str	r1, [r4, #32]
1000ac86:	4669      	mov	r1, sp
1000ac88:	0020      	movs	r0, r4
1000ac8a:	f000 fee5 	bl	1000ba58 <tu_fifo_write>
1000ac8e:	69e2      	ldr	r2, [r4, #28]
1000ac90:	6a23      	ldr	r3, [r4, #32]
1000ac92:	f3bf 8f5f 	dmb	sy
1000ac96:	2100      	movs	r1, #0
1000ac98:	6011      	str	r1, [r2, #0]
1000ac9a:	f383 8810 	msr	PRIMASK, r3
1000ac9e:	e7d0      	b.n	1000ac42 <dcd_event_bus_signal+0x2e>
1000aca0:	2101      	movs	r1, #1
1000aca2:	4b22      	ldr	r3, [pc, #136]	; (1000ad2c <dcd_event_bus_signal+0x118>)
1000aca4:	781a      	ldrb	r2, [r3, #0]
1000aca6:	438a      	bics	r2, r1
1000aca8:	701a      	strb	r2, [r3, #0]
1000acaa:	781a      	ldrb	r2, [r3, #0]
1000acac:	3103      	adds	r1, #3
1000acae:	43a2      	bics	r2, r4
1000acb0:	701a      	strb	r2, [r3, #0]
1000acb2:	2200      	movs	r2, #0
1000acb4:	705a      	strb	r2, [r3, #1]
1000acb6:	781a      	ldrb	r2, [r3, #0]
1000acb8:	438a      	bics	r2, r1
1000acba:	701a      	strb	r2, [r3, #0]
1000acbc:	4b1c      	ldr	r3, [pc, #112]	; (1000ad30 <dcd_event_bus_signal+0x11c>)
1000acbe:	681c      	ldr	r4, [r3, #0]
1000acc0:	69e2      	ldr	r2, [r4, #28]
1000acc2:	f3ef 8110 	mrs	r1, PRIMASK
1000acc6:	b672      	cpsid	i
1000acc8:	6813      	ldr	r3, [r2, #0]
1000acca:	2b00      	cmp	r3, #0
1000accc:	d1d8      	bne.n	1000ac80 <dcd_event_bus_signal+0x6c>
1000acce:	e7fb      	b.n	1000acc8 <dcd_event_bus_signal+0xb4>
1000acd0:	4b16      	ldr	r3, [pc, #88]	; (1000ad2c <dcd_event_bus_signal+0x118>)
1000acd2:	781a      	ldrb	r2, [r3, #0]
1000acd4:	07d2      	lsls	r2, r2, #31
1000acd6:	d5b4      	bpl.n	1000ac42 <dcd_event_bus_signal+0x2e>
1000acd8:	2104      	movs	r1, #4
1000acda:	781a      	ldrb	r2, [r3, #0]
1000acdc:	430a      	orrs	r2, r1
1000acde:	701a      	strb	r2, [r3, #0]
1000ace0:	4b13      	ldr	r3, [pc, #76]	; (1000ad30 <dcd_event_bus_signal+0x11c>)
1000ace2:	681c      	ldr	r4, [r3, #0]
1000ace4:	69e2      	ldr	r2, [r4, #28]
1000ace6:	f3ef 8110 	mrs	r1, PRIMASK
1000acea:	b672      	cpsid	i
1000acec:	6813      	ldr	r3, [r2, #0]
1000acee:	2b00      	cmp	r3, #0
1000acf0:	d1c6      	bne.n	1000ac80 <dcd_event_bus_signal+0x6c>
1000acf2:	e7fb      	b.n	1000acec <dcd_event_bus_signal+0xd8>
1000acf4:	2104      	movs	r1, #4
1000acf6:	781a      	ldrb	r2, [r3, #0]
1000acf8:	a803      	add	r0, sp, #12
1000acfa:	438a      	bics	r2, r1
1000acfc:	701a      	strb	r2, [r3, #0]
1000acfe:	2100      	movs	r1, #0
1000ad00:	220c      	movs	r2, #12
1000ad02:	f7fe f9bd 	bl	10009080 <__wrap_memset>
1000ad06:	466b      	mov	r3, sp
1000ad08:	466a      	mov	r2, sp
1000ad0a:	731d      	strb	r5, [r3, #12]
1000ad0c:	2305      	movs	r3, #5
1000ad0e:	7353      	strb	r3, [r2, #13]
1000ad10:	4b07      	ldr	r3, [pc, #28]	; (1000ad30 <dcd_event_bus_signal+0x11c>)
1000ad12:	681c      	ldr	r4, [r3, #0]
1000ad14:	69e2      	ldr	r2, [r4, #28]
1000ad16:	f3ef 8110 	mrs	r1, PRIMASK
1000ad1a:	b672      	cpsid	i
1000ad1c:	6813      	ldr	r3, [r2, #0]
1000ad1e:	2b00      	cmp	r3, #0
1000ad20:	d0fc      	beq.n	1000ad1c <dcd_event_bus_signal+0x108>
1000ad22:	f3bf 8f5f 	dmb	sy
1000ad26:	6221      	str	r1, [r4, #32]
1000ad28:	a903      	add	r1, sp, #12
1000ad2a:	e7ad      	b.n	1000ac88 <dcd_event_bus_signal+0x74>
1000ad2c:	20000b80 	.word	0x20000b80
1000ad30:	20000bd8 	.word	0x20000bd8

1000ad34 <dcd_event_bus_reset>:
1000ad34:	b570      	push	{r4, r5, r6, lr}
1000ad36:	b084      	sub	sp, #16
1000ad38:	ac01      	add	r4, sp, #4
1000ad3a:	0006      	movs	r6, r0
1000ad3c:	000d      	movs	r5, r1
1000ad3e:	220c      	movs	r2, #12
1000ad40:	2100      	movs	r1, #0
1000ad42:	0020      	movs	r0, r4
1000ad44:	f7fe f99c 	bl	10009080 <__wrap_memset>
1000ad48:	2301      	movs	r3, #1
1000ad4a:	7063      	strb	r3, [r4, #1]
1000ad4c:	4b0d      	ldr	r3, [pc, #52]	; (1000ad84 <dcd_event_bus_reset+0x50>)
1000ad4e:	7125      	strb	r5, [r4, #4]
1000ad50:	681d      	ldr	r5, [r3, #0]
1000ad52:	7026      	strb	r6, [r4, #0]
1000ad54:	69ea      	ldr	r2, [r5, #28]
1000ad56:	f3ef 8310 	mrs	r3, PRIMASK
1000ad5a:	b672      	cpsid	i
1000ad5c:	6811      	ldr	r1, [r2, #0]
1000ad5e:	2900      	cmp	r1, #0
1000ad60:	d0fc      	beq.n	1000ad5c <dcd_event_bus_reset+0x28>
1000ad62:	f3bf 8f5f 	dmb	sy
1000ad66:	622b      	str	r3, [r5, #32]
1000ad68:	0021      	movs	r1, r4
1000ad6a:	0028      	movs	r0, r5
1000ad6c:	f000 fe74 	bl	1000ba58 <tu_fifo_write>
1000ad70:	69ea      	ldr	r2, [r5, #28]
1000ad72:	6a2b      	ldr	r3, [r5, #32]
1000ad74:	f3bf 8f5f 	dmb	sy
1000ad78:	2100      	movs	r1, #0
1000ad7a:	6011      	str	r1, [r2, #0]
1000ad7c:	f383 8810 	msr	PRIMASK, r3
1000ad80:	b004      	add	sp, #16
1000ad82:	bd70      	pop	{r4, r5, r6, pc}
1000ad84:	20000bd8 	.word	0x20000bd8

1000ad88 <dcd_event_setup_received>:
1000ad88:	2300      	movs	r3, #0
1000ad8a:	b530      	push	{r4, r5, lr}
1000ad8c:	b085      	sub	sp, #20
1000ad8e:	ad01      	add	r5, sp, #4
1000ad90:	806b      	strh	r3, [r5, #2]
1000ad92:	7028      	strb	r0, [r5, #0]
1000ad94:	3306      	adds	r3, #6
1000ad96:	2208      	movs	r2, #8
1000ad98:	a802      	add	r0, sp, #8
1000ad9a:	706b      	strb	r3, [r5, #1]
1000ad9c:	f7fe f976 	bl	1000908c <__wrap___aeabi_memcpy>
1000ada0:	4b0c      	ldr	r3, [pc, #48]	; (1000add4 <dcd_event_setup_received+0x4c>)
1000ada2:	681c      	ldr	r4, [r3, #0]
1000ada4:	69e2      	ldr	r2, [r4, #28]
1000ada6:	f3ef 8310 	mrs	r3, PRIMASK
1000adaa:	b672      	cpsid	i
1000adac:	6811      	ldr	r1, [r2, #0]
1000adae:	2900      	cmp	r1, #0
1000adb0:	d0fc      	beq.n	1000adac <dcd_event_setup_received+0x24>
1000adb2:	f3bf 8f5f 	dmb	sy
1000adb6:	6223      	str	r3, [r4, #32]
1000adb8:	0029      	movs	r1, r5
1000adba:	0020      	movs	r0, r4
1000adbc:	f000 fe4c 	bl	1000ba58 <tu_fifo_write>
1000adc0:	69e2      	ldr	r2, [r4, #28]
1000adc2:	6a23      	ldr	r3, [r4, #32]
1000adc4:	f3bf 8f5f 	dmb	sy
1000adc8:	2100      	movs	r1, #0
1000adca:	6011      	str	r1, [r2, #0]
1000adcc:	f383 8810 	msr	PRIMASK, r3
1000add0:	b005      	add	sp, #20
1000add2:	bd30      	pop	{r4, r5, pc}
1000add4:	20000bd8 	.word	0x20000bd8

1000add8 <dcd_event_xfer_complete>:
1000add8:	b5f0      	push	{r4, r5, r6, r7, lr}
1000adda:	46c6      	mov	lr, r8
1000addc:	4680      	mov	r8, r0
1000adde:	b500      	push	{lr}
1000ade0:	b084      	sub	sp, #16
1000ade2:	ac01      	add	r4, sp, #4
1000ade4:	000f      	movs	r7, r1
1000ade6:	0016      	movs	r6, r2
1000ade8:	2100      	movs	r1, #0
1000adea:	2208      	movs	r2, #8
1000adec:	0020      	movs	r0, r4
1000adee:	001d      	movs	r5, r3
1000adf0:	f7fe f946 	bl	10009080 <__wrap_memset>
1000adf4:	4643      	mov	r3, r8
1000adf6:	7023      	strb	r3, [r4, #0]
1000adf8:	2307      	movs	r3, #7
1000adfa:	7063      	strb	r3, [r4, #1]
1000adfc:	4b0f      	ldr	r3, [pc, #60]	; (1000ae3c <dcd_event_xfer_complete+0x64>)
1000adfe:	7165      	strb	r5, [r4, #5]
1000ae00:	681d      	ldr	r5, [r3, #0]
1000ae02:	7127      	strb	r7, [r4, #4]
1000ae04:	60a6      	str	r6, [r4, #8]
1000ae06:	69ea      	ldr	r2, [r5, #28]
1000ae08:	f3ef 8310 	mrs	r3, PRIMASK
1000ae0c:	b672      	cpsid	i
1000ae0e:	6811      	ldr	r1, [r2, #0]
1000ae10:	2900      	cmp	r1, #0
1000ae12:	d0fc      	beq.n	1000ae0e <dcd_event_xfer_complete+0x36>
1000ae14:	f3bf 8f5f 	dmb	sy
1000ae18:	622b      	str	r3, [r5, #32]
1000ae1a:	0021      	movs	r1, r4
1000ae1c:	0028      	movs	r0, r5
1000ae1e:	f000 fe1b 	bl	1000ba58 <tu_fifo_write>
1000ae22:	69ea      	ldr	r2, [r5, #28]
1000ae24:	6a2b      	ldr	r3, [r5, #32]
1000ae26:	f3bf 8f5f 	dmb	sy
1000ae2a:	2100      	movs	r1, #0
1000ae2c:	6011      	str	r1, [r2, #0]
1000ae2e:	f383 8810 	msr	PRIMASK, r3
1000ae32:	b004      	add	sp, #16
1000ae34:	bc80      	pop	{r7}
1000ae36:	46b8      	mov	r8, r7
1000ae38:	bdf0      	pop	{r4, r5, r6, r7, pc}
1000ae3a:	46c0      	nop			; (mov r8, r8)
1000ae3c:	20000bd8 	.word	0x20000bd8

1000ae40 <usbd_open_edpt_pair>:
1000ae40:	b5f0      	push	{r4, r5, r6, r7, lr}
1000ae42:	4646      	mov	r6, r8
1000ae44:	46d6      	mov	lr, sl
1000ae46:	464f      	mov	r7, r9
1000ae48:	4680      	mov	r8, r0
1000ae4a:	b5c0      	push	{r6, r7, lr}
1000ae4c:	000c      	movs	r4, r1
1000ae4e:	0015      	movs	r5, r2
1000ae50:	001e      	movs	r6, r3
1000ae52:	2a00      	cmp	r2, #0
1000ae54:	d02e      	beq.n	1000aeb4 <usbd_open_edpt_pair+0x74>
1000ae56:	2370      	movs	r3, #112	; 0x70
1000ae58:	4699      	mov	r9, r3
1000ae5a:	4b18      	ldr	r3, [pc, #96]	; (1000aebc <usbd_open_edpt_pair+0x7c>)
1000ae5c:	2700      	movs	r7, #0
1000ae5e:	469a      	mov	sl, r3
1000ae60:	7863      	ldrb	r3, [r4, #1]
1000ae62:	2b05      	cmp	r3, #5
1000ae64:	d10f      	bne.n	1000ae86 <usbd_open_edpt_pair+0x46>
1000ae66:	78e1      	ldrb	r1, [r4, #3]
1000ae68:	0789      	lsls	r1, r1, #30
1000ae6a:	0f89      	lsrs	r1, r1, #30
1000ae6c:	42b1      	cmp	r1, r6
1000ae6e:	d10a      	bne.n	1000ae86 <usbd_open_edpt_pair+0x46>
1000ae70:	464a      	mov	r2, r9
1000ae72:	78a3      	ldrb	r3, [r4, #2]
1000ae74:	421a      	tst	r2, r3
1000ae76:	d106      	bne.n	1000ae86 <usbd_open_edpt_pair+0x46>
1000ae78:	4653      	mov	r3, sl
1000ae7a:	0020      	movs	r0, r4
1000ae7c:	7899      	ldrb	r1, [r3, #2]
1000ae7e:	f000 fc69 	bl	1000b754 <tu_edpt_validate>
1000ae82:	2800      	cmp	r0, #0
1000ae84:	d105      	bne.n	1000ae92 <usbd_open_edpt_pair+0x52>
1000ae86:	2000      	movs	r0, #0
1000ae88:	bce0      	pop	{r5, r6, r7}
1000ae8a:	46ba      	mov	sl, r7
1000ae8c:	46b1      	mov	r9, r6
1000ae8e:	46a8      	mov	r8, r5
1000ae90:	bdf0      	pop	{r4, r5, r6, r7, pc}
1000ae92:	0021      	movs	r1, r4
1000ae94:	4640      	mov	r0, r8
1000ae96:	f7fe febf 	bl	10009c18 <dcd_edpt_open>
1000ae9a:	2800      	cmp	r0, #0
1000ae9c:	d0f3      	beq.n	1000ae86 <usbd_open_edpt_pair+0x46>
1000ae9e:	78a3      	ldrb	r3, [r4, #2]
1000aea0:	09da      	lsrs	r2, r3, #7
1000aea2:	2a01      	cmp	r2, #1
1000aea4:	d008      	beq.n	1000aeb8 <usbd_open_edpt_pair+0x78>
1000aea6:	9a08      	ldr	r2, [sp, #32]
1000aea8:	7013      	strb	r3, [r2, #0]
1000aeaa:	7823      	ldrb	r3, [r4, #0]
1000aeac:	3701      	adds	r7, #1
1000aeae:	18e4      	adds	r4, r4, r3
1000aeb0:	42af      	cmp	r7, r5
1000aeb2:	dbd5      	blt.n	1000ae60 <usbd_open_edpt_pair+0x20>
1000aeb4:	2001      	movs	r0, #1
1000aeb6:	e7e7      	b.n	1000ae88 <usbd_open_edpt_pair+0x48>
1000aeb8:	9a09      	ldr	r2, [sp, #36]	; 0x24
1000aeba:	e7f5      	b.n	1000aea8 <usbd_open_edpt_pair+0x68>
1000aebc:	20000b80 	.word	0x20000b80

1000aec0 <usbd_edpt_open>:
1000aec0:	2270      	movs	r2, #112	; 0x70
1000aec2:	b570      	push	{r4, r5, r6, lr}
1000aec4:	788b      	ldrb	r3, [r1, #2]
1000aec6:	0005      	movs	r5, r0
1000aec8:	000c      	movs	r4, r1
1000aeca:	421a      	tst	r2, r3
1000aecc:	d001      	beq.n	1000aed2 <usbd_edpt_open+0x12>
1000aece:	2000      	movs	r0, #0
1000aed0:	bd70      	pop	{r4, r5, r6, pc}
1000aed2:	4b06      	ldr	r3, [pc, #24]	; (1000aeec <usbd_edpt_open+0x2c>)
1000aed4:	0020      	movs	r0, r4
1000aed6:	7899      	ldrb	r1, [r3, #2]
1000aed8:	f000 fc3c 	bl	1000b754 <tu_edpt_validate>
1000aedc:	2800      	cmp	r0, #0
1000aede:	d0f6      	beq.n	1000aece <usbd_edpt_open+0xe>
1000aee0:	0021      	movs	r1, r4
1000aee2:	0028      	movs	r0, r5
1000aee4:	f7fe fe98 	bl	10009c18 <dcd_edpt_open>
1000aee8:	e7f2      	b.n	1000aed0 <usbd_edpt_open+0x10>
1000aeea:	46c0      	nop			; (mov r8, r8)
1000aeec:	20000b80 	.word	0x20000b80

1000aef0 <usbd_edpt_claim>:
1000aef0:	b570      	push	{r4, r5, r6, lr}
1000aef2:	247f      	movs	r4, #127	; 0x7f
1000aef4:	400c      	ands	r4, r1
1000aef6:	0063      	lsls	r3, r4, #1
1000aef8:	4c14      	ldr	r4, [pc, #80]	; (1000af4c <usbd_edpt_claim+0x5c>)
1000aefa:	09c9      	lsrs	r1, r1, #7
1000aefc:	18e4      	adds	r4, r4, r3
1000aefe:	1864      	adds	r4, r4, r1
1000af00:	3430      	adds	r4, #48	; 0x30
1000af02:	78e3      	ldrb	r3, [r4, #3]
1000af04:	07db      	lsls	r3, r3, #31
1000af06:	0fdd      	lsrs	r5, r3, #31
1000af08:	2b00      	cmp	r3, #0
1000af0a:	d118      	bne.n	1000af3e <usbd_edpt_claim+0x4e>
1000af0c:	78e3      	ldrb	r3, [r4, #3]
1000af0e:	075b      	lsls	r3, r3, #29
1000af10:	d501      	bpl.n	1000af16 <usbd_edpt_claim+0x26>
1000af12:	0028      	movs	r0, r5
1000af14:	bd70      	pop	{r4, r5, r6, pc}
1000af16:	2101      	movs	r1, #1
1000af18:	4e0d      	ldr	r6, [pc, #52]	; (1000af50 <usbd_edpt_claim+0x60>)
1000af1a:	4249      	negs	r1, r1
1000af1c:	6830      	ldr	r0, [r6, #0]
1000af1e:	f001 fa03 	bl	1000c328 <__mutex_enter_timeout_ms_veneer>
1000af22:	78e3      	ldrb	r3, [r4, #3]
1000af24:	07db      	lsls	r3, r3, #31
1000af26:	0fdd      	lsrs	r5, r3, #31
1000af28:	2b00      	cmp	r3, #0
1000af2a:	d10a      	bne.n	1000af42 <usbd_edpt_claim+0x52>
1000af2c:	78e3      	ldrb	r3, [r4, #3]
1000af2e:	075b      	lsls	r3, r3, #29
1000af30:	d408      	bmi.n	1000af44 <usbd_edpt_claim+0x54>
1000af32:	2204      	movs	r2, #4
1000af34:	78e3      	ldrb	r3, [r4, #3]
1000af36:	2501      	movs	r5, #1
1000af38:	4313      	orrs	r3, r2
1000af3a:	70e3      	strb	r3, [r4, #3]
1000af3c:	e002      	b.n	1000af44 <usbd_edpt_claim+0x54>
1000af3e:	2500      	movs	r5, #0
1000af40:	e7e7      	b.n	1000af12 <usbd_edpt_claim+0x22>
1000af42:	2500      	movs	r5, #0
1000af44:	6830      	ldr	r0, [r6, #0]
1000af46:	f001 f9cf 	bl	1000c2e8 <__mutex_exit_veneer>
1000af4a:	e7e2      	b.n	1000af12 <usbd_edpt_claim+0x22>
1000af4c:	20000b80 	.word	0x20000b80
1000af50:	20000bd4 	.word	0x20000bd4

1000af54 <usbd_edpt_release>:
1000af54:	b570      	push	{r4, r5, r6, lr}
1000af56:	000c      	movs	r4, r1
1000af58:	2101      	movs	r1, #1
1000af5a:	4d0f      	ldr	r5, [pc, #60]	; (1000af98 <usbd_edpt_release+0x44>)
1000af5c:	4249      	negs	r1, r1
1000af5e:	6828      	ldr	r0, [r5, #0]
1000af60:	f001 f9e2 	bl	1000c328 <__mutex_enter_timeout_ms_veneer>
1000af64:	217f      	movs	r1, #127	; 0x7f
1000af66:	4021      	ands	r1, r4
1000af68:	004b      	lsls	r3, r1, #1
1000af6a:	490c      	ldr	r1, [pc, #48]	; (1000af9c <usbd_edpt_release+0x48>)
1000af6c:	09e4      	lsrs	r4, r4, #7
1000af6e:	18c9      	adds	r1, r1, r3
1000af70:	1909      	adds	r1, r1, r4
1000af72:	3130      	adds	r1, #48	; 0x30
1000af74:	78cb      	ldrb	r3, [r1, #3]
1000af76:	2400      	movs	r4, #0
1000af78:	07db      	lsls	r3, r3, #31
1000af7a:	d408      	bmi.n	1000af8e <usbd_edpt_release+0x3a>
1000af7c:	78cb      	ldrb	r3, [r1, #3]
1000af7e:	075b      	lsls	r3, r3, #29
1000af80:	0fdc      	lsrs	r4, r3, #31
1000af82:	2b00      	cmp	r3, #0
1000af84:	da03      	bge.n	1000af8e <usbd_edpt_release+0x3a>
1000af86:	2204      	movs	r2, #4
1000af88:	78cb      	ldrb	r3, [r1, #3]
1000af8a:	4393      	bics	r3, r2
1000af8c:	70cb      	strb	r3, [r1, #3]
1000af8e:	6828      	ldr	r0, [r5, #0]
1000af90:	f001 f9aa 	bl	1000c2e8 <__mutex_exit_veneer>
1000af94:	0020      	movs	r0, r4
1000af96:	bd70      	pop	{r4, r5, r6, pc}
1000af98:	20000bd4 	.word	0x20000bd4
1000af9c:	20000b80 	.word	0x20000b80

1000afa0 <usbd_edpt_xfer>:
1000afa0:	b570      	push	{r4, r5, r6, lr}
1000afa2:	257f      	movs	r5, #127	; 0x7f
1000afa4:	4c0f      	ldr	r4, [pc, #60]	; (1000afe4 <usbd_edpt_xfer+0x44>)
1000afa6:	400d      	ands	r5, r1
1000afa8:	006d      	lsls	r5, r5, #1
1000afaa:	1964      	adds	r4, r4, r5
1000afac:	0006      	movs	r6, r0
1000afae:	09c8      	lsrs	r0, r1, #7
1000afb0:	1824      	adds	r4, r4, r0
1000afb2:	3430      	adds	r4, #48	; 0x30
1000afb4:	78e5      	ldrb	r5, [r4, #3]
1000afb6:	2000      	movs	r0, #0
1000afb8:	07ed      	lsls	r5, r5, #31
1000afba:	d500      	bpl.n	1000afbe <usbd_edpt_xfer+0x1e>
1000afbc:	bd70      	pop	{r4, r5, r6, pc}
1000afbe:	2501      	movs	r5, #1
1000afc0:	78e0      	ldrb	r0, [r4, #3]
1000afc2:	4328      	orrs	r0, r5
1000afc4:	70e0      	strb	r0, [r4, #3]
1000afc6:	0030      	movs	r0, r6
1000afc8:	f7fe fefc 	bl	10009dc4 <dcd_edpt_xfer>
1000afcc:	2800      	cmp	r0, #0
1000afce:	d1f5      	bne.n	1000afbc <usbd_edpt_xfer+0x1c>
1000afd0:	2201      	movs	r2, #1
1000afd2:	78e3      	ldrb	r3, [r4, #3]
1000afd4:	4393      	bics	r3, r2
1000afd6:	70e3      	strb	r3, [r4, #3]
1000afd8:	78e3      	ldrb	r3, [r4, #3]
1000afda:	3203      	adds	r2, #3
1000afdc:	4393      	bics	r3, r2
1000afde:	70e3      	strb	r3, [r4, #3]
1000afe0:	e7ec      	b.n	1000afbc <usbd_edpt_xfer+0x1c>
1000afe2:	46c0      	nop			; (mov r8, r8)
1000afe4:	20000b80 	.word	0x20000b80

1000afe8 <tud_control_status>:
1000afe8:	b570      	push	{r4, r5, r6, lr}
1000afea:	4e0a      	ldr	r6, [pc, #40]	; (1000b014 <tud_control_status+0x2c>)
1000afec:	0005      	movs	r5, r0
1000afee:	0030      	movs	r0, r6
1000aff0:	2208      	movs	r2, #8
1000aff2:	000c      	movs	r4, r1
1000aff4:	f7fe f84a 	bl	1000908c <__wrap___aeabi_memcpy>
1000aff8:	2300      	movs	r3, #0
1000affa:	217f      	movs	r1, #127	; 0x7f
1000affc:	60f3      	str	r3, [r6, #12]
1000affe:	7822      	ldrb	r2, [r4, #0]
1000b000:	60b3      	str	r3, [r6, #8]
1000b002:	4291      	cmp	r1, r2
1000b004:	415b      	adcs	r3, r3
1000b006:	0028      	movs	r0, r5
1000b008:	01d9      	lsls	r1, r3, #7
1000b00a:	2200      	movs	r2, #0
1000b00c:	2300      	movs	r3, #0
1000b00e:	f7ff ffc7 	bl	1000afa0 <usbd_edpt_xfer>
1000b012:	bd70      	pop	{r4, r5, r6, pc}
1000b014:	20000b24 	.word	0x20000b24

1000b018 <tud_control_xfer>:
1000b018:	b5f8      	push	{r3, r4, r5, r6, r7, lr}
1000b01a:	46ce      	mov	lr, r9
1000b01c:	4647      	mov	r7, r8
1000b01e:	4691      	mov	r9, r2
1000b020:	4e2a      	ldr	r6, [pc, #168]	; (1000b0cc <tud_control_xfer+0xb4>)
1000b022:	b580      	push	{r7, lr}
1000b024:	2208      	movs	r2, #8
1000b026:	0007      	movs	r7, r0
1000b028:	0030      	movs	r0, r6
1000b02a:	000d      	movs	r5, r1
1000b02c:	4698      	mov	r8, r3
1000b02e:	f7fe f82d 	bl	1000908c <__wrap___aeabi_memcpy>
1000b032:	464b      	mov	r3, r9
1000b034:	60b3      	str	r3, [r6, #8]
1000b036:	2300      	movs	r3, #0
1000b038:	81f3      	strh	r3, [r6, #14]
1000b03a:	79ec      	ldrb	r4, [r5, #7]
1000b03c:	79a9      	ldrb	r1, [r5, #6]
1000b03e:	0224      	lsls	r4, r4, #8
1000b040:	430c      	orrs	r4, r1
1000b042:	1c23      	adds	r3, r4, #0
1000b044:	4544      	cmp	r4, r8
1000b046:	d900      	bls.n	1000b04a <tud_control_xfer+0x32>
1000b048:	4643      	mov	r3, r8
1000b04a:	b29a      	uxth	r2, r3
1000b04c:	4690      	mov	r8, r2
1000b04e:	81b3      	strh	r3, [r6, #12]
1000b050:	2c00      	cmp	r4, #0
1000b052:	d013      	beq.n	1000b07c <tud_control_xfer+0x64>
1000b054:	2a00      	cmp	r2, #0
1000b056:	d01f      	beq.n	1000b098 <tud_control_xfer+0x80>
1000b058:	464b      	mov	r3, r9
1000b05a:	2b00      	cmp	r3, #0
1000b05c:	d034      	beq.n	1000b0c8 <tud_control_xfer+0xb0>
1000b05e:	1c13      	adds	r3, r2, #0
1000b060:	2a40      	cmp	r2, #64	; 0x40
1000b062:	d81f      	bhi.n	1000b0a4 <tud_control_xfer+0x8c>
1000b064:	b29b      	uxth	r3, r3
1000b066:	4698      	mov	r8, r3
1000b068:	7833      	ldrb	r3, [r6, #0]
1000b06a:	2b7f      	cmp	r3, #127	; 0x7f
1000b06c:	d820      	bhi.n	1000b0b0 <tud_control_xfer+0x98>
1000b06e:	2100      	movs	r1, #0
1000b070:	4a17      	ldr	r2, [pc, #92]	; (1000b0d0 <tud_control_xfer+0xb8>)
1000b072:	4643      	mov	r3, r8
1000b074:	0038      	movs	r0, r7
1000b076:	f7ff ff93 	bl	1000afa0 <usbd_edpt_xfer>
1000b07a:	e009      	b.n	1000b090 <tud_control_xfer+0x78>
1000b07c:	227f      	movs	r2, #127	; 0x7f
1000b07e:	782b      	ldrb	r3, [r5, #0]
1000b080:	0038      	movs	r0, r7
1000b082:	429a      	cmp	r2, r3
1000b084:	4164      	adcs	r4, r4
1000b086:	2300      	movs	r3, #0
1000b088:	2200      	movs	r2, #0
1000b08a:	01e1      	lsls	r1, r4, #7
1000b08c:	f7ff ff88 	bl	1000afa0 <usbd_edpt_xfer>
1000b090:	bcc0      	pop	{r6, r7}
1000b092:	46b9      	mov	r9, r7
1000b094:	46b0      	mov	r8, r6
1000b096:	bdf8      	pop	{r3, r4, r5, r6, r7, pc}
1000b098:	7833      	ldrb	r3, [r6, #0]
1000b09a:	2b7f      	cmp	r3, #127	; 0x7f
1000b09c:	d911      	bls.n	1000b0c2 <tud_control_xfer+0xaa>
1000b09e:	2180      	movs	r1, #128	; 0x80
1000b0a0:	2200      	movs	r2, #0
1000b0a2:	e7e6      	b.n	1000b072 <tud_control_xfer+0x5a>
1000b0a4:	2340      	movs	r3, #64	; 0x40
1000b0a6:	b29b      	uxth	r3, r3
1000b0a8:	4698      	mov	r8, r3
1000b0aa:	7833      	ldrb	r3, [r6, #0]
1000b0ac:	2b7f      	cmp	r3, #127	; 0x7f
1000b0ae:	d9de      	bls.n	1000b06e <tud_control_xfer+0x56>
1000b0b0:	4c07      	ldr	r4, [pc, #28]	; (1000b0d0 <tud_control_xfer+0xb8>)
1000b0b2:	4642      	mov	r2, r8
1000b0b4:	4649      	mov	r1, r9
1000b0b6:	0020      	movs	r0, r4
1000b0b8:	f7fd ffe8 	bl	1000908c <__wrap___aeabi_memcpy>
1000b0bc:	2180      	movs	r1, #128	; 0x80
1000b0be:	0022      	movs	r2, r4
1000b0c0:	e7d7      	b.n	1000b072 <tud_control_xfer+0x5a>
1000b0c2:	2100      	movs	r1, #0
1000b0c4:	2200      	movs	r2, #0
1000b0c6:	e7d4      	b.n	1000b072 <tud_control_xfer+0x5a>
1000b0c8:	2000      	movs	r0, #0
1000b0ca:	e7e1      	b.n	1000b090 <tud_control_xfer+0x78>
1000b0cc:	20000b24 	.word	0x20000b24
1000b0d0:	20000b40 	.word	0x20000b40

1000b0d4 <usbd_control_reset>:
1000b0d4:	b510      	push	{r4, lr}
1000b0d6:	2214      	movs	r2, #20
1000b0d8:	2100      	movs	r1, #0
1000b0da:	4802      	ldr	r0, [pc, #8]	; (1000b0e4 <usbd_control_reset+0x10>)
1000b0dc:	f7fd ffd0 	bl	10009080 <__wrap_memset>
1000b0e0:	bd10      	pop	{r4, pc}
1000b0e2:	46c0      	nop			; (mov r8, r8)
1000b0e4:	20000b24 	.word	0x20000b24

1000b0e8 <usbd_control_set_complete_callback>:
1000b0e8:	4b01      	ldr	r3, [pc, #4]	; (1000b0f0 <usbd_control_set_complete_callback+0x8>)
1000b0ea:	6118      	str	r0, [r3, #16]
1000b0ec:	4770      	bx	lr
1000b0ee:	46c0      	nop			; (mov r8, r8)
1000b0f0:	20000b24 	.word	0x20000b24

1000b0f4 <usbd_control_set_request>:
1000b0f4:	b510      	push	{r4, lr}
1000b0f6:	4c05      	ldr	r4, [pc, #20]	; (1000b10c <usbd_control_set_request+0x18>)
1000b0f8:	0001      	movs	r1, r0
1000b0fa:	2208      	movs	r2, #8
1000b0fc:	0020      	movs	r0, r4
1000b0fe:	f7fd ffc5 	bl	1000908c <__wrap___aeabi_memcpy>
1000b102:	2300      	movs	r3, #0
1000b104:	60a3      	str	r3, [r4, #8]
1000b106:	60e3      	str	r3, [r4, #12]
1000b108:	bd10      	pop	{r4, pc}
1000b10a:	46c0      	nop			; (mov r8, r8)
1000b10c:	20000b24 	.word	0x20000b24

1000b110 <usbd_control_xfer_cb>:
1000b110:	b5f8      	push	{r3, r4, r5, r6, r7, lr}
1000b112:	4c3b      	ldr	r4, [pc, #236]	; (1000b200 <usbd_control_xfer_cb+0xf0>)
1000b114:	001d      	movs	r5, r3
1000b116:	7823      	ldrb	r3, [r4, #0]
1000b118:	0006      	movs	r6, r0
1000b11a:	09da      	lsrs	r2, r3, #7
1000b11c:	09c9      	lsrs	r1, r1, #7
1000b11e:	428a      	cmp	r2, r1
1000b120:	d013      	beq.n	1000b14a <usbd_control_xfer_cb+0x3a>
1000b122:	2000      	movs	r0, #0
1000b124:	2d00      	cmp	r5, #0
1000b126:	d000      	beq.n	1000b12a <usbd_control_xfer_cb+0x1a>
1000b128:	bdf8      	pop	{r3, r4, r5, r6, r7, pc}
1000b12a:	4b36      	ldr	r3, [pc, #216]	; (1000b204 <usbd_control_xfer_cb+0xf4>)
1000b12c:	2b00      	cmp	r3, #0
1000b12e:	d003      	beq.n	1000b138 <usbd_control_xfer_cb+0x28>
1000b130:	0021      	movs	r1, r4
1000b132:	0030      	movs	r0, r6
1000b134:	f7fe fd62 	bl	10009bfc <dcd_edpt0_status_complete>
1000b138:	6923      	ldr	r3, [r4, #16]
1000b13a:	2b00      	cmp	r3, #0
1000b13c:	d044      	beq.n	1000b1c8 <usbd_control_xfer_cb+0xb8>
1000b13e:	0022      	movs	r2, r4
1000b140:	2102      	movs	r1, #2
1000b142:	0030      	movs	r0, r6
1000b144:	4798      	blx	r3
1000b146:	2001      	movs	r0, #1
1000b148:	e7ee      	b.n	1000b128 <usbd_control_xfer_cb+0x18>
1000b14a:	2b7f      	cmp	r3, #127	; 0x7f
1000b14c:	d806      	bhi.n	1000b15c <usbd_control_xfer_cb+0x4c>
1000b14e:	68a0      	ldr	r0, [r4, #8]
1000b150:	2800      	cmp	r0, #0
1000b152:	d037      	beq.n	1000b1c4 <usbd_control_xfer_cb+0xb4>
1000b154:	002a      	movs	r2, r5
1000b156:	492c      	ldr	r1, [pc, #176]	; (1000b208 <usbd_control_xfer_cb+0xf8>)
1000b158:	f7fd ff98 	bl	1000908c <__wrap___aeabi_memcpy>
1000b15c:	68a3      	ldr	r3, [r4, #8]
1000b15e:	89e2      	ldrh	r2, [r4, #14]
1000b160:	1959      	adds	r1, r3, r5
1000b162:	1952      	adds	r2, r2, r5
1000b164:	88e3      	ldrh	r3, [r4, #6]
1000b166:	b292      	uxth	r2, r2
1000b168:	81e2      	strh	r2, [r4, #14]
1000b16a:	60a1      	str	r1, [r4, #8]
1000b16c:	4293      	cmp	r3, r2
1000b16e:	d014      	beq.n	1000b19a <usbd_control_xfer_cb+0x8a>
1000b170:	2d3f      	cmp	r5, #63	; 0x3f
1000b172:	d912      	bls.n	1000b19a <usbd_control_xfer_cb+0x8a>
1000b174:	89a5      	ldrh	r5, [r4, #12]
1000b176:	1aa8      	subs	r0, r5, r2
1000b178:	1c07      	adds	r7, r0, #0
1000b17a:	b280      	uxth	r0, r0
1000b17c:	2840      	cmp	r0, #64	; 0x40
1000b17e:	d82f      	bhi.n	1000b1e0 <usbd_control_xfer_cb+0xd0>
1000b180:	7823      	ldrb	r3, [r4, #0]
1000b182:	b2bf      	uxth	r7, r7
1000b184:	2b7f      	cmp	r3, #127	; 0x7f
1000b186:	d82d      	bhi.n	1000b1e4 <usbd_control_xfer_cb+0xd4>
1000b188:	2100      	movs	r1, #0
1000b18a:	42aa      	cmp	r2, r5
1000b18c:	d035      	beq.n	1000b1fa <usbd_control_xfer_cb+0xea>
1000b18e:	4a1e      	ldr	r2, [pc, #120]	; (1000b208 <usbd_control_xfer_cb+0xf8>)
1000b190:	003b      	movs	r3, r7
1000b192:	0030      	movs	r0, r6
1000b194:	f7ff ff04 	bl	1000afa0 <usbd_edpt_xfer>
1000b198:	e7c6      	b.n	1000b128 <usbd_control_xfer_cb+0x18>
1000b19a:	6923      	ldr	r3, [r4, #16]
1000b19c:	2b00      	cmp	r3, #0
1000b19e:	d005      	beq.n	1000b1ac <usbd_control_xfer_cb+0x9c>
1000b1a0:	0022      	movs	r2, r4
1000b1a2:	2101      	movs	r1, #1
1000b1a4:	0030      	movs	r0, r6
1000b1a6:	4798      	blx	r3
1000b1a8:	2800      	cmp	r0, #0
1000b1aa:	d00f      	beq.n	1000b1cc <usbd_control_xfer_cb+0xbc>
1000b1ac:	227f      	movs	r2, #127	; 0x7f
1000b1ae:	2100      	movs	r1, #0
1000b1b0:	7823      	ldrb	r3, [r4, #0]
1000b1b2:	0030      	movs	r0, r6
1000b1b4:	429a      	cmp	r2, r3
1000b1b6:	4149      	adcs	r1, r1
1000b1b8:	2300      	movs	r3, #0
1000b1ba:	2200      	movs	r2, #0
1000b1bc:	01c9      	lsls	r1, r1, #7
1000b1be:	f7ff feef 	bl	1000afa0 <usbd_edpt_xfer>
1000b1c2:	e7b1      	b.n	1000b128 <usbd_control_xfer_cb+0x18>
1000b1c4:	2000      	movs	r0, #0
1000b1c6:	e7af      	b.n	1000b128 <usbd_control_xfer_cb+0x18>
1000b1c8:	2001      	movs	r0, #1
1000b1ca:	e7ad      	b.n	1000b128 <usbd_control_xfer_cb+0x18>
1000b1cc:	2100      	movs	r1, #0
1000b1ce:	0030      	movs	r0, r6
1000b1d0:	f7fe fe0a 	bl	10009de8 <dcd_edpt_stall>
1000b1d4:	0030      	movs	r0, r6
1000b1d6:	2180      	movs	r1, #128	; 0x80
1000b1d8:	f7fe fe06 	bl	10009de8 <dcd_edpt_stall>
1000b1dc:	2001      	movs	r0, #1
1000b1de:	e7a3      	b.n	1000b128 <usbd_control_xfer_cb+0x18>
1000b1e0:	2740      	movs	r7, #64	; 0x40
1000b1e2:	e7cd      	b.n	1000b180 <usbd_control_xfer_cb+0x70>
1000b1e4:	42aa      	cmp	r2, r5
1000b1e6:	d007      	beq.n	1000b1f8 <usbd_control_xfer_cb+0xe8>
1000b1e8:	4c07      	ldr	r4, [pc, #28]	; (1000b208 <usbd_control_xfer_cb+0xf8>)
1000b1ea:	003a      	movs	r2, r7
1000b1ec:	0020      	movs	r0, r4
1000b1ee:	f7fd ff4d 	bl	1000908c <__wrap___aeabi_memcpy>
1000b1f2:	2180      	movs	r1, #128	; 0x80
1000b1f4:	0022      	movs	r2, r4
1000b1f6:	e7cb      	b.n	1000b190 <usbd_control_xfer_cb+0x80>
1000b1f8:	2180      	movs	r1, #128	; 0x80
1000b1fa:	2200      	movs	r2, #0
1000b1fc:	e7c8      	b.n	1000b190 <usbd_control_xfer_cb+0x80>
1000b1fe:	46c0      	nop			; (mov r8, r8)
1000b200:	20000b24 	.word	0x20000b24
1000b204:	10009bfd 	.word	0x10009bfd
1000b208:	20000b40 	.word	0x20000b40

1000b20c <tud_cdc_n_connected>:
1000b20c:	b510      	push	{r4, lr}
1000b20e:	0004      	movs	r4, r0
1000b210:	f7ff f808 	bl	1000a224 <tud_mounted>
1000b214:	2800      	cmp	r0, #0
1000b216:	d101      	bne.n	1000b21c <tud_cdc_n_connected+0x10>
1000b218:	2000      	movs	r0, #0
1000b21a:	bd10      	pop	{r4, pc}
1000b21c:	f7ff f80a 	bl	1000a234 <tud_suspended>
1000b220:	2800      	cmp	r0, #0
1000b222:	d1f9      	bne.n	1000b218 <tud_cdc_n_connected+0xc>
1000b224:	20b6      	movs	r0, #182	; 0xb6
1000b226:	0080      	lsls	r0, r0, #2
1000b228:	4344      	muls	r4, r0
1000b22a:	4803      	ldr	r0, [pc, #12]	; (1000b238 <tud_cdc_n_connected+0x2c>)
1000b22c:	1900      	adds	r0, r0, r4
1000b22e:	7903      	ldrb	r3, [r0, #4]
1000b230:	2001      	movs	r0, #1
1000b232:	4018      	ands	r0, r3
1000b234:	e7f1      	b.n	1000b21a <tud_cdc_n_connected+0xe>
1000b236:	46c0      	nop			; (mov r8, r8)
1000b238:	2000084c 	.word	0x2000084c

1000b23c <tud_cdc_n_available>:
1000b23c:	23b6      	movs	r3, #182	; 0xb6
1000b23e:	009b      	lsls	r3, r3, #2
1000b240:	4358      	muls	r0, r3
1000b242:	b510      	push	{r4, lr}
1000b244:	4b02      	ldr	r3, [pc, #8]	; (1000b250 <tud_cdc_n_available+0x14>)
1000b246:	3010      	adds	r0, #16
1000b248:	18c0      	adds	r0, r0, r3
1000b24a:	f000 fb11 	bl	1000b870 <tu_fifo_count>
1000b24e:	bd10      	pop	{r4, pc}
1000b250:	2000084c 	.word	0x2000084c

1000b254 <tud_cdc_n_read>:
1000b254:	b5f0      	push	{r4, r5, r6, r7, lr}
1000b256:	25b6      	movs	r5, #182	; 0xb6
1000b258:	00ad      	lsls	r5, r5, #2
1000b25a:	4345      	muls	r5, r0
1000b25c:	002c      	movs	r4, r5
1000b25e:	46c6      	mov	lr, r8
1000b260:	4f17      	ldr	r7, [pc, #92]	; (1000b2c0 <tud_cdc_n_read+0x6c>)
1000b262:	3410      	adds	r4, #16
1000b264:	19e4      	adds	r4, r4, r7
1000b266:	b500      	push	{lr}
1000b268:	0020      	movs	r0, r4
1000b26a:	b292      	uxth	r2, r2
1000b26c:	f000 fb74 	bl	1000b958 <tu_fifo_read_n>
1000b270:	0006      	movs	r6, r0
1000b272:	0020      	movs	r0, r4
1000b274:	f000 fb14 	bl	1000b8a0 <tu_fifo_remaining>
1000b278:	283f      	cmp	r0, #63	; 0x3f
1000b27a:	d803      	bhi.n	1000b284 <tud_cdc_n_read+0x30>
1000b27c:	0030      	movs	r0, r6
1000b27e:	bc80      	pop	{r7}
1000b280:	46b8      	mov	r8, r7
1000b282:	bdf0      	pop	{r4, r5, r6, r7, pc}
1000b284:	197b      	adds	r3, r7, r5
1000b286:	2000      	movs	r0, #0
1000b288:	78d9      	ldrb	r1, [r3, #3]
1000b28a:	4698      	mov	r8, r3
1000b28c:	f7ff fe30 	bl	1000aef0 <usbd_edpt_claim>
1000b290:	2800      	cmp	r0, #0
1000b292:	d0f3      	beq.n	1000b27c <tud_cdc_n_read+0x28>
1000b294:	0020      	movs	r0, r4
1000b296:	f000 fb03 	bl	1000b8a0 <tu_fifo_remaining>
1000b29a:	283f      	cmp	r0, #63	; 0x3f
1000b29c:	d90a      	bls.n	1000b2b4 <tud_cdc_n_read+0x60>
1000b29e:	2396      	movs	r3, #150	; 0x96
1000b2a0:	009b      	lsls	r3, r3, #2
1000b2a2:	18ea      	adds	r2, r5, r3
1000b2a4:	4643      	mov	r3, r8
1000b2a6:	19d2      	adds	r2, r2, r7
1000b2a8:	78d9      	ldrb	r1, [r3, #3]
1000b2aa:	2000      	movs	r0, #0
1000b2ac:	2340      	movs	r3, #64	; 0x40
1000b2ae:	f7ff fe77 	bl	1000afa0 <usbd_edpt_xfer>
1000b2b2:	e7e3      	b.n	1000b27c <tud_cdc_n_read+0x28>
1000b2b4:	4643      	mov	r3, r8
1000b2b6:	2000      	movs	r0, #0
1000b2b8:	78d9      	ldrb	r1, [r3, #3]
1000b2ba:	f7ff fe4b 	bl	1000af54 <usbd_edpt_release>
1000b2be:	e7dd      	b.n	1000b27c <tud_cdc_n_read+0x28>
1000b2c0:	2000084c 	.word	0x2000084c

1000b2c4 <tud_cdc_n_write_flush>:
1000b2c4:	b5f8      	push	{r3, r4, r5, r6, r7, lr}
1000b2c6:	0004      	movs	r4, r0
1000b2c8:	f7fe ffac 	bl	1000a224 <tud_mounted>
1000b2cc:	2800      	cmp	r0, #0
1000b2ce:	d101      	bne.n	1000b2d4 <tud_cdc_n_write_flush+0x10>
1000b2d0:	2000      	movs	r0, #0
1000b2d2:	bdf8      	pop	{r3, r4, r5, r6, r7, pc}
1000b2d4:	f7fe ffae 	bl	1000a234 <tud_suspended>
1000b2d8:	2800      	cmp	r0, #0
1000b2da:	d1f9      	bne.n	1000b2d0 <tud_cdc_n_write_flush+0xc>
1000b2dc:	20b6      	movs	r0, #182	; 0xb6
1000b2de:	0080      	lsls	r0, r0, #2
1000b2e0:	4344      	muls	r4, r0
1000b2e2:	0025      	movs	r5, r4
1000b2e4:	4e14      	ldr	r6, [pc, #80]	; (1000b338 <tud_cdc_n_write_flush+0x74>)
1000b2e6:	352c      	adds	r5, #44	; 0x2c
1000b2e8:	19ad      	adds	r5, r5, r6
1000b2ea:	0028      	movs	r0, r5
1000b2ec:	f000 fac0 	bl	1000b870 <tu_fifo_count>
1000b2f0:	2800      	cmp	r0, #0
1000b2f2:	d0ed      	beq.n	1000b2d0 <tud_cdc_n_write_flush+0xc>
1000b2f4:	1937      	adds	r7, r6, r4
1000b2f6:	2000      	movs	r0, #0
1000b2f8:	78b9      	ldrb	r1, [r7, #2]
1000b2fa:	f7ff fdf9 	bl	1000aef0 <usbd_edpt_claim>
1000b2fe:	2800      	cmp	r0, #0
1000b300:	d0e6      	beq.n	1000b2d0 <tud_cdc_n_write_flush+0xc>
1000b302:	23a6      	movs	r3, #166	; 0xa6
1000b304:	009b      	lsls	r3, r3, #2
1000b306:	469c      	mov	ip, r3
1000b308:	4464      	add	r4, ip
1000b30a:	19a4      	adds	r4, r4, r6
1000b30c:	0021      	movs	r1, r4
1000b30e:	0028      	movs	r0, r5
1000b310:	2240      	movs	r2, #64	; 0x40
1000b312:	f000 fb21 	bl	1000b958 <tu_fifo_read_n>
1000b316:	78b9      	ldrb	r1, [r7, #2]
1000b318:	1e05      	subs	r5, r0, #0
1000b31a:	d008      	beq.n	1000b32e <tud_cdc_n_write_flush+0x6a>
1000b31c:	0003      	movs	r3, r0
1000b31e:	0022      	movs	r2, r4
1000b320:	2000      	movs	r0, #0
1000b322:	f7ff fe3d 	bl	1000afa0 <usbd_edpt_xfer>
1000b326:	2800      	cmp	r0, #0
1000b328:	d0d2      	beq.n	1000b2d0 <tud_cdc_n_write_flush+0xc>
1000b32a:	0028      	movs	r0, r5
1000b32c:	e7d1      	b.n	1000b2d2 <tud_cdc_n_write_flush+0xe>
1000b32e:	2000      	movs	r0, #0
1000b330:	f7ff fe10 	bl	1000af54 <usbd_edpt_release>
1000b334:	e7cc      	b.n	1000b2d0 <tud_cdc_n_write_flush+0xc>
1000b336:	46c0      	nop			; (mov r8, r8)
1000b338:	2000084c 	.word	0x2000084c

1000b33c <tud_cdc_n_write>:
1000b33c:	b570      	push	{r4, r5, r6, lr}
1000b33e:	24b6      	movs	r4, #182	; 0xb6
1000b340:	00a4      	lsls	r4, r4, #2
1000b342:	4344      	muls	r4, r0
1000b344:	4b09      	ldr	r3, [pc, #36]	; (1000b36c <tud_cdc_n_write+0x30>)
1000b346:	342c      	adds	r4, #44	; 0x2c
1000b348:	18e4      	adds	r4, r4, r3
1000b34a:	0005      	movs	r5, r0
1000b34c:	b292      	uxth	r2, r2
1000b34e:	0020      	movs	r0, r4
1000b350:	f000 fbc0 	bl	1000bad4 <tu_fifo_write_n>
1000b354:	0006      	movs	r6, r0
1000b356:	0020      	movs	r0, r4
1000b358:	f000 fa8a 	bl	1000b870 <tu_fifo_count>
1000b35c:	283f      	cmp	r0, #63	; 0x3f
1000b35e:	d801      	bhi.n	1000b364 <tud_cdc_n_write+0x28>
1000b360:	0030      	movs	r0, r6
1000b362:	bd70      	pop	{r4, r5, r6, pc}
1000b364:	0028      	movs	r0, r5
1000b366:	f7ff ffad 	bl	1000b2c4 <tud_cdc_n_write_flush>
1000b36a:	e7f9      	b.n	1000b360 <tud_cdc_n_write+0x24>
1000b36c:	2000084c 	.word	0x2000084c

1000b370 <tud_cdc_n_write_available>:
1000b370:	23b6      	movs	r3, #182	; 0xb6
1000b372:	009b      	lsls	r3, r3, #2
1000b374:	4358      	muls	r0, r3
1000b376:	b510      	push	{r4, lr}
1000b378:	4b02      	ldr	r3, [pc, #8]	; (1000b384 <tud_cdc_n_write_available+0x14>)
1000b37a:	302c      	adds	r0, #44	; 0x2c
1000b37c:	18c0      	adds	r0, r0, r3
1000b37e:	f000 fa8f 	bl	1000b8a0 <tu_fifo_remaining>
1000b382:	bd10      	pop	{r4, pc}
1000b384:	2000084c 	.word	0x2000084c

1000b388 <cdcd_init>:
1000b388:	22b6      	movs	r2, #182	; 0xb6
1000b38a:	b5f0      	push	{r4, r5, r6, r7, lr}
1000b38c:	4c1b      	ldr	r4, [pc, #108]	; (1000b3fc <cdcd_init+0x74>)
1000b38e:	b083      	sub	sp, #12
1000b390:	2100      	movs	r1, #0
1000b392:	0020      	movs	r0, r4
1000b394:	0092      	lsls	r2, r2, #2
1000b396:	f7fd fe73 	bl	10009080 <__wrap_memset>
1000b39a:	23ff      	movs	r3, #255	; 0xff
1000b39c:	7163      	strb	r3, [r4, #5]
1000b39e:	4b18      	ldr	r3, [pc, #96]	; (1000b400 <cdcd_init+0x78>)
1000b3a0:	2680      	movs	r6, #128	; 0x80
1000b3a2:	2500      	movs	r5, #0
1000b3a4:	80e3      	strh	r3, [r4, #6]
1000b3a6:	2701      	movs	r7, #1
1000b3a8:	2308      	movs	r3, #8
1000b3aa:	0021      	movs	r1, r4
1000b3ac:	0020      	movs	r0, r4
1000b3ae:	0076      	lsls	r6, r6, #1
1000b3b0:	7323      	strb	r3, [r4, #12]
1000b3b2:	0032      	movs	r2, r6
1000b3b4:	8127      	strh	r7, [r4, #8]
1000b3b6:	3148      	adds	r1, #72	; 0x48
1000b3b8:	9500      	str	r5, [sp, #0]
1000b3ba:	3b07      	subs	r3, #7
1000b3bc:	3010      	adds	r0, #16
1000b3be:	f000 fa1b 	bl	1000b7f8 <tu_fifo_config>
1000b3c2:	0021      	movs	r1, r4
1000b3c4:	0020      	movs	r0, r4
1000b3c6:	3149      	adds	r1, #73	; 0x49
1000b3c8:	0032      	movs	r2, r6
1000b3ca:	31ff      	adds	r1, #255	; 0xff
1000b3cc:	2301      	movs	r3, #1
1000b3ce:	9700      	str	r7, [sp, #0]
1000b3d0:	302c      	adds	r0, #44	; 0x2c
1000b3d2:	f000 fa11 	bl	1000b7f8 <tu_fifo_config>
1000b3d6:	2392      	movs	r3, #146	; 0x92
1000b3d8:	009b      	lsls	r3, r3, #2
1000b3da:	18e6      	adds	r6, r4, r3
1000b3dc:	0030      	movs	r0, r6
1000b3de:	f7fb f9b3 	bl	10006748 <mutex_init>
1000b3e2:	2394      	movs	r3, #148	; 0x94
1000b3e4:	009b      	lsls	r3, r3, #2
1000b3e6:	62a6      	str	r6, [r4, #40]	; 0x28
1000b3e8:	18e6      	adds	r6, r4, r3
1000b3ea:	0030      	movs	r0, r6
1000b3ec:	6265      	str	r5, [r4, #36]	; 0x24
1000b3ee:	f7fb f9ab 	bl	10006748 <mutex_init>
1000b3f2:	6426      	str	r6, [r4, #64]	; 0x40
1000b3f4:	6465      	str	r5, [r4, #68]	; 0x44
1000b3f6:	b003      	add	sp, #12
1000b3f8:	bdf0      	pop	{r4, r5, r6, r7, pc}
1000b3fa:	46c0      	nop			; (mov r8, r8)
1000b3fc:	2000084c 	.word	0x2000084c
1000b400:	ffffc200 	.word	0xffffc200

1000b404 <cdcd_reset>:
1000b404:	b510      	push	{r4, lr}
1000b406:	4c09      	ldr	r4, [pc, #36]	; (1000b42c <cdcd_reset+0x28>)
1000b408:	2205      	movs	r2, #5
1000b40a:	2100      	movs	r1, #0
1000b40c:	0020      	movs	r0, r4
1000b40e:	f7fd fe37 	bl	10009080 <__wrap_memset>
1000b412:	0020      	movs	r0, r4
1000b414:	342c      	adds	r4, #44	; 0x2c
1000b416:	3010      	adds	r0, #16
1000b418:	f000 fbdc 	bl	1000bbd4 <tu_fifo_clear>
1000b41c:	0020      	movs	r0, r4
1000b41e:	f000 fbd9 	bl	1000bbd4 <tu_fifo_clear>
1000b422:	2101      	movs	r1, #1
1000b424:	0020      	movs	r0, r4
1000b426:	f000 fbfb 	bl	1000bc20 <tu_fifo_set_overwritable>
1000b42a:	bd10      	pop	{r4, pc}
1000b42c:	2000084c 	.word	0x2000084c

1000b430 <cdcd_open>:
1000b430:	b5f0      	push	{r4, r5, r6, r7, lr}
1000b432:	794b      	ldrb	r3, [r1, #5]
1000b434:	0006      	movs	r6, r0
1000b436:	b083      	sub	sp, #12
1000b438:	2b02      	cmp	r3, #2
1000b43a:	d102      	bne.n	1000b442 <cdcd_open+0x12>
1000b43c:	798b      	ldrb	r3, [r1, #6]
1000b43e:	2b02      	cmp	r3, #2
1000b440:	d003      	beq.n	1000b44a <cdcd_open+0x1a>
1000b442:	2500      	movs	r5, #0
1000b444:	0028      	movs	r0, r5
1000b446:	b003      	add	sp, #12
1000b448:	bdf0      	pop	{r4, r5, r6, r7, pc}
1000b44a:	4f2f      	ldr	r7, [pc, #188]	; (1000b508 <cdcd_open+0xd8>)
1000b44c:	78bb      	ldrb	r3, [r7, #2]
1000b44e:	2b00      	cmp	r3, #0
1000b450:	d1f7      	bne.n	1000b442 <cdcd_open+0x12>
1000b452:	788b      	ldrb	r3, [r1, #2]
1000b454:	2509      	movs	r5, #9
1000b456:	703b      	strb	r3, [r7, #0]
1000b458:	780c      	ldrb	r4, [r1, #0]
1000b45a:	190c      	adds	r4, r1, r4
1000b45c:	7863      	ldrb	r3, [r4, #1]
1000b45e:	2b24      	cmp	r3, #36	; 0x24
1000b460:	d10b      	bne.n	1000b47a <cdcd_open+0x4a>
1000b462:	2a08      	cmp	r2, #8
1000b464:	d802      	bhi.n	1000b46c <cdcd_open+0x3c>
1000b466:	e00f      	b.n	1000b488 <cdcd_open+0x58>
1000b468:	42aa      	cmp	r2, r5
1000b46a:	d30d      	bcc.n	1000b488 <cdcd_open+0x58>
1000b46c:	7823      	ldrb	r3, [r4, #0]
1000b46e:	18e4      	adds	r4, r4, r3
1000b470:	18ed      	adds	r5, r5, r3
1000b472:	7863      	ldrb	r3, [r4, #1]
1000b474:	b2ad      	uxth	r5, r5
1000b476:	2b24      	cmp	r3, #36	; 0x24
1000b478:	d0f6      	beq.n	1000b468 <cdcd_open+0x38>
1000b47a:	2b05      	cmp	r3, #5
1000b47c:	d020      	beq.n	1000b4c0 <cdcd_open+0x90>
1000b47e:	2b04      	cmp	r3, #4
1000b480:	d102      	bne.n	1000b488 <cdcd_open+0x58>
1000b482:	7963      	ldrb	r3, [r4, #5]
1000b484:	2b0a      	cmp	r3, #10
1000b486:	d02e      	beq.n	1000b4e6 <cdcd_open+0xb6>
1000b488:	4c20      	ldr	r4, [pc, #128]	; (1000b50c <cdcd_open+0xdc>)
1000b48a:	0020      	movs	r0, r4
1000b48c:	f000 fa08 	bl	1000b8a0 <tu_fifo_remaining>
1000b490:	283f      	cmp	r0, #63	; 0x3f
1000b492:	d9d7      	bls.n	1000b444 <cdcd_open+0x14>
1000b494:	0026      	movs	r6, r4
1000b496:	3e10      	subs	r6, #16
1000b498:	2000      	movs	r0, #0
1000b49a:	78f1      	ldrb	r1, [r6, #3]
1000b49c:	f7ff fd28 	bl	1000aef0 <usbd_edpt_claim>
1000b4a0:	2800      	cmp	r0, #0
1000b4a2:	d0cf      	beq.n	1000b444 <cdcd_open+0x14>
1000b4a4:	0020      	movs	r0, r4
1000b4a6:	f000 f9fb 	bl	1000b8a0 <tu_fifo_remaining>
1000b4aa:	283f      	cmp	r0, #63	; 0x3f
1000b4ac:	d916      	bls.n	1000b4dc <cdcd_open+0xac>
1000b4ae:	2392      	movs	r3, #146	; 0x92
1000b4b0:	009b      	lsls	r3, r3, #2
1000b4b2:	18e2      	adds	r2, r4, r3
1000b4b4:	78f1      	ldrb	r1, [r6, #3]
1000b4b6:	2340      	movs	r3, #64	; 0x40
1000b4b8:	2000      	movs	r0, #0
1000b4ba:	f7ff fd71 	bl	1000afa0 <usbd_edpt_xfer>
1000b4be:	e7c1      	b.n	1000b444 <cdcd_open+0x14>
1000b4c0:	0021      	movs	r1, r4
1000b4c2:	0030      	movs	r0, r6
1000b4c4:	f7ff fcfc 	bl	1000aec0 <usbd_edpt_open>
1000b4c8:	2800      	cmp	r0, #0
1000b4ca:	d0ba      	beq.n	1000b442 <cdcd_open+0x12>
1000b4cc:	78a3      	ldrb	r3, [r4, #2]
1000b4ce:	707b      	strb	r3, [r7, #1]
1000b4d0:	7823      	ldrb	r3, [r4, #0]
1000b4d2:	18ed      	adds	r5, r5, r3
1000b4d4:	18e4      	adds	r4, r4, r3
1000b4d6:	7863      	ldrb	r3, [r4, #1]
1000b4d8:	b2ad      	uxth	r5, r5
1000b4da:	e7d0      	b.n	1000b47e <cdcd_open+0x4e>
1000b4dc:	78f1      	ldrb	r1, [r6, #3]
1000b4de:	2000      	movs	r0, #0
1000b4e0:	f7ff fd38 	bl	1000af54 <usbd_edpt_release>
1000b4e4:	e7ae      	b.n	1000b444 <cdcd_open+0x14>
1000b4e6:	4b0a      	ldr	r3, [pc, #40]	; (1000b510 <cdcd_open+0xe0>)
1000b4e8:	7827      	ldrb	r7, [r4, #0]
1000b4ea:	9301      	str	r3, [sp, #4]
1000b4ec:	3301      	adds	r3, #1
1000b4ee:	9300      	str	r3, [sp, #0]
1000b4f0:	2202      	movs	r2, #2
1000b4f2:	2302      	movs	r3, #2
1000b4f4:	0030      	movs	r0, r6
1000b4f6:	19e1      	adds	r1, r4, r7
1000b4f8:	f7ff fca2 	bl	1000ae40 <usbd_open_edpt_pair>
1000b4fc:	2800      	cmp	r0, #0
1000b4fe:	d0a0      	beq.n	1000b442 <cdcd_open+0x12>
1000b500:	350e      	adds	r5, #14
1000b502:	19ed      	adds	r5, r5, r7
1000b504:	b2ad      	uxth	r5, r5
1000b506:	e7bf      	b.n	1000b488 <cdcd_open+0x58>
1000b508:	2000084c 	.word	0x2000084c
1000b50c:	2000085c 	.word	0x2000085c
1000b510:	2000084e 	.word	0x2000084e

1000b514 <cdcd_control_xfer_cb>:
1000b514:	b5f8      	push	{r3, r4, r5, r6, r7, lr}
1000b516:	2360      	movs	r3, #96	; 0x60
1000b518:	0014      	movs	r4, r2
1000b51a:	7812      	ldrb	r2, [r2, #0]
1000b51c:	0005      	movs	r5, r0
1000b51e:	4013      	ands	r3, r2
1000b520:	2000      	movs	r0, #0
1000b522:	2b20      	cmp	r3, #32
1000b524:	d112      	bne.n	1000b54c <cdcd_control_xfer_cb+0x38>
1000b526:	4a2f      	ldr	r2, [pc, #188]	; (1000b5e4 <cdcd_control_xfer_cb+0xd0>)
1000b528:	7963      	ldrb	r3, [r4, #5]
1000b52a:	7927      	ldrb	r7, [r4, #4]
1000b52c:	7816      	ldrb	r6, [r2, #0]
1000b52e:	021b      	lsls	r3, r3, #8
1000b530:	433b      	orrs	r3, r7
1000b532:	429e      	cmp	r6, r3
1000b534:	d10a      	bne.n	1000b54c <cdcd_control_xfer_cb+0x38>
1000b536:	7863      	ldrb	r3, [r4, #1]
1000b538:	2b22      	cmp	r3, #34	; 0x22
1000b53a:	d027      	beq.n	1000b58c <cdcd_control_xfer_cb+0x78>
1000b53c:	d807      	bhi.n	1000b54e <cdcd_control_xfer_cb+0x3a>
1000b53e:	2b20      	cmp	r3, #32
1000b540:	d017      	beq.n	1000b572 <cdcd_control_xfer_cb+0x5e>
1000b542:	2b21      	cmp	r3, #33	; 0x21
1000b544:	d102      	bne.n	1000b54c <cdcd_control_xfer_cb+0x38>
1000b546:	2900      	cmp	r1, #0
1000b548:	d03d      	beq.n	1000b5c6 <cdcd_control_xfer_cb+0xb2>
1000b54a:	2001      	movs	r0, #1
1000b54c:	bdf8      	pop	{r3, r4, r5, r6, r7, pc}
1000b54e:	2b23      	cmp	r3, #35	; 0x23
1000b550:	d1fc      	bne.n	1000b54c <cdcd_control_xfer_cb+0x38>
1000b552:	2900      	cmp	r1, #0
1000b554:	d03f      	beq.n	1000b5d6 <cdcd_control_xfer_cb+0xc2>
1000b556:	2902      	cmp	r1, #2
1000b558:	d1f7      	bne.n	1000b54a <cdcd_control_xfer_cb+0x36>
1000b55a:	4b23      	ldr	r3, [pc, #140]	; (1000b5e8 <cdcd_control_xfer_cb+0xd4>)
1000b55c:	2b00      	cmp	r3, #0
1000b55e:	d0f4      	beq.n	1000b54a <cdcd_control_xfer_cb+0x36>
1000b560:	78e1      	ldrb	r1, [r4, #3]
1000b562:	78a3      	ldrb	r3, [r4, #2]
1000b564:	0209      	lsls	r1, r1, #8
1000b566:	2000      	movs	r0, #0
1000b568:	4319      	orrs	r1, r3
1000b56a:	e000      	b.n	1000b56e <cdcd_control_xfer_cb+0x5a>
1000b56c:	bf00      	nop
1000b56e:	2001      	movs	r0, #1
1000b570:	e7ec      	b.n	1000b54c <cdcd_control_xfer_cb+0x38>
1000b572:	2900      	cmp	r1, #0
1000b574:	d027      	beq.n	1000b5c6 <cdcd_control_xfer_cb+0xb2>
1000b576:	2902      	cmp	r1, #2
1000b578:	d1e7      	bne.n	1000b54a <cdcd_control_xfer_cb+0x36>
1000b57a:	4b1c      	ldr	r3, [pc, #112]	; (1000b5ec <cdcd_control_xfer_cb+0xd8>)
1000b57c:	2b00      	cmp	r3, #0
1000b57e:	d0e4      	beq.n	1000b54a <cdcd_control_xfer_cb+0x36>
1000b580:	2000      	movs	r0, #0
1000b582:	1d91      	adds	r1, r2, #6
1000b584:	f7fd fff2 	bl	1000956c <tud_cdc_line_coding_cb>
1000b588:	2001      	movs	r0, #1
1000b58a:	e7df      	b.n	1000b54c <cdcd_control_xfer_cb+0x38>
1000b58c:	2900      	cmp	r1, #0
1000b58e:	d022      	beq.n	1000b5d6 <cdcd_control_xfer_cb+0xc2>
1000b590:	2902      	cmp	r1, #2
1000b592:	d1da      	bne.n	1000b54a <cdcd_control_xfer_cb+0x36>
1000b594:	2501      	movs	r5, #1
1000b596:	002e      	movs	r6, r5
1000b598:	78a3      	ldrb	r3, [r4, #2]
1000b59a:	78e4      	ldrb	r4, [r4, #3]
1000b59c:	3901      	subs	r1, #1
1000b59e:	0224      	lsls	r4, r4, #8
1000b5a0:	431c      	orrs	r4, r3
1000b5a2:	7114      	strb	r4, [r2, #4]
1000b5a4:	4026      	ands	r6, r4
1000b5a6:	322c      	adds	r2, #44	; 0x2c
1000b5a8:	0010      	movs	r0, r2
1000b5aa:	4071      	eors	r1, r6
1000b5ac:	f000 fb38 	bl	1000bc20 <tu_fifo_set_overwritable>
1000b5b0:	4b0f      	ldr	r3, [pc, #60]	; (1000b5f0 <cdcd_control_xfer_cb+0xdc>)
1000b5b2:	2b00      	cmp	r3, #0
1000b5b4:	d0c9      	beq.n	1000b54a <cdcd_control_xfer_cb+0x36>
1000b5b6:	0862      	lsrs	r2, r4, #1
1000b5b8:	2000      	movs	r0, #0
1000b5ba:	0031      	movs	r1, r6
1000b5bc:	402a      	ands	r2, r5
1000b5be:	e000      	b.n	1000b5c2 <cdcd_control_xfer_cb+0xae>
1000b5c0:	bf00      	nop
1000b5c2:	2001      	movs	r0, #1
1000b5c4:	e7c2      	b.n	1000b54c <cdcd_control_xfer_cb+0x38>
1000b5c6:	2307      	movs	r3, #7
1000b5c8:	0021      	movs	r1, r4
1000b5ca:	0028      	movs	r0, r5
1000b5cc:	4a09      	ldr	r2, [pc, #36]	; (1000b5f4 <cdcd_control_xfer_cb+0xe0>)
1000b5ce:	f7ff fd23 	bl	1000b018 <tud_control_xfer>
1000b5d2:	2001      	movs	r0, #1
1000b5d4:	e7ba      	b.n	1000b54c <cdcd_control_xfer_cb+0x38>
1000b5d6:	0021      	movs	r1, r4
1000b5d8:	0028      	movs	r0, r5
1000b5da:	f7ff fd05 	bl	1000afe8 <tud_control_status>
1000b5de:	2001      	movs	r0, #1
1000b5e0:	e7b4      	b.n	1000b54c <cdcd_control_xfer_cb+0x38>
1000b5e2:	46c0      	nop			; (mov r8, r8)
1000b5e4:	2000084c 	.word	0x2000084c
1000b5e8:	00000000 	.word	0x00000000
1000b5ec:	1000956d 	.word	0x1000956d
1000b5f0:	00000000 	.word	0x00000000
1000b5f4:	20000852 	.word	0x20000852

1000b5f8 <cdcd_xfer_cb>:
1000b5f8:	b5f8      	push	{r3, r4, r5, r6, r7, lr}
1000b5fa:	4657      	mov	r7, sl
1000b5fc:	464e      	mov	r6, r9
1000b5fe:	4645      	mov	r5, r8
1000b600:	46de      	mov	lr, fp
1000b602:	b5e0      	push	{r5, r6, r7, lr}
1000b604:	4f49      	ldr	r7, [pc, #292]	; (1000b72c <cdcd_xfer_cb+0x134>)
1000b606:	4680      	mov	r8, r0
1000b608:	78fa      	ldrb	r2, [r7, #3]
1000b60a:	000c      	movs	r4, r1
1000b60c:	001e      	movs	r6, r3
1000b60e:	428a      	cmp	r2, r1
1000b610:	d164      	bne.n	1000b6dc <cdcd_xfer_cb+0xe4>
1000b612:	b29a      	uxth	r2, r3
1000b614:	2396      	movs	r3, #150	; 0x96
1000b616:	009b      	lsls	r3, r3, #2
1000b618:	18fd      	adds	r5, r7, r3
1000b61a:	2310      	movs	r3, #16
1000b61c:	469b      	mov	fp, r3
1000b61e:	44bb      	add	fp, r7
1000b620:	0029      	movs	r1, r5
1000b622:	4658      	mov	r0, fp
1000b624:	f000 fa56 	bl	1000bad4 <tu_fifo_write_n>
1000b628:	4b41      	ldr	r3, [pc, #260]	; (1000b730 <cdcd_xfer_cb+0x138>)
1000b62a:	46d9      	mov	r9, fp
1000b62c:	2b00      	cmp	r3, #0
1000b62e:	d018      	beq.n	1000b662 <cdcd_xfer_cb+0x6a>
1000b630:	797b      	ldrb	r3, [r7, #5]
1000b632:	46d9      	mov	r9, fp
1000b634:	2bff      	cmp	r3, #255	; 0xff
1000b636:	d014      	beq.n	1000b662 <cdcd_xfer_cb+0x6a>
1000b638:	2e00      	cmp	r6, #0
1000b63a:	d012      	beq.n	1000b662 <cdcd_xfer_cb+0x6a>
1000b63c:	19aa      	adds	r2, r5, r6
1000b63e:	4692      	mov	sl, r2
1000b640:	e003      	b.n	1000b64a <cdcd_xfer_cb+0x52>
1000b642:	3501      	adds	r5, #1
1000b644:	4555      	cmp	r5, sl
1000b646:	d00c      	beq.n	1000b662 <cdcd_xfer_cb+0x6a>
1000b648:	797b      	ldrb	r3, [r7, #5]
1000b64a:	782a      	ldrb	r2, [r5, #0]
1000b64c:	429a      	cmp	r2, r3
1000b64e:	d1f8      	bne.n	1000b642 <cdcd_xfer_cb+0x4a>
1000b650:	4648      	mov	r0, r9
1000b652:	f000 f91d 	bl	1000b890 <tu_fifo_empty>
1000b656:	2800      	cmp	r0, #0
1000b658:	d1f3      	bne.n	1000b642 <cdcd_xfer_cb+0x4a>
1000b65a:	7979      	ldrb	r1, [r7, #5]
1000b65c:	e000      	b.n	1000b660 <cdcd_xfer_cb+0x68>
1000b65e:	bf00      	nop
1000b660:	e7ef      	b.n	1000b642 <cdcd_xfer_cb+0x4a>
1000b662:	4b34      	ldr	r3, [pc, #208]	; (1000b734 <cdcd_xfer_cb+0x13c>)
1000b664:	2b00      	cmp	r3, #0
1000b666:	d004      	beq.n	1000b672 <cdcd_xfer_cb+0x7a>
1000b668:	4648      	mov	r0, r9
1000b66a:	f000 f911 	bl	1000b890 <tu_fifo_empty>
1000b66e:	2800      	cmp	r0, #0
1000b670:	d052      	beq.n	1000b718 <cdcd_xfer_cb+0x120>
1000b672:	4648      	mov	r0, r9
1000b674:	f000 f914 	bl	1000b8a0 <tu_fifo_remaining>
1000b678:	283f      	cmp	r0, #63	; 0x3f
1000b67a:	d834      	bhi.n	1000b6e6 <cdcd_xfer_cb+0xee>
1000b67c:	464a      	mov	r2, r9
1000b67e:	3a10      	subs	r2, #16
1000b680:	7893      	ldrb	r3, [r2, #2]
1000b682:	42a3      	cmp	r3, r4
1000b684:	d007      	beq.n	1000b696 <cdcd_xfer_cb+0x9e>
1000b686:	2401      	movs	r4, #1
1000b688:	0020      	movs	r0, r4
1000b68a:	bcf0      	pop	{r4, r5, r6, r7}
1000b68c:	46bb      	mov	fp, r7
1000b68e:	46b2      	mov	sl, r6
1000b690:	46a9      	mov	r9, r5
1000b692:	46a0      	mov	r8, r4
1000b694:	bdf8      	pop	{r3, r4, r5, r6, r7, pc}
1000b696:	4b28      	ldr	r3, [pc, #160]	; (1000b738 <cdcd_xfer_cb+0x140>)
1000b698:	2b00      	cmp	r3, #0
1000b69a:	d002      	beq.n	1000b6a2 <cdcd_xfer_cb+0xaa>
1000b69c:	2000      	movs	r0, #0
1000b69e:	e000      	b.n	1000b6a2 <cdcd_xfer_cb+0xaa>
1000b6a0:	bf00      	nop
1000b6a2:	2000      	movs	r0, #0
1000b6a4:	f7ff fe0e 	bl	1000b2c4 <tud_cdc_n_write_flush>
1000b6a8:	2800      	cmp	r0, #0
1000b6aa:	d1ec      	bne.n	1000b686 <cdcd_xfer_cb+0x8e>
1000b6ac:	4d23      	ldr	r5, [pc, #140]	; (1000b73c <cdcd_xfer_cb+0x144>)
1000b6ae:	0028      	movs	r0, r5
1000b6b0:	f000 f8de 	bl	1000b870 <tu_fifo_count>
1000b6b4:	2800      	cmp	r0, #0
1000b6b6:	d1e6      	bne.n	1000b686 <cdcd_xfer_cb+0x8e>
1000b6b8:	2e00      	cmp	r6, #0
1000b6ba:	d0e4      	beq.n	1000b686 <cdcd_xfer_cb+0x8e>
1000b6bc:	06b3      	lsls	r3, r6, #26
1000b6be:	d1e2      	bne.n	1000b686 <cdcd_xfer_cb+0x8e>
1000b6c0:	3d2c      	subs	r5, #44	; 0x2c
1000b6c2:	4640      	mov	r0, r8
1000b6c4:	78a9      	ldrb	r1, [r5, #2]
1000b6c6:	f7ff fc13 	bl	1000aef0 <usbd_edpt_claim>
1000b6ca:	1e04      	subs	r4, r0, #0
1000b6cc:	d0db      	beq.n	1000b686 <cdcd_xfer_cb+0x8e>
1000b6ce:	2300      	movs	r3, #0
1000b6d0:	2200      	movs	r2, #0
1000b6d2:	4640      	mov	r0, r8
1000b6d4:	78a9      	ldrb	r1, [r5, #2]
1000b6d6:	f7ff fc63 	bl	1000afa0 <usbd_edpt_xfer>
1000b6da:	e7d5      	b.n	1000b688 <cdcd_xfer_cb+0x90>
1000b6dc:	78bb      	ldrb	r3, [r7, #2]
1000b6de:	428b      	cmp	r3, r1
1000b6e0:	d0d9      	beq.n	1000b696 <cdcd_xfer_cb+0x9e>
1000b6e2:	2400      	movs	r4, #0
1000b6e4:	e7d0      	b.n	1000b688 <cdcd_xfer_cb+0x90>
1000b6e6:	464d      	mov	r5, r9
1000b6e8:	3d10      	subs	r5, #16
1000b6ea:	2000      	movs	r0, #0
1000b6ec:	78e9      	ldrb	r1, [r5, #3]
1000b6ee:	f7ff fbff 	bl	1000aef0 <usbd_edpt_claim>
1000b6f2:	2800      	cmp	r0, #0
1000b6f4:	d101      	bne.n	1000b6fa <cdcd_xfer_cb+0x102>
1000b6f6:	78ab      	ldrb	r3, [r5, #2]
1000b6f8:	e7c3      	b.n	1000b682 <cdcd_xfer_cb+0x8a>
1000b6fa:	4648      	mov	r0, r9
1000b6fc:	f000 f8d0 	bl	1000b8a0 <tu_fifo_remaining>
1000b700:	283f      	cmp	r0, #63	; 0x3f
1000b702:	d90c      	bls.n	1000b71e <cdcd_xfer_cb+0x126>
1000b704:	2292      	movs	r2, #146	; 0x92
1000b706:	0092      	lsls	r2, r2, #2
1000b708:	2340      	movs	r3, #64	; 0x40
1000b70a:	2000      	movs	r0, #0
1000b70c:	78e9      	ldrb	r1, [r5, #3]
1000b70e:	444a      	add	r2, r9
1000b710:	f7ff fc46 	bl	1000afa0 <usbd_edpt_xfer>
1000b714:	78ab      	ldrb	r3, [r5, #2]
1000b716:	e7b4      	b.n	1000b682 <cdcd_xfer_cb+0x8a>
1000b718:	e000      	b.n	1000b71c <cdcd_xfer_cb+0x124>
1000b71a:	bf00      	nop
1000b71c:	e7a9      	b.n	1000b672 <cdcd_xfer_cb+0x7a>
1000b71e:	2000      	movs	r0, #0
1000b720:	78e9      	ldrb	r1, [r5, #3]
1000b722:	f7ff fc17 	bl	1000af54 <usbd_edpt_release>
1000b726:	78ab      	ldrb	r3, [r5, #2]
1000b728:	e7ab      	b.n	1000b682 <cdcd_xfer_cb+0x8a>
1000b72a:	46c0      	nop			; (mov r8, r8)
1000b72c:	2000084c 	.word	0x2000084c
	...
1000b73c:	20000878 	.word	0x20000878

1000b740 <tusb_init>:
1000b740:	b510      	push	{r4, lr}
1000b742:	2000      	movs	r0, #0
1000b744:	f7fe fd84 	bl	1000a250 <tud_init>
1000b748:	bd10      	pop	{r4, pc}
1000b74a:	46c0      	nop			; (mov r8, r8)

1000b74c <tusb_inited>:
1000b74c:	b510      	push	{r4, lr}
1000b74e:	f7fe fd79 	bl	1000a244 <tud_inited>
1000b752:	bd10      	pop	{r4, pc}

1000b754 <tu_edpt_validate>:
1000b754:	2207      	movs	r2, #7
1000b756:	b510      	push	{r4, lr}
1000b758:	7944      	ldrb	r4, [r0, #5]
1000b75a:	7903      	ldrb	r3, [r0, #4]
1000b75c:	4022      	ands	r2, r4
1000b75e:	0212      	lsls	r2, r2, #8
1000b760:	431a      	orrs	r2, r3
1000b762:	78c3      	ldrb	r3, [r0, #3]
1000b764:	079b      	lsls	r3, r3, #30
1000b766:	0f9b      	lsrs	r3, r3, #30
1000b768:	2b02      	cmp	r3, #2
1000b76a:	d005      	beq.n	1000b778 <tu_edpt_validate+0x24>
1000b76c:	2b03      	cmp	r3, #3
1000b76e:	d015      	beq.n	1000b79c <tu_edpt_validate+0x48>
1000b770:	2000      	movs	r0, #0
1000b772:	2b01      	cmp	r3, #1
1000b774:	d008      	beq.n	1000b788 <tu_edpt_validate+0x34>
1000b776:	bd10      	pop	{r4, pc}
1000b778:	2902      	cmp	r1, #2
1000b77a:	d01c      	beq.n	1000b7b6 <tu_edpt_validate+0x62>
1000b77c:	2000      	movs	r0, #0
1000b77e:	2340      	movs	r3, #64	; 0x40
1000b780:	4293      	cmp	r3, r2
1000b782:	4140      	adcs	r0, r0
1000b784:	b2c0      	uxtb	r0, r0
1000b786:	e7f6      	b.n	1000b776 <tu_edpt_validate+0x22>
1000b788:	3902      	subs	r1, #2
1000b78a:	424b      	negs	r3, r1
1000b78c:	4159      	adcs	r1, r3
1000b78e:	4b0d      	ldr	r3, [pc, #52]	; (1000b7c4 <tu_edpt_validate+0x70>)
1000b790:	469c      	mov	ip, r3
1000b792:	4461      	add	r1, ip
1000b794:	4291      	cmp	r1, r2
1000b796:	4140      	adcs	r0, r0
1000b798:	b2c0      	uxtb	r0, r0
1000b79a:	e7ec      	b.n	1000b776 <tu_edpt_validate+0x22>
1000b79c:	3902      	subs	r1, #2
1000b79e:	424b      	negs	r3, r1
1000b7a0:	4159      	adcs	r1, r3
1000b7a2:	23f0      	movs	r3, #240	; 0xf0
1000b7a4:	2000      	movs	r0, #0
1000b7a6:	4249      	negs	r1, r1
1000b7a8:	009b      	lsls	r3, r3, #2
1000b7aa:	4019      	ands	r1, r3
1000b7ac:	3140      	adds	r1, #64	; 0x40
1000b7ae:	4291      	cmp	r1, r2
1000b7b0:	4140      	adcs	r0, r0
1000b7b2:	b2c0      	uxtb	r0, r0
1000b7b4:	e7df      	b.n	1000b776 <tu_edpt_validate+0x22>
1000b7b6:	4b04      	ldr	r3, [pc, #16]	; (1000b7c8 <tu_edpt_validate+0x74>)
1000b7b8:	469c      	mov	ip, r3
1000b7ba:	4462      	add	r2, ip
1000b7bc:	4253      	negs	r3, r2
1000b7be:	415a      	adcs	r2, r3
1000b7c0:	b2d0      	uxtb	r0, r2
1000b7c2:	e7d8      	b.n	1000b776 <tu_edpt_validate+0x22>
1000b7c4:	000003ff 	.word	0x000003ff
1000b7c8:	fffffe00 	.word	0xfffffe00

1000b7cc <tu_edpt_bind_driver>:
1000b7cc:	b5f0      	push	{r4, r5, r6, r7, lr}
1000b7ce:	2a00      	cmp	r2, #0
1000b7d0:	d011      	beq.n	1000b7f6 <tu_edpt_bind_driver+0x2a>
1000b7d2:	2400      	movs	r4, #0
1000b7d4:	277f      	movs	r7, #127	; 0x7f
1000b7d6:	784d      	ldrb	r5, [r1, #1]
1000b7d8:	2d05      	cmp	r5, #5
1000b7da:	d106      	bne.n	1000b7ea <tu_edpt_bind_driver+0x1e>
1000b7dc:	003d      	movs	r5, r7
1000b7de:	788e      	ldrb	r6, [r1, #2]
1000b7e0:	4035      	ands	r5, r6
1000b7e2:	006d      	lsls	r5, r5, #1
1000b7e4:	09f6      	lsrs	r6, r6, #7
1000b7e6:	1945      	adds	r5, r0, r5
1000b7e8:	55ab      	strb	r3, [r5, r6]
1000b7ea:	780d      	ldrb	r5, [r1, #0]
1000b7ec:	1964      	adds	r4, r4, r5
1000b7ee:	b2a4      	uxth	r4, r4
1000b7f0:	1949      	adds	r1, r1, r5
1000b7f2:	42a2      	cmp	r2, r4
1000b7f4:	d8ef      	bhi.n	1000b7d6 <tu_edpt_bind_driver+0xa>
1000b7f6:	bdf0      	pop	{r4, r5, r6, r7, pc}

1000b7f8 <tu_fifo_config>:
1000b7f8:	b5f0      	push	{r4, r5, r6, r7, lr}
1000b7fa:	46c6      	mov	lr, r8
1000b7fc:	b500      	push	{lr}
1000b7fe:	0015      	movs	r5, r2
1000b800:	aa06      	add	r2, sp, #24
1000b802:	001e      	movs	r6, r3
1000b804:	7813      	ldrb	r3, [r2, #0]
1000b806:	2280      	movs	r2, #128	; 0x80
1000b808:	0004      	movs	r4, r0
1000b80a:	000f      	movs	r7, r1
1000b80c:	4698      	mov	r8, r3
1000b80e:	0212      	lsls	r2, r2, #8
1000b810:	4295      	cmp	r5, r2
1000b812:	d82a      	bhi.n	1000b86a <tu_fifo_config+0x72>
1000b814:	6940      	ldr	r0, [r0, #20]
1000b816:	2800      	cmp	r0, #0
1000b818:	d003      	beq.n	1000b822 <tu_fifo_config+0x2a>
1000b81a:	2101      	movs	r1, #1
1000b81c:	4249      	negs	r1, r1
1000b81e:	f000 fd83 	bl	1000c328 <__mutex_enter_timeout_ms_veneer>
1000b822:	69a0      	ldr	r0, [r4, #24]
1000b824:	2800      	cmp	r0, #0
1000b826:	d003      	beq.n	1000b830 <tu_fifo_config+0x38>
1000b828:	2101      	movs	r1, #1
1000b82a:	4249      	negs	r1, r1
1000b82c:	f000 fd7c 	bl	1000c328 <__mutex_enter_timeout_ms_veneer>
1000b830:	4643      	mov	r3, r8
1000b832:	80a5      	strh	r5, [r4, #4]
1000b834:	006d      	lsls	r5, r5, #1
1000b836:	b2ad      	uxth	r5, r5
1000b838:	7223      	strb	r3, [r4, #8]
1000b83a:	1e6b      	subs	r3, r5, #1
1000b83c:	81a3      	strh	r3, [r4, #12]
1000b83e:	2300      	movs	r3, #0
1000b840:	6960      	ldr	r0, [r4, #20]
1000b842:	426d      	negs	r5, r5
1000b844:	81e3      	strh	r3, [r4, #14]
1000b846:	6027      	str	r7, [r4, #0]
1000b848:	80e6      	strh	r6, [r4, #6]
1000b84a:	8165      	strh	r5, [r4, #10]
1000b84c:	8223      	strh	r3, [r4, #16]
1000b84e:	2800      	cmp	r0, #0
1000b850:	d001      	beq.n	1000b856 <tu_fifo_config+0x5e>
1000b852:	f000 fd49 	bl	1000c2e8 <__mutex_exit_veneer>
1000b856:	69a0      	ldr	r0, [r4, #24]
1000b858:	2401      	movs	r4, #1
1000b85a:	2800      	cmp	r0, #0
1000b85c:	d001      	beq.n	1000b862 <tu_fifo_config+0x6a>
1000b85e:	f000 fd43 	bl	1000c2e8 <__mutex_exit_veneer>
1000b862:	0020      	movs	r0, r4
1000b864:	bc80      	pop	{r7}
1000b866:	46b8      	mov	r8, r7
1000b868:	bdf0      	pop	{r4, r5, r6, r7, pc}
1000b86a:	2400      	movs	r4, #0
1000b86c:	e7f9      	b.n	1000b862 <tu_fifo_config+0x6a>
1000b86e:	46c0      	nop			; (mov r8, r8)

1000b870 <tu_fifo_count>:
1000b870:	89c1      	ldrh	r1, [r0, #14]
1000b872:	8a02      	ldrh	r2, [r0, #16]
1000b874:	1a8b      	subs	r3, r1, r2
1000b876:	b29b      	uxth	r3, r3
1000b878:	4291      	cmp	r1, r2
1000b87a:	d202      	bcs.n	1000b882 <tu_fifo_count+0x12>
1000b87c:	8942      	ldrh	r2, [r0, #10]
1000b87e:	1a9b      	subs	r3, r3, r2
1000b880:	b29b      	uxth	r3, r3
1000b882:	8882      	ldrh	r2, [r0, #4]
1000b884:	1c10      	adds	r0, r2, #0
1000b886:	429a      	cmp	r2, r3
1000b888:	d900      	bls.n	1000b88c <tu_fifo_count+0x1c>
1000b88a:	1c18      	adds	r0, r3, #0
1000b88c:	b280      	uxth	r0, r0
1000b88e:	4770      	bx	lr

1000b890 <tu_fifo_empty>:
1000b890:	0003      	movs	r3, r0
1000b892:	89c0      	ldrh	r0, [r0, #14]
1000b894:	8a1b      	ldrh	r3, [r3, #16]
1000b896:	1ac0      	subs	r0, r0, r3
1000b898:	4243      	negs	r3, r0
1000b89a:	4158      	adcs	r0, r3
1000b89c:	b2c0      	uxtb	r0, r0
1000b89e:	4770      	bx	lr

1000b8a0 <tu_fifo_remaining>:
1000b8a0:	b510      	push	{r4, lr}
1000b8a2:	89c4      	ldrh	r4, [r0, #14]
1000b8a4:	8a01      	ldrh	r1, [r0, #16]
1000b8a6:	8883      	ldrh	r3, [r0, #4]
1000b8a8:	1a62      	subs	r2, r4, r1
1000b8aa:	b292      	uxth	r2, r2
1000b8ac:	428c      	cmp	r4, r1
1000b8ae:	d202      	bcs.n	1000b8b6 <tu_fifo_remaining+0x16>
1000b8b0:	8940      	ldrh	r0, [r0, #10]
1000b8b2:	1a12      	subs	r2, r2, r0
1000b8b4:	b292      	uxth	r2, r2
1000b8b6:	1a98      	subs	r0, r3, r2
1000b8b8:	b280      	uxth	r0, r0
1000b8ba:	bd10      	pop	{r4, pc}

1000b8bc <tu_fifo_read>:
1000b8bc:	b570      	push	{r4, r5, r6, lr}
1000b8be:	0004      	movs	r4, r0
1000b8c0:	6980      	ldr	r0, [r0, #24]
1000b8c2:	000e      	movs	r6, r1
1000b8c4:	2800      	cmp	r0, #0
1000b8c6:	d003      	beq.n	1000b8d0 <tu_fifo_read+0x14>
1000b8c8:	2101      	movs	r1, #1
1000b8ca:	4249      	negs	r1, r1
1000b8cc:	f000 fd2c 	bl	1000c328 <__mutex_enter_timeout_ms_veneer>
1000b8d0:	89e1      	ldrh	r1, [r4, #14]
1000b8d2:	8a22      	ldrh	r2, [r4, #16]
1000b8d4:	b288      	uxth	r0, r1
1000b8d6:	1a8d      	subs	r5, r1, r2
1000b8d8:	b293      	uxth	r3, r2
1000b8da:	b2ad      	uxth	r5, r5
1000b8dc:	4291      	cmp	r1, r2
1000b8de:	d202      	bcs.n	1000b8e6 <tu_fifo_read+0x2a>
1000b8e0:	8962      	ldrh	r2, [r4, #10]
1000b8e2:	1aad      	subs	r5, r5, r2
1000b8e4:	b2ad      	uxth	r5, r5
1000b8e6:	88a2      	ldrh	r2, [r4, #4]
1000b8e8:	42aa      	cmp	r2, r5
1000b8ea:	d207      	bcs.n	1000b8fc <tu_fifo_read+0x40>
1000b8ec:	4290      	cmp	r0, r2
1000b8ee:	d225      	bcs.n	1000b93c <tu_fifo_read+0x80>
1000b8f0:	8961      	ldrh	r1, [r4, #10]
1000b8f2:	1851      	adds	r1, r2, r1
1000b8f4:	1a41      	subs	r1, r0, r1
1000b8f6:	b289      	uxth	r1, r1
1000b8f8:	0015      	movs	r5, r2
1000b8fa:	8221      	strh	r1, [r4, #16]
1000b8fc:	2d00      	cmp	r5, #0
1000b8fe:	d102      	bne.n	1000b906 <tu_fifo_read+0x4a>
1000b900:	e022      	b.n	1000b948 <tu_fifo_read+0x8c>
1000b902:	1a9b      	subs	r3, r3, r2
1000b904:	b29b      	uxth	r3, r3
1000b906:	429a      	cmp	r2, r3
1000b908:	d9fb      	bls.n	1000b902 <tu_fifo_read+0x46>
1000b90a:	88e2      	ldrh	r2, [r4, #6]
1000b90c:	6821      	ldr	r1, [r4, #0]
1000b90e:	4353      	muls	r3, r2
1000b910:	0030      	movs	r0, r6
1000b912:	18c9      	adds	r1, r1, r3
1000b914:	f7fd fbba 	bl	1000908c <__wrap___aeabi_memcpy>
1000b918:	8a22      	ldrh	r2, [r4, #16]
1000b91a:	2501      	movs	r5, #1
1000b91c:	1c53      	adds	r3, r2, #1
1000b91e:	b29b      	uxth	r3, r3
1000b920:	429a      	cmp	r2, r3
1000b922:	d914      	bls.n	1000b94e <tu_fifo_read+0x92>
1000b924:	2300      	movs	r3, #0
1000b926:	8962      	ldrh	r2, [r4, #10]
1000b928:	189b      	adds	r3, r3, r2
1000b92a:	b29b      	uxth	r3, r3
1000b92c:	69a0      	ldr	r0, [r4, #24]
1000b92e:	8223      	strh	r3, [r4, #16]
1000b930:	2800      	cmp	r0, #0
1000b932:	d001      	beq.n	1000b938 <tu_fifo_read+0x7c>
1000b934:	f000 fcd8 	bl	1000c2e8 <__mutex_exit_veneer>
1000b938:	0028      	movs	r0, r5
1000b93a:	bd70      	pop	{r4, r5, r6, pc}
1000b93c:	1a81      	subs	r1, r0, r2
1000b93e:	89a5      	ldrh	r5, [r4, #12]
1000b940:	b289      	uxth	r1, r1
1000b942:	428d      	cmp	r5, r1
1000b944:	d2d8      	bcs.n	1000b8f8 <tu_fifo_read+0x3c>
1000b946:	e7d3      	b.n	1000b8f0 <tu_fifo_read+0x34>
1000b948:	2500      	movs	r5, #0
1000b94a:	8a23      	ldrh	r3, [r4, #16]
1000b94c:	b29b      	uxth	r3, r3
1000b94e:	89a2      	ldrh	r2, [r4, #12]
1000b950:	429a      	cmp	r2, r3
1000b952:	d2eb      	bcs.n	1000b92c <tu_fifo_read+0x70>
1000b954:	e7e7      	b.n	1000b926 <tu_fifo_read+0x6a>
1000b956:	46c0      	nop			; (mov r8, r8)

1000b958 <tu_fifo_read_n>:
1000b958:	b5f0      	push	{r4, r5, r6, r7, lr}
1000b95a:	464f      	mov	r7, r9
1000b95c:	4646      	mov	r6, r8
1000b95e:	46d6      	mov	lr, sl
1000b960:	0005      	movs	r5, r0
1000b962:	6980      	ldr	r0, [r0, #24]
1000b964:	4688      	mov	r8, r1
1000b966:	4691      	mov	r9, r2
1000b968:	b5c0      	push	{r6, r7, lr}
1000b96a:	2800      	cmp	r0, #0
1000b96c:	d003      	beq.n	1000b976 <tu_fifo_read_n+0x1e>
1000b96e:	2101      	movs	r1, #1
1000b970:	4249      	negs	r1, r1
1000b972:	f000 fcd9 	bl	1000c328 <__mutex_enter_timeout_ms_veneer>
1000b976:	89ea      	ldrh	r2, [r5, #14]
1000b978:	8a2b      	ldrh	r3, [r5, #16]
1000b97a:	b291      	uxth	r1, r2
1000b97c:	1ad6      	subs	r6, r2, r3
1000b97e:	b29c      	uxth	r4, r3
1000b980:	b2b6      	uxth	r6, r6
1000b982:	429a      	cmp	r2, r3
1000b984:	d202      	bcs.n	1000b98c <tu_fifo_read_n+0x34>
1000b986:	896b      	ldrh	r3, [r5, #10]
1000b988:	1af6      	subs	r6, r6, r3
1000b98a:	b2b6      	uxth	r6, r6
1000b98c:	88af      	ldrh	r7, [r5, #4]
1000b98e:	42b7      	cmp	r7, r6
1000b990:	d209      	bcs.n	1000b9a6 <tu_fifo_read_n+0x4e>
1000b992:	42b9      	cmp	r1, r7
1000b994:	d254      	bcs.n	1000ba40 <tu_fifo_read_n+0xe8>
1000b996:	896b      	ldrh	r3, [r5, #10]
1000b998:	18fb      	adds	r3, r7, r3
1000b99a:	1acb      	subs	r3, r1, r3
1000b99c:	b29b      	uxth	r3, r3
1000b99e:	003e      	movs	r6, r7
1000b9a0:	822b      	strh	r3, [r5, #16]
1000b9a2:	8a2c      	ldrh	r4, [r5, #16]
1000b9a4:	b2a4      	uxth	r4, r4
1000b9a6:	2e00      	cmp	r6, #0
1000b9a8:	d050      	beq.n	1000ba4c <tu_fifo_read_n+0xf4>
1000b9aa:	464b      	mov	r3, r9
1000b9ac:	45b1      	cmp	r9, r6
1000b9ae:	d845      	bhi.n	1000ba3c <tu_fifo_read_n+0xe4>
1000b9b0:	b29e      	uxth	r6, r3
1000b9b2:	42a7      	cmp	r7, r4
1000b9b4:	d803      	bhi.n	1000b9be <tu_fifo_read_n+0x66>
1000b9b6:	1be4      	subs	r4, r4, r7
1000b9b8:	b2a4      	uxth	r4, r4
1000b9ba:	42a7      	cmp	r7, r4
1000b9bc:	d9fb      	bls.n	1000b9b6 <tu_fifo_read_n+0x5e>
1000b9be:	88eb      	ldrh	r3, [r5, #6]
1000b9c0:	1b38      	subs	r0, r7, r4
1000b9c2:	0019      	movs	r1, r3
1000b9c4:	4699      	mov	r9, r3
1000b9c6:	682b      	ldr	r3, [r5, #0]
1000b9c8:	4361      	muls	r1, r4
1000b9ca:	469c      	mov	ip, r3
1000b9cc:	b280      	uxth	r0, r0
1000b9ce:	4461      	add	r1, ip
1000b9d0:	4286      	cmp	r6, r0
1000b9d2:	d925      	bls.n	1000ba20 <tu_fifo_read_n+0xc8>
1000b9d4:	464b      	mov	r3, r9
1000b9d6:	4358      	muls	r0, r3
1000b9d8:	b283      	uxth	r3, r0
1000b9da:	001a      	movs	r2, r3
1000b9dc:	4640      	mov	r0, r8
1000b9de:	469a      	mov	sl, r3
1000b9e0:	f7fd fb54 	bl	1000908c <__wrap___aeabi_memcpy>
1000b9e4:	464b      	mov	r3, r9
1000b9e6:	4640      	mov	r0, r8
1000b9e8:	1bf7      	subs	r7, r6, r7
1000b9ea:	19e4      	adds	r4, r4, r7
1000b9ec:	435c      	muls	r4, r3
1000b9ee:	6829      	ldr	r1, [r5, #0]
1000b9f0:	b2a2      	uxth	r2, r4
1000b9f2:	4450      	add	r0, sl
1000b9f4:	f7fd fb4a 	bl	1000908c <__wrap___aeabi_memcpy>
1000b9f8:	8a2a      	ldrh	r2, [r5, #16]
1000b9fa:	1993      	adds	r3, r2, r6
1000b9fc:	b29b      	uxth	r3, r3
1000b9fe:	429a      	cmp	r2, r3
1000ba00:	d918      	bls.n	1000ba34 <tu_fifo_read_n+0xdc>
1000ba02:	896a      	ldrh	r2, [r5, #10]
1000ba04:	189b      	adds	r3, r3, r2
1000ba06:	b29b      	uxth	r3, r3
1000ba08:	69a8      	ldr	r0, [r5, #24]
1000ba0a:	822b      	strh	r3, [r5, #16]
1000ba0c:	2800      	cmp	r0, #0
1000ba0e:	d001      	beq.n	1000ba14 <tu_fifo_read_n+0xbc>
1000ba10:	f000 fc6a 	bl	1000c2e8 <__mutex_exit_veneer>
1000ba14:	0030      	movs	r0, r6
1000ba16:	bce0      	pop	{r5, r6, r7}
1000ba18:	46ba      	mov	sl, r7
1000ba1a:	46b1      	mov	r9, r6
1000ba1c:	46a8      	mov	r8, r5
1000ba1e:	bdf0      	pop	{r4, r5, r6, r7, pc}
1000ba20:	464a      	mov	r2, r9
1000ba22:	4640      	mov	r0, r8
1000ba24:	4372      	muls	r2, r6
1000ba26:	f7fd fb31 	bl	1000908c <__wrap___aeabi_memcpy>
1000ba2a:	8a2a      	ldrh	r2, [r5, #16]
1000ba2c:	1993      	adds	r3, r2, r6
1000ba2e:	b29b      	uxth	r3, r3
1000ba30:	429a      	cmp	r2, r3
1000ba32:	d8e6      	bhi.n	1000ba02 <tu_fifo_read_n+0xaa>
1000ba34:	89aa      	ldrh	r2, [r5, #12]
1000ba36:	429a      	cmp	r2, r3
1000ba38:	d2e6      	bcs.n	1000ba08 <tu_fifo_read_n+0xb0>
1000ba3a:	e7e2      	b.n	1000ba02 <tu_fifo_read_n+0xaa>
1000ba3c:	1c33      	adds	r3, r6, #0
1000ba3e:	e7b7      	b.n	1000b9b0 <tu_fifo_read_n+0x58>
1000ba40:	1bcb      	subs	r3, r1, r7
1000ba42:	89aa      	ldrh	r2, [r5, #12]
1000ba44:	b29b      	uxth	r3, r3
1000ba46:	429a      	cmp	r2, r3
1000ba48:	d2a9      	bcs.n	1000b99e <tu_fifo_read_n+0x46>
1000ba4a:	e7a4      	b.n	1000b996 <tu_fifo_read_n+0x3e>
1000ba4c:	8a2b      	ldrh	r3, [r5, #16]
1000ba4e:	89aa      	ldrh	r2, [r5, #12]
1000ba50:	b29b      	uxth	r3, r3
1000ba52:	429a      	cmp	r2, r3
1000ba54:	d2d8      	bcs.n	1000ba08 <tu_fifo_read_n+0xb0>
1000ba56:	e7d4      	b.n	1000ba02 <tu_fifo_read_n+0xaa>

1000ba58 <tu_fifo_write>:
1000ba58:	b5f8      	push	{r3, r4, r5, r6, r7, lr}
1000ba5a:	0004      	movs	r4, r0
1000ba5c:	6940      	ldr	r0, [r0, #20]
1000ba5e:	000e      	movs	r6, r1
1000ba60:	2800      	cmp	r0, #0
1000ba62:	d003      	beq.n	1000ba6c <tu_fifo_write+0x14>
1000ba64:	2101      	movs	r1, #1
1000ba66:	4249      	negs	r1, r1
1000ba68:	f000 fc5e 	bl	1000c328 <__mutex_enter_timeout_ms_veneer>
1000ba6c:	89e2      	ldrh	r2, [r4, #14]
1000ba6e:	8a21      	ldrh	r1, [r4, #16]
1000ba70:	b295      	uxth	r5, r2
1000ba72:	1a53      	subs	r3, r2, r1
1000ba74:	b29b      	uxth	r3, r3
1000ba76:	4291      	cmp	r1, r2
1000ba78:	d902      	bls.n	1000ba80 <tu_fifo_write+0x28>
1000ba7a:	8962      	ldrh	r2, [r4, #10]
1000ba7c:	1a9b      	subs	r3, r3, r2
1000ba7e:	b29b      	uxth	r3, r3
1000ba80:	88a2      	ldrh	r2, [r4, #4]
1000ba82:	429a      	cmp	r2, r3
1000ba84:	d021      	beq.n	1000baca <tu_fifo_write+0x72>
1000ba86:	002b      	movs	r3, r5
1000ba88:	4295      	cmp	r5, r2
1000ba8a:	d303      	bcc.n	1000ba94 <tu_fifo_write+0x3c>
1000ba8c:	1a9b      	subs	r3, r3, r2
1000ba8e:	b29b      	uxth	r3, r3
1000ba90:	429a      	cmp	r2, r3
1000ba92:	d9fb      	bls.n	1000ba8c <tu_fifo_write+0x34>
1000ba94:	88e2      	ldrh	r2, [r4, #6]
1000ba96:	6821      	ldr	r1, [r4, #0]
1000ba98:	4353      	muls	r3, r2
1000ba9a:	18c8      	adds	r0, r1, r3
1000ba9c:	0031      	movs	r1, r6
1000ba9e:	f7fd faf5 	bl	1000908c <__wrap___aeabi_memcpy>
1000baa2:	1c6b      	adds	r3, r5, #1
1000baa4:	b29b      	uxth	r3, r3
1000baa6:	429d      	cmp	r5, r3
1000baa8:	d90b      	bls.n	1000bac2 <tu_fifo_write+0x6a>
1000baaa:	8962      	ldrh	r2, [r4, #10]
1000baac:	189b      	adds	r3, r3, r2
1000baae:	b29b      	uxth	r3, r3
1000bab0:	6960      	ldr	r0, [r4, #20]
1000bab2:	2701      	movs	r7, #1
1000bab4:	81e3      	strh	r3, [r4, #14]
1000bab6:	2800      	cmp	r0, #0
1000bab8:	d001      	beq.n	1000babe <tu_fifo_write+0x66>
1000baba:	f000 fc15 	bl	1000c2e8 <__mutex_exit_veneer>
1000babe:	0038      	movs	r0, r7
1000bac0:	bdf8      	pop	{r3, r4, r5, r6, r7, pc}
1000bac2:	89a2      	ldrh	r2, [r4, #12]
1000bac4:	429a      	cmp	r2, r3
1000bac6:	d2f3      	bcs.n	1000bab0 <tu_fifo_write+0x58>
1000bac8:	e7ef      	b.n	1000baaa <tu_fifo_write+0x52>
1000baca:	7a27      	ldrb	r7, [r4, #8]
1000bacc:	2f00      	cmp	r7, #0
1000bace:	d1da      	bne.n	1000ba86 <tu_fifo_write+0x2e>
1000bad0:	e7f5      	b.n	1000babe <tu_fifo_write+0x66>
1000bad2:	46c0      	nop			; (mov r8, r8)

1000bad4 <tu_fifo_write_n>:
1000bad4:	b5f8      	push	{r3, r4, r5, r6, r7, lr}
1000bad6:	4645      	mov	r5, r8
1000bad8:	464e      	mov	r6, r9
1000bada:	46de      	mov	lr, fp
1000badc:	4657      	mov	r7, sl
1000bade:	4688      	mov	r8, r1
1000bae0:	b5e0      	push	{r5, r6, r7, lr}
1000bae2:	0005      	movs	r5, r0
1000bae4:	1e16      	subs	r6, r2, #0
1000bae6:	d05a      	beq.n	1000bb9e <tu_fifo_write_n+0xca>
1000bae8:	6940      	ldr	r0, [r0, #20]
1000baea:	2800      	cmp	r0, #0
1000baec:	d003      	beq.n	1000baf6 <tu_fifo_write_n+0x22>
1000baee:	2101      	movs	r1, #1
1000baf0:	4249      	negs	r1, r1
1000baf2:	f000 fc19 	bl	1000c328 <__mutex_enter_timeout_ms_veneer>
1000baf6:	89ef      	ldrh	r7, [r5, #14]
1000baf8:	7a2b      	ldrb	r3, [r5, #8]
1000bafa:	8a29      	ldrh	r1, [r5, #16]
1000bafc:	b2bf      	uxth	r7, r7
1000bafe:	b289      	uxth	r1, r1
1000bb00:	2b00      	cmp	r3, #0
1000bb02:	d13b      	bne.n	1000bb7c <tu_fifo_write_n+0xa8>
1000bb04:	1a7a      	subs	r2, r7, r1
1000bb06:	88ab      	ldrh	r3, [r5, #4]
1000bb08:	b292      	uxth	r2, r2
1000bb0a:	428f      	cmp	r7, r1
1000bb0c:	d202      	bcs.n	1000bb14 <tu_fifo_write_n+0x40>
1000bb0e:	8969      	ldrh	r1, [r5, #10]
1000bb10:	1a52      	subs	r2, r2, r1
1000bb12:	b292      	uxth	r2, r2
1000bb14:	1a9a      	subs	r2, r3, r2
1000bb16:	1c11      	adds	r1, r2, #0
1000bb18:	b292      	uxth	r2, r2
1000bb1a:	42b2      	cmp	r2, r6
1000bb1c:	d853      	bhi.n	1000bbc6 <tu_fifo_write_n+0xf2>
1000bb1e:	88ea      	ldrh	r2, [r5, #6]
1000bb20:	b28e      	uxth	r6, r1
1000bb22:	4692      	mov	sl, r2
1000bb24:	1af2      	subs	r2, r6, r3
1000bb26:	b292      	uxth	r2, r2
1000bb28:	4691      	mov	r9, r2
1000bb2a:	003c      	movs	r4, r7
1000bb2c:	429f      	cmp	r7, r3
1000bb2e:	d303      	bcc.n	1000bb38 <tu_fifo_write_n+0x64>
1000bb30:	1ae4      	subs	r4, r4, r3
1000bb32:	b2a4      	uxth	r4, r4
1000bb34:	429c      	cmp	r4, r3
1000bb36:	d2fb      	bcs.n	1000bb30 <tu_fifo_write_n+0x5c>
1000bb38:	4650      	mov	r0, sl
1000bb3a:	682a      	ldr	r2, [r5, #0]
1000bb3c:	4360      	muls	r0, r4
1000bb3e:	4694      	mov	ip, r2
1000bb40:	1b1b      	subs	r3, r3, r4
1000bb42:	b29b      	uxth	r3, r3
1000bb44:	4652      	mov	r2, sl
1000bb46:	4460      	add	r0, ip
1000bb48:	429e      	cmp	r6, r3
1000bb4a:	d82a      	bhi.n	1000bba2 <tu_fifo_write_n+0xce>
1000bb4c:	4641      	mov	r1, r8
1000bb4e:	4372      	muls	r2, r6
1000bb50:	f7fd fa9c 	bl	1000908c <__wrap___aeabi_memcpy>
1000bb54:	19f3      	adds	r3, r6, r7
1000bb56:	b29b      	uxth	r3, r3
1000bb58:	429f      	cmp	r7, r3
1000bb5a:	d81c      	bhi.n	1000bb96 <tu_fifo_write_n+0xc2>
1000bb5c:	89aa      	ldrh	r2, [r5, #12]
1000bb5e:	429a      	cmp	r2, r3
1000bb60:	d319      	bcc.n	1000bb96 <tu_fifo_write_n+0xc2>
1000bb62:	6968      	ldr	r0, [r5, #20]
1000bb64:	81eb      	strh	r3, [r5, #14]
1000bb66:	2800      	cmp	r0, #0
1000bb68:	d001      	beq.n	1000bb6e <tu_fifo_write_n+0x9a>
1000bb6a:	f000 fbbd 	bl	1000c2e8 <__mutex_exit_veneer>
1000bb6e:	0030      	movs	r0, r6
1000bb70:	bcf0      	pop	{r4, r5, r6, r7}
1000bb72:	46bb      	mov	fp, r7
1000bb74:	46b2      	mov	sl, r6
1000bb76:	46a9      	mov	r9, r5
1000bb78:	46a0      	mov	r8, r4
1000bb7a:	bdf8      	pop	{r3, r4, r5, r6, r7, pc}
1000bb7c:	88ea      	ldrh	r2, [r5, #6]
1000bb7e:	88ab      	ldrh	r3, [r5, #4]
1000bb80:	4692      	mov	sl, r2
1000bb82:	429e      	cmp	r6, r3
1000bb84:	d321      	bcc.n	1000bbca <tu_fifo_write_n+0xf6>
1000bb86:	1af6      	subs	r6, r6, r3
1000bb88:	4356      	muls	r6, r2
1000bb8a:	2200      	movs	r2, #0
1000bb8c:	44b0      	add	r8, r6
1000bb8e:	000f      	movs	r7, r1
1000bb90:	001e      	movs	r6, r3
1000bb92:	4691      	mov	r9, r2
1000bb94:	e7c9      	b.n	1000bb2a <tu_fifo_write_n+0x56>
1000bb96:	896a      	ldrh	r2, [r5, #10]
1000bb98:	189b      	adds	r3, r3, r2
1000bb9a:	b29b      	uxth	r3, r3
1000bb9c:	e7e1      	b.n	1000bb62 <tu_fifo_write_n+0x8e>
1000bb9e:	2600      	movs	r6, #0
1000bba0:	e7e5      	b.n	1000bb6e <tu_fifo_write_n+0x9a>
1000bba2:	4353      	muls	r3, r2
1000bba4:	b29b      	uxth	r3, r3
1000bba6:	001a      	movs	r2, r3
1000bba8:	4641      	mov	r1, r8
1000bbaa:	469b      	mov	fp, r3
1000bbac:	f7fd fa6e 	bl	1000908c <__wrap___aeabi_memcpy>
1000bbb0:	0022      	movs	r2, r4
1000bbb2:	4653      	mov	r3, sl
1000bbb4:	4641      	mov	r1, r8
1000bbb6:	444a      	add	r2, r9
1000bbb8:	435a      	muls	r2, r3
1000bbba:	6828      	ldr	r0, [r5, #0]
1000bbbc:	b292      	uxth	r2, r2
1000bbbe:	4459      	add	r1, fp
1000bbc0:	f7fd fa64 	bl	1000908c <__wrap___aeabi_memcpy>
1000bbc4:	e7c6      	b.n	1000bb54 <tu_fifo_write_n+0x80>
1000bbc6:	1c31      	adds	r1, r6, #0
1000bbc8:	e7a9      	b.n	1000bb1e <tu_fifo_write_n+0x4a>
1000bbca:	1af2      	subs	r2, r6, r3
1000bbcc:	b292      	uxth	r2, r2
1000bbce:	4691      	mov	r9, r2
1000bbd0:	e7ab      	b.n	1000bb2a <tu_fifo_write_n+0x56>
1000bbd2:	46c0      	nop			; (mov r8, r8)

1000bbd4 <tu_fifo_clear>:
1000bbd4:	b510      	push	{r4, lr}
1000bbd6:	0004      	movs	r4, r0
1000bbd8:	6940      	ldr	r0, [r0, #20]
1000bbda:	2800      	cmp	r0, #0
1000bbdc:	d003      	beq.n	1000bbe6 <tu_fifo_clear+0x12>
1000bbde:	2101      	movs	r1, #1
1000bbe0:	4249      	negs	r1, r1
1000bbe2:	f000 fba1 	bl	1000c328 <__mutex_enter_timeout_ms_veneer>
1000bbe6:	69a0      	ldr	r0, [r4, #24]
1000bbe8:	2800      	cmp	r0, #0
1000bbea:	d003      	beq.n	1000bbf4 <tu_fifo_clear+0x20>
1000bbec:	2101      	movs	r1, #1
1000bbee:	4249      	negs	r1, r1
1000bbf0:	f000 fb9a 	bl	1000c328 <__mutex_enter_timeout_ms_veneer>
1000bbf4:	2300      	movs	r3, #0
1000bbf6:	81e3      	strh	r3, [r4, #14]
1000bbf8:	8223      	strh	r3, [r4, #16]
1000bbfa:	88a3      	ldrh	r3, [r4, #4]
1000bbfc:	6960      	ldr	r0, [r4, #20]
1000bbfe:	005b      	lsls	r3, r3, #1
1000bc00:	b29b      	uxth	r3, r3
1000bc02:	1e5a      	subs	r2, r3, #1
1000bc04:	425b      	negs	r3, r3
1000bc06:	81a2      	strh	r2, [r4, #12]
1000bc08:	8163      	strh	r3, [r4, #10]
1000bc0a:	2800      	cmp	r0, #0
1000bc0c:	d001      	beq.n	1000bc12 <tu_fifo_clear+0x3e>
1000bc0e:	f000 fb6b 	bl	1000c2e8 <__mutex_exit_veneer>
1000bc12:	69a0      	ldr	r0, [r4, #24]
1000bc14:	2800      	cmp	r0, #0
1000bc16:	d001      	beq.n	1000bc1c <tu_fifo_clear+0x48>
1000bc18:	f000 fb66 	bl	1000c2e8 <__mutex_exit_veneer>
1000bc1c:	2001      	movs	r0, #1
1000bc1e:	bd10      	pop	{r4, pc}

1000bc20 <tu_fifo_set_overwritable>:
1000bc20:	b570      	push	{r4, r5, r6, lr}
1000bc22:	0004      	movs	r4, r0
1000bc24:	6940      	ldr	r0, [r0, #20]
1000bc26:	000d      	movs	r5, r1
1000bc28:	2800      	cmp	r0, #0
1000bc2a:	d003      	beq.n	1000bc34 <tu_fifo_set_overwritable+0x14>
1000bc2c:	2101      	movs	r1, #1
1000bc2e:	4249      	negs	r1, r1
1000bc30:	f000 fb7a 	bl	1000c328 <__mutex_enter_timeout_ms_veneer>
1000bc34:	69a0      	ldr	r0, [r4, #24]
1000bc36:	2800      	cmp	r0, #0
1000bc38:	d003      	beq.n	1000bc42 <tu_fifo_set_overwritable+0x22>
1000bc3a:	2101      	movs	r1, #1
1000bc3c:	4249      	negs	r1, r1
1000bc3e:	f000 fb73 	bl	1000c328 <__mutex_enter_timeout_ms_veneer>
1000bc42:	6960      	ldr	r0, [r4, #20]
1000bc44:	7225      	strb	r5, [r4, #8]
1000bc46:	2800      	cmp	r0, #0
1000bc48:	d001      	beq.n	1000bc4e <tu_fifo_set_overwritable+0x2e>
1000bc4a:	f000 fb4d 	bl	1000c2e8 <__mutex_exit_veneer>
1000bc4e:	69a0      	ldr	r0, [r4, #24]
1000bc50:	2800      	cmp	r0, #0
1000bc52:	d001      	beq.n	1000bc58 <tu_fifo_set_overwritable+0x38>
1000bc54:	f000 fb48 	bl	1000c2e8 <__mutex_exit_veneer>
1000bc58:	2001      	movs	r0, #1
1000bc5a:	bd70      	pop	{r4, r5, r6, pc}

1000bc5c <_retrieve_unique_id_on_boot>:
1000bc5c:	b510      	push	{r4, lr}
1000bc5e:	4802      	ldr	r0, [pc, #8]	; (1000bc68 <_retrieve_unique_id_on_boot+0xc>)
1000bc60:	f000 f8d8 	bl	1000be14 <flash_get_unique_id>
1000bc64:	bd10      	pop	{r4, pc}
1000bc66:	46c0      	nop			; (mov r8, r8)
1000bc68:	200270dc 	.word	0x200270dc

1000bc6c <pico_get_unique_board_id_string>:
1000bc6c:	b530      	push	{r4, r5, lr}
1000bc6e:	1e4b      	subs	r3, r1, #1
1000bc70:	2901      	cmp	r1, #1
1000bc72:	d100      	bne.n	1000bc76 <pico_get_unique_board_id_string+0xa>
1000bc74:	e0a7      	b.n	1000bdc6 <pico_get_unique_board_id_string+0x15a>
1000bc76:	4a66      	ldr	r2, [pc, #408]	; (1000be10 <pico_get_unique_board_id_string+0x1a4>)
1000bc78:	7811      	ldrb	r1, [r2, #0]
1000bc7a:	110d      	asrs	r5, r1, #4
1000bc7c:	002c      	movs	r4, r5
1000bc7e:	3430      	adds	r4, #48	; 0x30
1000bc80:	299f      	cmp	r1, #159	; 0x9f
1000bc82:	d900      	bls.n	1000bc86 <pico_get_unique_board_id_string+0x1a>
1000bc84:	e0a2      	b.n	1000bdcc <pico_get_unique_board_id_string+0x160>
1000bc86:	7004      	strb	r4, [r0, #0]
1000bc88:	2b01      	cmp	r3, #1
1000bc8a:	d100      	bne.n	1000bc8e <pico_get_unique_board_id_string+0x22>
1000bc8c:	e0be      	b.n	1000be0c <pico_get_unique_board_id_string+0x1a0>
1000bc8e:	210f      	movs	r1, #15
1000bc90:	7814      	ldrb	r4, [r2, #0]
1000bc92:	4021      	ands	r1, r4
1000bc94:	000c      	movs	r4, r1
1000bc96:	3430      	adds	r4, #48	; 0x30
1000bc98:	2909      	cmp	r1, #9
1000bc9a:	dd00      	ble.n	1000bc9e <pico_get_unique_board_id_string+0x32>
1000bc9c:	e098      	b.n	1000bdd0 <pico_get_unique_board_id_string+0x164>
1000bc9e:	7044      	strb	r4, [r0, #1]
1000bca0:	2b02      	cmp	r3, #2
1000bca2:	d100      	bne.n	1000bca6 <pico_get_unique_board_id_string+0x3a>
1000bca4:	e0b2      	b.n	1000be0c <pico_get_unique_board_id_string+0x1a0>
1000bca6:	7854      	ldrb	r4, [r2, #1]
1000bca8:	1125      	asrs	r5, r4, #4
1000bcaa:	0029      	movs	r1, r5
1000bcac:	3130      	adds	r1, #48	; 0x30
1000bcae:	2c9f      	cmp	r4, #159	; 0x9f
1000bcb0:	d900      	bls.n	1000bcb4 <pico_get_unique_board_id_string+0x48>
1000bcb2:	e090      	b.n	1000bdd6 <pico_get_unique_board_id_string+0x16a>
1000bcb4:	7081      	strb	r1, [r0, #2]
1000bcb6:	2b03      	cmp	r3, #3
1000bcb8:	d100      	bne.n	1000bcbc <pico_get_unique_board_id_string+0x50>
1000bcba:	e0a7      	b.n	1000be0c <pico_get_unique_board_id_string+0x1a0>
1000bcbc:	210f      	movs	r1, #15
1000bcbe:	4021      	ands	r1, r4
1000bcc0:	000c      	movs	r4, r1
1000bcc2:	3430      	adds	r4, #48	; 0x30
1000bcc4:	2909      	cmp	r1, #9
1000bcc6:	dd00      	ble.n	1000bcca <pico_get_unique_board_id_string+0x5e>
1000bcc8:	e087      	b.n	1000bdda <pico_get_unique_board_id_string+0x16e>
1000bcca:	70c4      	strb	r4, [r0, #3]
1000bccc:	2b04      	cmp	r3, #4
1000bcce:	d100      	bne.n	1000bcd2 <pico_get_unique_board_id_string+0x66>
1000bcd0:	e09c      	b.n	1000be0c <pico_get_unique_board_id_string+0x1a0>
1000bcd2:	7894      	ldrb	r4, [r2, #2]
1000bcd4:	1125      	asrs	r5, r4, #4
1000bcd6:	0029      	movs	r1, r5
1000bcd8:	3130      	adds	r1, #48	; 0x30
1000bcda:	2c9f      	cmp	r4, #159	; 0x9f
1000bcdc:	d900      	bls.n	1000bce0 <pico_get_unique_board_id_string+0x74>
1000bcde:	e07f      	b.n	1000bde0 <pico_get_unique_board_id_string+0x174>
1000bce0:	7101      	strb	r1, [r0, #4]
1000bce2:	2b05      	cmp	r3, #5
1000bce4:	d100      	bne.n	1000bce8 <pico_get_unique_board_id_string+0x7c>
1000bce6:	e091      	b.n	1000be0c <pico_get_unique_board_id_string+0x1a0>
1000bce8:	210f      	movs	r1, #15
1000bcea:	4021      	ands	r1, r4
1000bcec:	000c      	movs	r4, r1
1000bcee:	3430      	adds	r4, #48	; 0x30
1000bcf0:	2909      	cmp	r1, #9
1000bcf2:	dd00      	ble.n	1000bcf6 <pico_get_unique_board_id_string+0x8a>
1000bcf4:	e076      	b.n	1000bde4 <pico_get_unique_board_id_string+0x178>
1000bcf6:	7144      	strb	r4, [r0, #5]
1000bcf8:	2b06      	cmp	r3, #6
1000bcfa:	d100      	bne.n	1000bcfe <pico_get_unique_board_id_string+0x92>
1000bcfc:	e086      	b.n	1000be0c <pico_get_unique_board_id_string+0x1a0>
1000bcfe:	78d4      	ldrb	r4, [r2, #3]
1000bd00:	1125      	asrs	r5, r4, #4
1000bd02:	0029      	movs	r1, r5
1000bd04:	3130      	adds	r1, #48	; 0x30
1000bd06:	2c9f      	cmp	r4, #159	; 0x9f
1000bd08:	d900      	bls.n	1000bd0c <pico_get_unique_board_id_string+0xa0>
1000bd0a:	e06e      	b.n	1000bdea <pico_get_unique_board_id_string+0x17e>
1000bd0c:	7181      	strb	r1, [r0, #6]
1000bd0e:	2b07      	cmp	r3, #7
1000bd10:	d100      	bne.n	1000bd14 <pico_get_unique_board_id_string+0xa8>
1000bd12:	e07b      	b.n	1000be0c <pico_get_unique_board_id_string+0x1a0>
1000bd14:	210f      	movs	r1, #15
1000bd16:	4021      	ands	r1, r4
1000bd18:	000c      	movs	r4, r1
1000bd1a:	3430      	adds	r4, #48	; 0x30
1000bd1c:	2909      	cmp	r1, #9
1000bd1e:	dc66      	bgt.n	1000bdee <pico_get_unique_board_id_string+0x182>
1000bd20:	71c4      	strb	r4, [r0, #7]
1000bd22:	2b08      	cmp	r3, #8
1000bd24:	d100      	bne.n	1000bd28 <pico_get_unique_board_id_string+0xbc>
1000bd26:	e071      	b.n	1000be0c <pico_get_unique_board_id_string+0x1a0>
1000bd28:	7914      	ldrb	r4, [r2, #4]
1000bd2a:	1125      	asrs	r5, r4, #4
1000bd2c:	0029      	movs	r1, r5
1000bd2e:	3130      	adds	r1, #48	; 0x30
1000bd30:	2c9f      	cmp	r4, #159	; 0x9f
1000bd32:	d85f      	bhi.n	1000bdf4 <pico_get_unique_board_id_string+0x188>
1000bd34:	7201      	strb	r1, [r0, #8]
1000bd36:	2b09      	cmp	r3, #9
1000bd38:	d068      	beq.n	1000be0c <pico_get_unique_board_id_string+0x1a0>
1000bd3a:	210f      	movs	r1, #15
1000bd3c:	4021      	ands	r1, r4
1000bd3e:	000c      	movs	r4, r1
1000bd40:	3430      	adds	r4, #48	; 0x30
1000bd42:	2909      	cmp	r1, #9
1000bd44:	dc58      	bgt.n	1000bdf8 <pico_get_unique_board_id_string+0x18c>
1000bd46:	7244      	strb	r4, [r0, #9]
1000bd48:	2b0a      	cmp	r3, #10
1000bd4a:	d05f      	beq.n	1000be0c <pico_get_unique_board_id_string+0x1a0>
1000bd4c:	7954      	ldrb	r4, [r2, #5]
1000bd4e:	1125      	asrs	r5, r4, #4
1000bd50:	0029      	movs	r1, r5
1000bd52:	3130      	adds	r1, #48	; 0x30
1000bd54:	2c9f      	cmp	r4, #159	; 0x9f
1000bd56:	d852      	bhi.n	1000bdfe <pico_get_unique_board_id_string+0x192>
1000bd58:	7281      	strb	r1, [r0, #10]
1000bd5a:	2b0b      	cmp	r3, #11
1000bd5c:	d056      	beq.n	1000be0c <pico_get_unique_board_id_string+0x1a0>
1000bd5e:	210f      	movs	r1, #15
1000bd60:	4021      	ands	r1, r4
1000bd62:	000c      	movs	r4, r1
1000bd64:	3430      	adds	r4, #48	; 0x30
1000bd66:	2909      	cmp	r1, #9
1000bd68:	dc4b      	bgt.n	1000be02 <pico_get_unique_board_id_string+0x196>
1000bd6a:	72c4      	strb	r4, [r0, #11]
1000bd6c:	2b0c      	cmp	r3, #12
1000bd6e:	d04d      	beq.n	1000be0c <pico_get_unique_board_id_string+0x1a0>
1000bd70:	7994      	ldrb	r4, [r2, #6]
1000bd72:	1125      	asrs	r5, r4, #4
1000bd74:	0029      	movs	r1, r5
1000bd76:	3130      	adds	r1, #48	; 0x30
1000bd78:	2c9f      	cmp	r4, #159	; 0x9f
1000bd7a:	d900      	bls.n	1000bd7e <pico_get_unique_board_id_string+0x112>
1000bd7c:	3107      	adds	r1, #7
1000bd7e:	7301      	strb	r1, [r0, #12]
1000bd80:	2b0d      	cmp	r3, #13
1000bd82:	d043      	beq.n	1000be0c <pico_get_unique_board_id_string+0x1a0>
1000bd84:	210f      	movs	r1, #15
1000bd86:	4021      	ands	r1, r4
1000bd88:	000c      	movs	r4, r1
1000bd8a:	3430      	adds	r4, #48	; 0x30
1000bd8c:	2909      	cmp	r1, #9
1000bd8e:	dd01      	ble.n	1000bd94 <pico_get_unique_board_id_string+0x128>
1000bd90:	3137      	adds	r1, #55	; 0x37
1000bd92:	000c      	movs	r4, r1
1000bd94:	7344      	strb	r4, [r0, #13]
1000bd96:	2b0e      	cmp	r3, #14
1000bd98:	d038      	beq.n	1000be0c <pico_get_unique_board_id_string+0x1a0>
1000bd9a:	79d1      	ldrb	r1, [r2, #7]
1000bd9c:	110c      	asrs	r4, r1, #4
1000bd9e:	0022      	movs	r2, r4
1000bda0:	3230      	adds	r2, #48	; 0x30
1000bda2:	299f      	cmp	r1, #159	; 0x9f
1000bda4:	d900      	bls.n	1000bda8 <pico_get_unique_board_id_string+0x13c>
1000bda6:	3207      	adds	r2, #7
1000bda8:	7382      	strb	r2, [r0, #14]
1000bdaa:	2b0f      	cmp	r3, #15
1000bdac:	d02e      	beq.n	1000be0c <pico_get_unique_board_id_string+0x1a0>
1000bdae:	220f      	movs	r2, #15
1000bdb0:	400a      	ands	r2, r1
1000bdb2:	0011      	movs	r1, r2
1000bdb4:	3137      	adds	r1, #55	; 0x37
1000bdb6:	2a09      	cmp	r2, #9
1000bdb8:	dc01      	bgt.n	1000bdbe <pico_get_unique_board_id_string+0x152>
1000bdba:	3230      	adds	r2, #48	; 0x30
1000bdbc:	0011      	movs	r1, r2
1000bdbe:	73c1      	strb	r1, [r0, #15]
1000bdc0:	2b10      	cmp	r3, #16
1000bdc2:	d023      	beq.n	1000be0c <pico_get_unique_board_id_string+0x1a0>
1000bdc4:	3010      	adds	r0, #16
1000bdc6:	2300      	movs	r3, #0
1000bdc8:	7003      	strb	r3, [r0, #0]
1000bdca:	bd30      	pop	{r4, r5, pc}
1000bdcc:	3407      	adds	r4, #7
1000bdce:	e75a      	b.n	1000bc86 <pico_get_unique_board_id_string+0x1a>
1000bdd0:	3137      	adds	r1, #55	; 0x37
1000bdd2:	000c      	movs	r4, r1
1000bdd4:	e763      	b.n	1000bc9e <pico_get_unique_board_id_string+0x32>
1000bdd6:	3107      	adds	r1, #7
1000bdd8:	e76c      	b.n	1000bcb4 <pico_get_unique_board_id_string+0x48>
1000bdda:	3137      	adds	r1, #55	; 0x37
1000bddc:	000c      	movs	r4, r1
1000bdde:	e774      	b.n	1000bcca <pico_get_unique_board_id_string+0x5e>
1000bde0:	3107      	adds	r1, #7
1000bde2:	e77d      	b.n	1000bce0 <pico_get_unique_board_id_string+0x74>
1000bde4:	3137      	adds	r1, #55	; 0x37
1000bde6:	000c      	movs	r4, r1
1000bde8:	e785      	b.n	1000bcf6 <pico_get_unique_board_id_string+0x8a>
1000bdea:	3107      	adds	r1, #7
1000bdec:	e78e      	b.n	1000bd0c <pico_get_unique_board_id_string+0xa0>
1000bdee:	3137      	adds	r1, #55	; 0x37
1000bdf0:	000c      	movs	r4, r1
1000bdf2:	e795      	b.n	1000bd20 <pico_get_unique_board_id_string+0xb4>
1000bdf4:	3107      	adds	r1, #7
1000bdf6:	e79d      	b.n	1000bd34 <pico_get_unique_board_id_string+0xc8>
1000bdf8:	3137      	adds	r1, #55	; 0x37
1000bdfa:	000c      	movs	r4, r1
1000bdfc:	e7a3      	b.n	1000bd46 <pico_get_unique_board_id_string+0xda>
1000bdfe:	3107      	adds	r1, #7
1000be00:	e7aa      	b.n	1000bd58 <pico_get_unique_board_id_string+0xec>
1000be02:	3137      	adds	r1, #55	; 0x37
1000be04:	000c      	movs	r4, r1
1000be06:	72c4      	strb	r4, [r0, #11]
1000be08:	2b0c      	cmp	r3, #12
1000be0a:	d1b1      	bne.n	1000bd70 <pico_get_unique_board_id_string+0x104>
1000be0c:	18c0      	adds	r0, r0, r3
1000be0e:	e7da      	b.n	1000bdc6 <pico_get_unique_board_id_string+0x15a>
1000be10:	200270dc 	.word	0x200270dc

1000be14 <flash_get_unique_id>:
1000be14:	b530      	push	{r4, r5, lr}
1000be16:	2500      	movs	r5, #0
1000be18:	b089      	sub	sp, #36	; 0x24
1000be1a:	0004      	movs	r4, r0
1000be1c:	2209      	movs	r2, #9
1000be1e:	2100      	movs	r1, #0
1000be20:	a801      	add	r0, sp, #4
1000be22:	9500      	str	r5, [sp, #0]
1000be24:	f7fd f92c 	bl	10009080 <__wrap_memset>
1000be28:	2209      	movs	r2, #9
1000be2a:	2100      	movs	r1, #0
1000be2c:	a805      	add	r0, sp, #20
1000be2e:	9504      	str	r5, [sp, #16]
1000be30:	f7fd f926 	bl	10009080 <__wrap_memset>
1000be34:	234b      	movs	r3, #75	; 0x4b
1000be36:	466a      	mov	r2, sp
1000be38:	4668      	mov	r0, sp
1000be3a:	7013      	strb	r3, [r2, #0]
1000be3c:	a904      	add	r1, sp, #16
1000be3e:	220d      	movs	r2, #13
1000be40:	f000 fa4a 	bl	1000c2d8 <__flash_do_cmd_veneer>
1000be44:	2115      	movs	r1, #21
1000be46:	2208      	movs	r2, #8
1000be48:	0020      	movs	r0, r4
1000be4a:	4469      	add	r1, sp
1000be4c:	f7fd f91e 	bl	1000908c <__wrap___aeabi_memcpy>
1000be50:	b009      	add	sp, #36	; 0x24
1000be52:	bd30      	pop	{r4, r5, pc}

1000be54 <spi_init>:
1000be54:	b5f8      	push	{r3, r4, r5, r6, r7, lr}
1000be56:	4657      	mov	r7, sl
1000be58:	4682      	mov	sl, r0
1000be5a:	4b38      	ldr	r3, [pc, #224]	; (1000bf3c <spi_init+0xe8>)
1000be5c:	4645      	mov	r5, r8
1000be5e:	4453      	add	r3, sl
1000be60:	425a      	negs	r2, r3
1000be62:	4153      	adcs	r3, r2
1000be64:	2280      	movs	r2, #128	; 0x80
1000be66:	0292      	lsls	r2, r2, #10
1000be68:	4694      	mov	ip, r2
1000be6a:	46de      	mov	lr, fp
1000be6c:	464e      	mov	r6, r9
1000be6e:	425b      	negs	r3, r3
1000be70:	0c1b      	lsrs	r3, r3, #16
1000be72:	4a33      	ldr	r2, [pc, #204]	; (1000bf40 <spi_init+0xec>)
1000be74:	041b      	lsls	r3, r3, #16
1000be76:	4463      	add	r3, ip
1000be78:	b5e0      	push	{r5, r6, r7, lr}
1000be7a:	6013      	str	r3, [r2, #0]
1000be7c:	4a31      	ldr	r2, [pc, #196]	; (1000bf44 <spi_init+0xf0>)
1000be7e:	000d      	movs	r5, r1
1000be80:	4931      	ldr	r1, [pc, #196]	; (1000bf48 <spi_init+0xf4>)
1000be82:	6013      	str	r3, [r2, #0]
1000be84:	0018      	movs	r0, r3
1000be86:	688a      	ldr	r2, [r1, #8]
1000be88:	4390      	bics	r0, r2
1000be8a:	4681      	mov	r9, r0
1000be8c:	d1fa      	bne.n	1000be84 <spi_init+0x30>
1000be8e:	2006      	movs	r0, #6
1000be90:	f7f9 f982 	bl	10005198 <clock_get_hz>
1000be94:	4680      	mov	r8, r0
1000be96:	2080      	movs	r0, #128	; 0x80
1000be98:	2102      	movs	r1, #2
1000be9a:	0def      	lsrs	r7, r5, #23
1000be9c:	026e      	lsls	r6, r5, #9
1000be9e:	0dab      	lsrs	r3, r5, #22
1000bea0:	02aa      	lsls	r2, r5, #10
1000bea2:	0040      	lsls	r0, r0, #1
1000bea4:	e005      	b.n	1000beb2 <spi_init+0x5e>
1000bea6:	4590      	cmp	r8, r2
1000bea8:	d307      	bcc.n	1000beba <spi_init+0x66>
1000beaa:	1992      	adds	r2, r2, r6
1000beac:	417b      	adcs	r3, r7
1000beae:	4281      	cmp	r1, r0
1000beb0:	d03f      	beq.n	1000bf32 <spi_init+0xde>
1000beb2:	000c      	movs	r4, r1
1000beb4:	3102      	adds	r1, #2
1000beb6:	2b00      	cmp	r3, #0
1000beb8:	d0f5      	beq.n	1000bea6 <spi_init+0x52>
1000beba:	2680      	movs	r6, #128	; 0x80
1000bebc:	0227      	lsls	r7, r4, #8
1000bebe:	1b3f      	subs	r7, r7, r4
1000bec0:	0076      	lsls	r6, r6, #1
1000bec2:	e002      	b.n	1000beca <spi_init+0x76>
1000bec4:	1b3f      	subs	r7, r7, r4
1000bec6:	2e01      	cmp	r6, #1
1000bec8:	d035      	beq.n	1000bf36 <spi_init+0xe2>
1000beca:	0039      	movs	r1, r7
1000becc:	4640      	mov	r0, r8
1000bece:	46b3      	mov	fp, r6
1000bed0:	3e01      	subs	r6, #1
1000bed2:	f7fc f9f9 	bl	100082c8 <__wrap___aeabi_uidiv>
1000bed6:	4285      	cmp	r5, r0
1000bed8:	d2f4      	bcs.n	1000bec4 <spi_init+0x70>
1000beda:	4659      	mov	r1, fp
1000bedc:	0233      	lsls	r3, r6, #8
1000bede:	4699      	mov	r9, r3
1000bee0:	4361      	muls	r1, r4
1000bee2:	4653      	mov	r3, sl
1000bee4:	464a      	mov	r2, r9
1000bee6:	611c      	str	r4, [r3, #16]
1000bee8:	681b      	ldr	r3, [r3, #0]
1000beea:	4650      	mov	r0, sl
1000beec:	4053      	eors	r3, r2
1000beee:	22ff      	movs	r2, #255	; 0xff
1000bef0:	0212      	lsls	r2, r2, #8
1000bef2:	4013      	ands	r3, r2
1000bef4:	2280      	movs	r2, #128	; 0x80
1000bef6:	0152      	lsls	r2, r2, #5
1000bef8:	4302      	orrs	r2, r0
1000befa:	6013      	str	r3, [r2, #0]
1000befc:	6803      	ldr	r3, [r0, #0]
1000befe:	2007      	movs	r0, #7
1000bf00:	4058      	eors	r0, r3
1000bf02:	23cf      	movs	r3, #207	; 0xcf
1000bf04:	4003      	ands	r3, r0
1000bf06:	6013      	str	r3, [r2, #0]
1000bf08:	4652      	mov	r2, sl
1000bf0a:	2380      	movs	r3, #128	; 0x80
1000bf0c:	2003      	movs	r0, #3
1000bf0e:	019b      	lsls	r3, r3, #6
1000bf10:	3224      	adds	r2, #36	; 0x24
1000bf12:	431a      	orrs	r2, r3
1000bf14:	6010      	str	r0, [r2, #0]
1000bf16:	4652      	mov	r2, sl
1000bf18:	1d10      	adds	r0, r2, #4
1000bf1a:	4318      	orrs	r0, r3
1000bf1c:	2302      	movs	r3, #2
1000bf1e:	6003      	str	r3, [r0, #0]
1000bf20:	4640      	mov	r0, r8
1000bf22:	f7fc f9d1 	bl	100082c8 <__wrap___aeabi_uidiv>
1000bf26:	bcf0      	pop	{r4, r5, r6, r7}
1000bf28:	46bb      	mov	fp, r7
1000bf2a:	46b2      	mov	sl, r6
1000bf2c:	46a9      	mov	r9, r5
1000bf2e:	46a0      	mov	r8, r4
1000bf30:	bdf8      	pop	{r3, r4, r5, r6, r7, pc}
1000bf32:	000c      	movs	r4, r1
1000bf34:	e7c1      	b.n	1000beba <spi_init+0x66>
1000bf36:	0021      	movs	r1, r4
1000bf38:	e7d3      	b.n	1000bee2 <spi_init+0x8e>
1000bf3a:	46c0      	nop			; (mov r8, r8)
1000bf3c:	bffc4000 	.word	0xbffc4000
1000bf40:	4000e000 	.word	0x4000e000
1000bf44:	4000f000 	.word	0x4000f000
1000bf48:	4000c000 	.word	0x4000c000

1000bf4c <spi_set_baudrate>:
1000bf4c:	b5f0      	push	{r4, r5, r6, r7, lr}
1000bf4e:	464f      	mov	r7, r9
1000bf50:	4646      	mov	r6, r8
1000bf52:	46d6      	mov	lr, sl
1000bf54:	4681      	mov	r9, r0
1000bf56:	b5c0      	push	{r6, r7, lr}
1000bf58:	2006      	movs	r0, #6
1000bf5a:	000d      	movs	r5, r1
1000bf5c:	f7f9 f91c 	bl	10005198 <clock_get_hz>
1000bf60:	4680      	mov	r8, r0
1000bf62:	2080      	movs	r0, #128	; 0x80
1000bf64:	2102      	movs	r1, #2
1000bf66:	0def      	lsrs	r7, r5, #23
1000bf68:	026e      	lsls	r6, r5, #9
1000bf6a:	0dab      	lsrs	r3, r5, #22
1000bf6c:	02aa      	lsls	r2, r5, #10
1000bf6e:	0040      	lsls	r0, r0, #1
1000bf70:	e005      	b.n	1000bf7e <spi_set_baudrate+0x32>
1000bf72:	4590      	cmp	r8, r2
1000bf74:	d307      	bcc.n	1000bf86 <spi_set_baudrate+0x3a>
1000bf76:	1992      	adds	r2, r2, r6
1000bf78:	417b      	adcs	r3, r7
1000bf7a:	4281      	cmp	r1, r0
1000bf7c:	d02a      	beq.n	1000bfd4 <spi_set_baudrate+0x88>
1000bf7e:	000c      	movs	r4, r1
1000bf80:	3102      	adds	r1, #2
1000bf82:	2b00      	cmp	r3, #0
1000bf84:	d0f5      	beq.n	1000bf72 <spi_set_baudrate+0x26>
1000bf86:	2680      	movs	r6, #128	; 0x80
1000bf88:	0227      	lsls	r7, r4, #8
1000bf8a:	1b3f      	subs	r7, r7, r4
1000bf8c:	0076      	lsls	r6, r6, #1
1000bf8e:	e002      	b.n	1000bf96 <spi_set_baudrate+0x4a>
1000bf90:	1b3f      	subs	r7, r7, r4
1000bf92:	2e01      	cmp	r6, #1
1000bf94:	d020      	beq.n	1000bfd8 <spi_set_baudrate+0x8c>
1000bf96:	0039      	movs	r1, r7
1000bf98:	4640      	mov	r0, r8
1000bf9a:	46b2      	mov	sl, r6
1000bf9c:	3e01      	subs	r6, #1
1000bf9e:	f7fc f993 	bl	100082c8 <__wrap___aeabi_uidiv>
1000bfa2:	42a8      	cmp	r0, r5
1000bfa4:	d9f4      	bls.n	1000bf90 <spi_set_baudrate+0x44>
1000bfa6:	4651      	mov	r1, sl
1000bfa8:	4361      	muls	r1, r4
1000bfaa:	0236      	lsls	r6, r6, #8
1000bfac:	464b      	mov	r3, r9
1000bfae:	611c      	str	r4, [r3, #16]
1000bfb0:	681b      	ldr	r3, [r3, #0]
1000bfb2:	2080      	movs	r0, #128	; 0x80
1000bfb4:	405e      	eors	r6, r3
1000bfb6:	23ff      	movs	r3, #255	; 0xff
1000bfb8:	021b      	lsls	r3, r3, #8
1000bfba:	401e      	ands	r6, r3
1000bfbc:	464b      	mov	r3, r9
1000bfbe:	0140      	lsls	r0, r0, #5
1000bfc0:	4318      	orrs	r0, r3
1000bfc2:	6006      	str	r6, [r0, #0]
1000bfc4:	4640      	mov	r0, r8
1000bfc6:	f7fc f97f 	bl	100082c8 <__wrap___aeabi_uidiv>
1000bfca:	bce0      	pop	{r5, r6, r7}
1000bfcc:	46ba      	mov	sl, r7
1000bfce:	46b1      	mov	r9, r6
1000bfd0:	46a8      	mov	r8, r5
1000bfd2:	bdf0      	pop	{r4, r5, r6, r7, pc}
1000bfd4:	000c      	movs	r4, r1
1000bfd6:	e7d6      	b.n	1000bf86 <spi_set_baudrate+0x3a>
1000bfd8:	0021      	movs	r1, r4
1000bfda:	2600      	movs	r6, #0
1000bfdc:	e7e6      	b.n	1000bfac <spi_set_baudrate+0x60>
1000bfde:	46c0      	nop			; (mov r8, r8)

1000bfe0 <i2c_set_baudrate>:
1000bfe0:	b5f8      	push	{r3, r4, r5, r6, r7, lr}
1000bfe2:	46de      	mov	lr, fp
1000bfe4:	4657      	mov	r7, sl
1000bfe6:	464e      	mov	r6, r9
1000bfe8:	4645      	mov	r5, r8
1000bfea:	4683      	mov	fp, r0
1000bfec:	b5e0      	push	{r5, r6, r7, lr}
1000bfee:	2005      	movs	r0, #5
1000bff0:	000c      	movs	r4, r1
1000bff2:	f7f9 f8d1 	bl	10005198 <clock_get_hz>
1000bff6:	0006      	movs	r6, r0
1000bff8:	0860      	lsrs	r0, r4, #1
1000bffa:	0021      	movs	r1, r4
1000bffc:	1980      	adds	r0, r0, r6
1000bffe:	f7fc f963 	bl	100082c8 <__wrap___aeabi_uidiv>
1000c002:	0043      	lsls	r3, r0, #1
1000c004:	4698      	mov	r8, r3
1000c006:	4480      	add	r8, r0
1000c008:	0007      	movs	r7, r0
1000c00a:	2105      	movs	r1, #5
1000c00c:	4640      	mov	r0, r8
1000c00e:	f7fc f95b 	bl	100082c8 <__wrap___aeabi_uidiv>
1000c012:	1a3b      	subs	r3, r7, r0
1000c014:	469a      	mov	sl, r3
1000c016:	4b20      	ldr	r3, [pc, #128]	; (1000c098 <i2c_set_baudrate+0xb8>)
1000c018:	4681      	mov	r9, r0
1000c01a:	0070      	lsls	r0, r6, #1
1000c01c:	1980      	adds	r0, r0, r6
1000c01e:	429c      	cmp	r4, r3
1000c020:	d834      	bhi.n	1000c08c <i2c_set_baudrate+0xac>
1000c022:	491e      	ldr	r1, [pc, #120]	; (1000c09c <i2c_set_baudrate+0xbc>)
1000c024:	f7fc f950 	bl	100082c8 <__wrap___aeabi_uidiv>
1000c028:	1c45      	adds	r5, r0, #1
1000c02a:	465b      	mov	r3, fp
1000c02c:	681c      	ldr	r4, [r3, #0]
1000c02e:	2300      	movs	r3, #0
1000c030:	66e3      	str	r3, [r4, #108]	; 0x6c
1000c032:	6822      	ldr	r2, [r4, #0]
1000c034:	3304      	adds	r3, #4
1000c036:	4053      	eors	r3, r2
1000c038:	2206      	movs	r2, #6
1000c03a:	401a      	ands	r2, r3
1000c03c:	2380      	movs	r3, #128	; 0x80
1000c03e:	015b      	lsls	r3, r3, #5
1000c040:	4323      	orrs	r3, r4
1000c042:	601a      	str	r2, [r3, #0]
1000c044:	4653      	mov	r3, sl
1000c046:	61e3      	str	r3, [r4, #28]
1000c048:	464b      	mov	r3, r9
1000c04a:	6223      	str	r3, [r4, #32]
1000c04c:	4643      	mov	r3, r8
1000c04e:	2001      	movs	r0, #1
1000c050:	2b4f      	cmp	r3, #79	; 0x4f
1000c052:	d903      	bls.n	1000c05c <i2c_set_baudrate+0x7c>
1000c054:	2150      	movs	r1, #80	; 0x50
1000c056:	4640      	mov	r0, r8
1000c058:	f7fc f936 	bl	100082c8 <__wrap___aeabi_uidiv>
1000c05c:	23a0      	movs	r3, #160	; 0xa0
1000c05e:	0022      	movs	r2, r4
1000c060:	50e0      	str	r0, [r4, r3]
1000c062:	2380      	movs	r3, #128	; 0x80
1000c064:	6fe0      	ldr	r0, [r4, #124]	; 0x7c
1000c066:	327c      	adds	r2, #124	; 0x7c
1000c068:	4045      	eors	r5, r0
1000c06a:	042d      	lsls	r5, r5, #16
1000c06c:	015b      	lsls	r3, r3, #5
1000c06e:	4313      	orrs	r3, r2
1000c070:	0c2d      	lsrs	r5, r5, #16
1000c072:	601d      	str	r5, [r3, #0]
1000c074:	2301      	movs	r3, #1
1000c076:	0039      	movs	r1, r7
1000c078:	0030      	movs	r0, r6
1000c07a:	66e3      	str	r3, [r4, #108]	; 0x6c
1000c07c:	f7fc f924 	bl	100082c8 <__wrap___aeabi_uidiv>
1000c080:	bcf0      	pop	{r4, r5, r6, r7}
1000c082:	46bb      	mov	fp, r7
1000c084:	46b2      	mov	sl, r6
1000c086:	46a9      	mov	r9, r5
1000c088:	46a0      	mov	r8, r4
1000c08a:	bdf8      	pop	{r3, r4, r5, r6, r7, pc}
1000c08c:	4904      	ldr	r1, [pc, #16]	; (1000c0a0 <i2c_set_baudrate+0xc0>)
1000c08e:	f7fc f91b 	bl	100082c8 <__wrap___aeabi_uidiv>
1000c092:	1c45      	adds	r5, r0, #1
1000c094:	e7c9      	b.n	1000c02a <i2c_set_baudrate+0x4a>
1000c096:	46c0      	nop			; (mov r8, r8)
1000c098:	000f423f 	.word	0x000f423f
1000c09c:	00989680 	.word	0x00989680
1000c0a0:	017d7840 	.word	0x017d7840

1000c0a4 <i2c_init>:
1000c0a4:	4a10      	ldr	r2, [pc, #64]	; (1000c0e8 <i2c_init+0x44>)
1000c0a6:	b570      	push	{r4, r5, r6, lr}
1000c0a8:	1a82      	subs	r2, r0, r2
1000c0aa:	4253      	negs	r3, r2
1000c0ac:	415a      	adcs	r2, r3
1000c0ae:	2307      	movs	r3, #7
1000c0b0:	4252      	negs	r2, r2
1000c0b2:	439a      	bics	r2, r3
1000c0b4:	4b0d      	ldr	r3, [pc, #52]	; (1000c0ec <i2c_init+0x48>)
1000c0b6:	3210      	adds	r2, #16
1000c0b8:	601a      	str	r2, [r3, #0]
1000c0ba:	4b0d      	ldr	r3, [pc, #52]	; (1000c0f0 <i2c_init+0x4c>)
1000c0bc:	4c0d      	ldr	r4, [pc, #52]	; (1000c0f4 <i2c_init+0x50>)
1000c0be:	601a      	str	r2, [r3, #0]
1000c0c0:	0015      	movs	r5, r2
1000c0c2:	68a3      	ldr	r3, [r4, #8]
1000c0c4:	439d      	bics	r5, r3
1000c0c6:	1e2b      	subs	r3, r5, #0
1000c0c8:	d1fa      	bne.n	1000c0c0 <i2c_init+0x1c>
1000c0ca:	2466      	movs	r4, #102	; 0x66
1000c0cc:	6802      	ldr	r2, [r0, #0]
1000c0ce:	34ff      	adds	r4, #255	; 0xff
1000c0d0:	7105      	strb	r5, [r0, #4]
1000c0d2:	66d5      	str	r5, [r2, #108]	; 0x6c
1000c0d4:	6014      	str	r4, [r2, #0]
1000c0d6:	3c63      	subs	r4, #99	; 0x63
1000c0d8:	3388      	adds	r3, #136	; 0x88
1000c0da:	3cff      	subs	r4, #255	; 0xff
1000c0dc:	63d5      	str	r5, [r2, #60]	; 0x3c
1000c0de:	6395      	str	r5, [r2, #56]	; 0x38
1000c0e0:	50d4      	str	r4, [r2, r3]
1000c0e2:	f7ff ff7d 	bl	1000bfe0 <i2c_set_baudrate>
1000c0e6:	bd70      	pop	{r4, r5, r6, pc}
1000c0e8:	200004e0 	.word	0x200004e0
1000c0ec:	4000e000 	.word	0x4000e000
1000c0f0:	4000f000 	.word	0x4000f000
1000c0f4:	4000c000 	.word	0x4000c000

1000c0f8 <i2c_write_blocking>:
1000c0f8:	b5f0      	push	{r4, r5, r6, r7, lr}
1000c0fa:	4657      	mov	r7, sl
1000c0fc:	464e      	mov	r6, r9
1000c0fe:	4645      	mov	r5, r8
1000c100:	46de      	mov	lr, fp
1000c102:	4690      	mov	r8, r2
1000c104:	2200      	movs	r2, #0
1000c106:	b5e0      	push	{r5, r6, r7, lr}
1000c108:	b083      	sub	sp, #12
1000c10a:	001e      	movs	r6, r3
1000c10c:	ab0c      	add	r3, sp, #48	; 0x30
1000c10e:	781b      	ldrb	r3, [r3, #0]
1000c110:	4684      	mov	ip, r0
1000c112:	469a      	mov	sl, r3
1000c114:	6803      	ldr	r3, [r0, #0]
1000c116:	66da      	str	r2, [r3, #108]	; 0x6c
1000c118:	3201      	adds	r2, #1
1000c11a:	6059      	str	r1, [r3, #4]
1000c11c:	66da      	str	r2, [r3, #108]	; 0x6c
1000c11e:	2e00      	cmp	r6, #0
1000c120:	dd4f      	ble.n	1000c1c2 <i2c_write_blocking+0xca>
1000c122:	4651      	mov	r1, sl
1000c124:	404a      	eors	r2, r1
1000c126:	0252      	lsls	r2, r2, #9
1000c128:	9201      	str	r2, [sp, #4]
1000c12a:	2280      	movs	r2, #128	; 0x80
1000c12c:	4691      	mov	r9, r2
1000c12e:	0032      	movs	r2, r6
1000c130:	2580      	movs	r5, #128	; 0x80
1000c132:	1e77      	subs	r7, r6, #1
1000c134:	2000      	movs	r0, #0
1000c136:	4646      	mov	r6, r8
1000c138:	2110      	movs	r1, #16
1000c13a:	4690      	mov	r8, r2
1000c13c:	00ad      	lsls	r5, r5, #2
1000c13e:	2400      	movs	r4, #0
1000c140:	2800      	cmp	r0, #0
1000c142:	d104      	bne.n	1000c14e <i2c_write_blocking+0x56>
1000c144:	4662      	mov	r2, ip
1000c146:	7914      	ldrb	r4, [r2, #4]
1000c148:	1e62      	subs	r2, r4, #1
1000c14a:	4194      	sbcs	r4, r2
1000c14c:	02a4      	lsls	r4, r4, #10
1000c14e:	2200      	movs	r2, #0
1000c150:	4693      	mov	fp, r2
1000c152:	42b8      	cmp	r0, r7
1000c154:	d01a      	beq.n	1000c18c <i2c_write_blocking+0x94>
1000c156:	5c32      	ldrb	r2, [r6, r0]
1000c158:	4322      	orrs	r2, r4
1000c15a:	465c      	mov	r4, fp
1000c15c:	4322      	orrs	r2, r4
1000c15e:	611a      	str	r2, [r3, #16]
1000c160:	6b5a      	ldr	r2, [r3, #52]	; 0x34
1000c162:	4211      	tst	r1, r2
1000c164:	d0fc      	beq.n	1000c160 <i2c_write_blocking+0x68>
1000c166:	464a      	mov	r2, r9
1000c168:	589c      	ldr	r4, [r3, r2]
1000c16a:	2c00      	cmp	r4, #0
1000c16c:	d111      	bne.n	1000c192 <i2c_write_blocking+0x9a>
1000c16e:	42b8      	cmp	r0, r7
1000c170:	d022      	beq.n	1000c1b8 <i2c_write_blocking+0xc0>
1000c172:	3001      	adds	r0, #1
1000c174:	4580      	cmp	r8, r0
1000c176:	d1e2      	bne.n	1000c13e <i2c_write_blocking+0x46>
1000c178:	4663      	mov	r3, ip
1000c17a:	4652      	mov	r2, sl
1000c17c:	711a      	strb	r2, [r3, #4]
1000c17e:	b003      	add	sp, #12
1000c180:	bcf0      	pop	{r4, r5, r6, r7}
1000c182:	46bb      	mov	fp, r7
1000c184:	46b2      	mov	sl, r6
1000c186:	46a9      	mov	r9, r5
1000c188:	46a0      	mov	r8, r4
1000c18a:	bdf0      	pop	{r4, r5, r6, r7, pc}
1000c18c:	9a01      	ldr	r2, [sp, #4]
1000c18e:	4693      	mov	fp, r2
1000c190:	e7e1      	b.n	1000c156 <i2c_write_blocking+0x5e>
1000c192:	6d5a      	ldr	r2, [r3, #84]	; 0x54
1000c194:	2201      	movs	r2, #1
1000c196:	4693      	mov	fp, r2
1000c198:	6b5a      	ldr	r2, [r3, #52]	; 0x34
1000c19a:	422a      	tst	r2, r5
1000c19c:	d0fc      	beq.n	1000c198 <i2c_write_blocking+0xa0>
1000c19e:	6e1a      	ldr	r2, [r3, #96]	; 0x60
1000c1a0:	465a      	mov	r2, fp
1000c1a2:	2a00      	cmp	r2, #0
1000c1a4:	d0e5      	beq.n	1000c172 <i2c_write_blocking+0x7a>
1000c1a6:	2c00      	cmp	r4, #0
1000c1a8:	d003      	beq.n	1000c1b2 <i2c_write_blocking+0xba>
1000c1aa:	07e3      	lsls	r3, r4, #31
1000c1ac:	d401      	bmi.n	1000c1b2 <i2c_write_blocking+0xba>
1000c1ae:	0723      	lsls	r3, r4, #28
1000c1b0:	d4e2      	bmi.n	1000c178 <i2c_write_blocking+0x80>
1000c1b2:	2002      	movs	r0, #2
1000c1b4:	4240      	negs	r0, r0
1000c1b6:	e7df      	b.n	1000c178 <i2c_write_blocking+0x80>
1000c1b8:	4652      	mov	r2, sl
1000c1ba:	2a00      	cmp	r2, #0
1000c1bc:	d1d9      	bne.n	1000c172 <i2c_write_blocking+0x7a>
1000c1be:	46d3      	mov	fp, sl
1000c1c0:	e7ea      	b.n	1000c198 <i2c_write_blocking+0xa0>
1000c1c2:	2000      	movs	r0, #0
1000c1c4:	e7d8      	b.n	1000c178 <i2c_write_blocking+0x80>
1000c1c6:	46c0      	nop			; (mov r8, r8)

1000c1c8 <i2c_read_blocking>:
1000c1c8:	b5f0      	push	{r4, r5, r6, r7, lr}
1000c1ca:	4645      	mov	r5, r8
1000c1cc:	46de      	mov	lr, fp
1000c1ce:	4657      	mov	r7, sl
1000c1d0:	464e      	mov	r6, r9
1000c1d2:	4693      	mov	fp, r2
1000c1d4:	2200      	movs	r2, #0
1000c1d6:	b5e0      	push	{r5, r6, r7, lr}
1000c1d8:	001d      	movs	r5, r3
1000c1da:	ab09      	add	r3, sp, #36	; 0x24
1000c1dc:	781b      	ldrb	r3, [r3, #0]
1000c1de:	0004      	movs	r4, r0
1000c1e0:	4698      	mov	r8, r3
1000c1e2:	6803      	ldr	r3, [r0, #0]
1000c1e4:	66da      	str	r2, [r3, #108]	; 0x6c
1000c1e6:	3201      	adds	r2, #1
1000c1e8:	6059      	str	r1, [r3, #4]
1000c1ea:	66da      	str	r2, [r3, #108]	; 0x6c
1000c1ec:	2d00      	cmp	r5, #0
1000c1ee:	dd3e      	ble.n	1000c26e <i2c_read_blocking+0xa6>
1000c1f0:	4641      	mov	r1, r8
1000c1f2:	404a      	eors	r2, r1
1000c1f4:	0252      	lsls	r2, r2, #9
1000c1f6:	4694      	mov	ip, r2
1000c1f8:	2280      	movs	r2, #128	; 0x80
1000c1fa:	2000      	movs	r0, #0
1000c1fc:	0052      	lsls	r2, r2, #1
1000c1fe:	4691      	mov	r9, r2
1000c200:	1e6f      	subs	r7, r5, #1
1000c202:	3a80      	subs	r2, #128	; 0x80
1000c204:	6f59      	ldr	r1, [r3, #116]	; 0x74
1000c206:	2910      	cmp	r1, #16
1000c208:	d0fc      	beq.n	1000c204 <i2c_read_blocking+0x3c>
1000c20a:	2800      	cmp	r0, #0
1000c20c:	d026      	beq.n	1000c25c <i2c_read_blocking+0x94>
1000c20e:	2600      	movs	r6, #0
1000c210:	2180      	movs	r1, #128	; 0x80
1000c212:	46b2      	mov	sl, r6
1000c214:	0049      	lsls	r1, r1, #1
1000c216:	42b8      	cmp	r0, r7
1000c218:	d012      	beq.n	1000c240 <i2c_read_blocking+0x78>
1000c21a:	6119      	str	r1, [r3, #16]
1000c21c:	e002      	b.n	1000c224 <i2c_read_blocking+0x5c>
1000c21e:	6f99      	ldr	r1, [r3, #120]	; 0x78
1000c220:	2900      	cmp	r1, #0
1000c222:	d113      	bne.n	1000c24c <i2c_read_blocking+0x84>
1000c224:	5899      	ldr	r1, [r3, r2]
1000c226:	6d59      	ldr	r1, [r3, #84]	; 0x54
1000c228:	2900      	cmp	r1, #0
1000c22a:	d0f8      	beq.n	1000c21e <i2c_read_blocking+0x56>
1000c22c:	2002      	movs	r0, #2
1000c22e:	4240      	negs	r0, r0
1000c230:	4643      	mov	r3, r8
1000c232:	7123      	strb	r3, [r4, #4]
1000c234:	bcf0      	pop	{r4, r5, r6, r7}
1000c236:	46bb      	mov	fp, r7
1000c238:	46b2      	mov	sl, r6
1000c23a:	46a9      	mov	r9, r5
1000c23c:	46a0      	mov	r8, r4
1000c23e:	bdf0      	pop	{r4, r5, r6, r7, pc}
1000c240:	4666      	mov	r6, ip
1000c242:	4651      	mov	r1, sl
1000c244:	4331      	orrs	r1, r6
1000c246:	464e      	mov	r6, r9
1000c248:	4331      	orrs	r1, r6
1000c24a:	e7e6      	b.n	1000c21a <i2c_read_blocking+0x52>
1000c24c:	4659      	mov	r1, fp
1000c24e:	691b      	ldr	r3, [r3, #16]
1000c250:	540b      	strb	r3, [r1, r0]
1000c252:	3001      	adds	r0, #1
1000c254:	4285      	cmp	r5, r0
1000c256:	d0eb      	beq.n	1000c230 <i2c_read_blocking+0x68>
1000c258:	6823      	ldr	r3, [r4, #0]
1000c25a:	e7d3      	b.n	1000c204 <i2c_read_blocking+0x3c>
1000c25c:	7921      	ldrb	r1, [r4, #4]
1000c25e:	2900      	cmp	r1, #0
1000c260:	d0d5      	beq.n	1000c20e <i2c_read_blocking+0x46>
1000c262:	2680      	movs	r6, #128	; 0x80
1000c264:	21a0      	movs	r1, #160	; 0xa0
1000c266:	00f6      	lsls	r6, r6, #3
1000c268:	46b2      	mov	sl, r6
1000c26a:	00c9      	lsls	r1, r1, #3
1000c26c:	e7d3      	b.n	1000c216 <i2c_read_blocking+0x4e>
1000c26e:	2000      	movs	r0, #0
1000c270:	e7de      	b.n	1000c230 <i2c_read_blocking+0x68>
1000c272:	46c0      	nop			; (mov r8, r8)

1000c274 <strlen>:
1000c274:	b510      	push	{r4, lr}
1000c276:	0783      	lsls	r3, r0, #30
1000c278:	d00a      	beq.n	1000c290 <strlen+0x1c>
1000c27a:	0003      	movs	r3, r0
1000c27c:	2103      	movs	r1, #3
1000c27e:	e002      	b.n	1000c286 <strlen+0x12>
1000c280:	3301      	adds	r3, #1
1000c282:	420b      	tst	r3, r1
1000c284:	d005      	beq.n	1000c292 <strlen+0x1e>
1000c286:	781a      	ldrb	r2, [r3, #0]
1000c288:	2a00      	cmp	r2, #0
1000c28a:	d1f9      	bne.n	1000c280 <strlen+0xc>
1000c28c:	1a18      	subs	r0, r3, r0
1000c28e:	bd10      	pop	{r4, pc}
1000c290:	0003      	movs	r3, r0
1000c292:	6819      	ldr	r1, [r3, #0]
1000c294:	4a0c      	ldr	r2, [pc, #48]	; (1000c2c8 <strlen+0x54>)
1000c296:	4c0d      	ldr	r4, [pc, #52]	; (1000c2cc <strlen+0x58>)
1000c298:	188a      	adds	r2, r1, r2
1000c29a:	438a      	bics	r2, r1
1000c29c:	4222      	tst	r2, r4
1000c29e:	d10f      	bne.n	1000c2c0 <strlen+0x4c>
1000c2a0:	6859      	ldr	r1, [r3, #4]
1000c2a2:	4a09      	ldr	r2, [pc, #36]	; (1000c2c8 <strlen+0x54>)
1000c2a4:	3304      	adds	r3, #4
1000c2a6:	188a      	adds	r2, r1, r2
1000c2a8:	438a      	bics	r2, r1
1000c2aa:	4222      	tst	r2, r4
1000c2ac:	d108      	bne.n	1000c2c0 <strlen+0x4c>
1000c2ae:	6859      	ldr	r1, [r3, #4]
1000c2b0:	4a05      	ldr	r2, [pc, #20]	; (1000c2c8 <strlen+0x54>)
1000c2b2:	3304      	adds	r3, #4
1000c2b4:	188a      	adds	r2, r1, r2
1000c2b6:	438a      	bics	r2, r1
1000c2b8:	4222      	tst	r2, r4
1000c2ba:	d0f1      	beq.n	1000c2a0 <strlen+0x2c>
1000c2bc:	e000      	b.n	1000c2c0 <strlen+0x4c>
1000c2be:	3301      	adds	r3, #1
1000c2c0:	781a      	ldrb	r2, [r3, #0]
1000c2c2:	2a00      	cmp	r2, #0
1000c2c4:	d1fb      	bne.n	1000c2be <strlen+0x4a>
1000c2c6:	e7e1      	b.n	1000c28c <strlen+0x18>
1000c2c8:	fefefeff 	.word	0xfefefeff
1000c2cc:	80808080 	.word	0x80808080

1000c2d0 <_fini>:
1000c2d0:	b5f8      	push	{r3, r4, r5, r6, r7, lr}
1000c2d2:	46c0      	nop			; (mov r8, r8)
1000c2d4:	0000      	movs	r0, r0
	...

1000c2d8 <__flash_do_cmd_veneer>:
1000c2d8:	b401      	push	{r0}
1000c2da:	4802      	ldr	r0, [pc, #8]	; (1000c2e4 <__flash_do_cmd_veneer+0xc>)
1000c2dc:	4684      	mov	ip, r0
1000c2de:	bc01      	pop	{r0}
1000c2e0:	4760      	bx	ip
1000c2e2:	bf00      	nop
1000c2e4:	2000028d 	.word	0x2000028d

1000c2e8 <__mutex_exit_veneer>:
1000c2e8:	b401      	push	{r0}
1000c2ea:	4802      	ldr	r0, [pc, #8]	; (1000c2f4 <__mutex_exit_veneer+0xc>)
1000c2ec:	4684      	mov	ip, r0
1000c2ee:	bc01      	pop	{r0}
1000c2f0:	4760      	bx	ip
1000c2f2:	bf00      	nop
1000c2f4:	200001ed 	.word	0x200001ed

1000c2f8 <____aeabi_ldiv0_veneer>:
1000c2f8:	b401      	push	{r0}
1000c2fa:	4802      	ldr	r0, [pc, #8]	; (1000c304 <____aeabi_ldiv0_veneer+0xc>)
1000c2fc:	4684      	mov	ip, r0
1000c2fe:	bc01      	pop	{r0}
1000c300:	4760      	bx	ip
1000c302:	bf00      	nop
1000c304:	200003c5 	.word	0x200003c5

1000c308 <____aeabi_idiv0_veneer>:
1000c308:	b401      	push	{r0}
1000c30a:	4802      	ldr	r0, [pc, #8]	; (1000c314 <____aeabi_idiv0_veneer+0xc>)
1000c30c:	4684      	mov	ip, r0
1000c30e:	bc01      	pop	{r0}
1000c310:	4760      	bx	ip
1000c312:	bf00      	nop
1000c314:	200003c5 	.word	0x200003c5

1000c318 <__mutex_try_enter_veneer>:
1000c318:	b401      	push	{r0}
1000c31a:	4802      	ldr	r0, [pc, #8]	; (1000c324 <__mutex_try_enter_veneer+0xc>)
1000c31c:	4684      	mov	ip, r0
1000c31e:	bc01      	pop	{r0}
1000c320:	4760      	bx	ip
1000c322:	bf00      	nop
1000c324:	20000109 	.word	0x20000109

1000c328 <__mutex_enter_timeout_ms_veneer>:
1000c328:	b401      	push	{r0}
1000c32a:	4802      	ldr	r0, [pc, #8]	; (1000c334 <__mutex_enter_timeout_ms_veneer+0xc>)
1000c32c:	4684      	mov	ip, r0
1000c32e:	bc01      	pop	{r0}
1000c330:	4760      	bx	ip
1000c332:	bf00      	nop
1000c334:	2000014d 	.word	0x2000014d

1000c338 <__spi_write_read_blocking_veneer>:
1000c338:	b401      	push	{r0}
1000c33a:	4802      	ldr	r0, [pc, #8]	; (1000c344 <__spi_write_read_blocking_veneer+0xc>)
1000c33c:	4684      	mov	ip, r0
1000c33e:	bc01      	pop	{r0}
1000c340:	4760      	bx	ip
1000c342:	bf00      	nop
1000c344:	20000351 	.word	0x20000351

1000c348 <__mutex_enter_blocking_veneer>:
1000c348:	b401      	push	{r0}
1000c34a:	4802      	ldr	r0, [pc, #8]	; (1000c354 <__mutex_enter_blocking_veneer+0xc>)
1000c34c:	4684      	mov	ip, r0
1000c34e:	bc01      	pop	{r0}
1000c350:	4760      	bx	ip
1000c352:	bf00      	nop
1000c354:	200000c1 	.word	0x200000c1

Disassembly of section .data:

200000c0 <mutex_enter_blocking>:
200000c0:	23d0      	movs	r3, #208	; 0xd0
200000c2:	b530      	push	{r4, r5, lr}
200000c4:	2500      	movs	r5, #0
200000c6:	061b      	lsls	r3, r3, #24
200000c8:	2400      	movs	r4, #0
200000ca:	575d      	ldrsb	r5, [r3, r5]
200000cc:	e006      	b.n	200000dc <mutex_enter_blocking+0x1c>
200000ce:	6803      	ldr	r3, [r0, #0]
200000d0:	f3bf 8f5f 	dmb	sy
200000d4:	601c      	str	r4, [r3, #0]
200000d6:	f381 8810 	msr	PRIMASK, r1
200000da:	bf20      	wfe
200000dc:	6802      	ldr	r2, [r0, #0]
200000de:	f3ef 8110 	mrs	r1, PRIMASK
200000e2:	b672      	cpsid	i
200000e4:	6813      	ldr	r3, [r2, #0]
200000e6:	2b00      	cmp	r3, #0
200000e8:	d0fc      	beq.n	200000e4 <mutex_enter_blocking+0x24>
200000ea:	f3bf 8f5f 	dmb	sy
200000ee:	7903      	ldrb	r3, [r0, #4]
200000f0:	2b7f      	cmp	r3, #127	; 0x7f
200000f2:	d9ec      	bls.n	200000ce <mutex_enter_blocking+0xe>
200000f4:	7105      	strb	r5, [r0, #4]
200000f6:	6803      	ldr	r3, [r0, #0]
200000f8:	f3bf 8f5f 	dmb	sy
200000fc:	2200      	movs	r2, #0
200000fe:	601a      	str	r2, [r3, #0]
20000100:	f381 8810 	msr	PRIMASK, r1
20000104:	bd30      	pop	{r4, r5, pc}
20000106:	46c0      	nop			; (mov r8, r8)

20000108 <mutex_try_enter>:
20000108:	0003      	movs	r3, r0
2000010a:	6800      	ldr	r0, [r0, #0]
2000010c:	f3ef 8c10 	mrs	ip, PRIMASK
20000110:	b672      	cpsid	i
20000112:	6802      	ldr	r2, [r0, #0]
20000114:	2a00      	cmp	r2, #0
20000116:	d0fc      	beq.n	20000112 <mutex_try_enter+0xa>
20000118:	f3bf 8f5f 	dmb	sy
2000011c:	2204      	movs	r2, #4
2000011e:	569a      	ldrsb	r2, [r3, r2]
20000120:	2a00      	cmp	r2, #0
20000122:	db0b      	blt.n	2000013c <mutex_try_enter+0x34>
20000124:	2900      	cmp	r1, #0
20000126:	d00f      	beq.n	20000148 <mutex_try_enter+0x40>
20000128:	2000      	movs	r0, #0
2000012a:	600a      	str	r2, [r1, #0]
2000012c:	681b      	ldr	r3, [r3, #0]
2000012e:	f3bf 8f5f 	dmb	sy
20000132:	2200      	movs	r2, #0
20000134:	601a      	str	r2, [r3, #0]
20000136:	f38c 8810 	msr	PRIMASK, ip
2000013a:	4770      	bx	lr
2000013c:	22d0      	movs	r2, #208	; 0xd0
2000013e:	0612      	lsls	r2, r2, #24
20000140:	6812      	ldr	r2, [r2, #0]
20000142:	2001      	movs	r0, #1
20000144:	711a      	strb	r2, [r3, #4]
20000146:	e7f1      	b.n	2000012c <mutex_try_enter+0x24>
20000148:	2000      	movs	r0, #0
2000014a:	e7ef      	b.n	2000012c <mutex_try_enter+0x24>

2000014c <mutex_enter_timeout_ms>:
2000014c:	b5f0      	push	{r4, r5, r6, r7, lr}
2000014e:	46c6      	mov	lr, r8
20000150:	b500      	push	{lr}
20000152:	b082      	sub	sp, #8
20000154:	000c      	movs	r4, r1
20000156:	0007      	movs	r7, r0
20000158:	f000 f936 	bl	200003c8 <__time_us_64_veneer>
2000015c:	22fa      	movs	r2, #250	; 0xfa
2000015e:	2300      	movs	r3, #0
20000160:	9000      	str	r0, [sp, #0]
20000162:	9101      	str	r1, [sp, #4]
20000164:	0020      	movs	r0, r4
20000166:	0092      	lsls	r2, r2, #2
20000168:	2100      	movs	r1, #0
2000016a:	f000 f93d 	bl	200003e8 <____wrap___aeabi_lmul_veneer>
2000016e:	9a00      	ldr	r2, [sp, #0]
20000170:	9b01      	ldr	r3, [sp, #4]
20000172:	0014      	movs	r4, r2
20000174:	001d      	movs	r5, r3
20000176:	1824      	adds	r4, r4, r0
20000178:	414d      	adcs	r5, r1
2000017a:	42ab      	cmp	r3, r5
2000017c:	d82f      	bhi.n	200001de <mutex_enter_timeout_ms+0x92>
2000017e:	d02b      	beq.n	200001d8 <mutex_enter_timeout_ms+0x8c>
20000180:	23d0      	movs	r3, #208	; 0xd0
20000182:	061b      	lsls	r3, r3, #24
20000184:	681b      	ldr	r3, [r3, #0]
20000186:	2600      	movs	r6, #0
20000188:	4698      	mov	r8, r3
2000018a:	e00b      	b.n	200001a4 <mutex_enter_timeout_ms+0x58>
2000018c:	683b      	ldr	r3, [r7, #0]
2000018e:	f3bf 8f5f 	dmb	sy
20000192:	601e      	str	r6, [r3, #0]
20000194:	f381 8810 	msr	PRIMASK, r1
20000198:	0020      	movs	r0, r4
2000019a:	0029      	movs	r1, r5
2000019c:	f000 f91c 	bl	200003d8 <__best_effort_wfe_or_timeout_veneer>
200001a0:	2800      	cmp	r0, #0
200001a2:	d120      	bne.n	200001e6 <mutex_enter_timeout_ms+0x9a>
200001a4:	683a      	ldr	r2, [r7, #0]
200001a6:	f3ef 8110 	mrs	r1, PRIMASK
200001aa:	b672      	cpsid	i
200001ac:	6813      	ldr	r3, [r2, #0]
200001ae:	2b00      	cmp	r3, #0
200001b0:	d0fc      	beq.n	200001ac <mutex_enter_timeout_ms+0x60>
200001b2:	f3bf 8f5f 	dmb	sy
200001b6:	793b      	ldrb	r3, [r7, #4]
200001b8:	2b7f      	cmp	r3, #127	; 0x7f
200001ba:	d9e7      	bls.n	2000018c <mutex_enter_timeout_ms+0x40>
200001bc:	4643      	mov	r3, r8
200001be:	713b      	strb	r3, [r7, #4]
200001c0:	683b      	ldr	r3, [r7, #0]
200001c2:	f3bf 8f5f 	dmb	sy
200001c6:	2200      	movs	r2, #0
200001c8:	601a      	str	r2, [r3, #0]
200001ca:	f381 8810 	msr	PRIMASK, r1
200001ce:	2001      	movs	r0, #1
200001d0:	b002      	add	sp, #8
200001d2:	bc80      	pop	{r7}
200001d4:	46b8      	mov	r8, r7
200001d6:	bdf0      	pop	{r4, r5, r6, r7, pc}
200001d8:	9b00      	ldr	r3, [sp, #0]
200001da:	42a3      	cmp	r3, r4
200001dc:	d9d0      	bls.n	20000180 <mutex_enter_timeout_ms+0x34>
200001de:	2401      	movs	r4, #1
200001e0:	4264      	negs	r4, r4
200001e2:	17e5      	asrs	r5, r4, #31
200001e4:	e7cc      	b.n	20000180 <mutex_enter_timeout_ms+0x34>
200001e6:	2000      	movs	r0, #0
200001e8:	e7f2      	b.n	200001d0 <mutex_enter_timeout_ms+0x84>
200001ea:	46c0      	nop			; (mov r8, r8)

200001ec <mutex_exit>:
200001ec:	6802      	ldr	r2, [r0, #0]
200001ee:	f3ef 8110 	mrs	r1, PRIMASK
200001f2:	b672      	cpsid	i
200001f4:	6813      	ldr	r3, [r2, #0]
200001f6:	2b00      	cmp	r3, #0
200001f8:	d0fc      	beq.n	200001f4 <mutex_exit+0x8>
200001fa:	f3bf 8f5f 	dmb	sy
200001fe:	23ff      	movs	r3, #255	; 0xff
20000200:	7103      	strb	r3, [r0, #4]
20000202:	6803      	ldr	r3, [r0, #0]
20000204:	f3bf 8f5f 	dmb	sy
20000208:	2200      	movs	r2, #0
2000020a:	601a      	str	r2, [r3, #0]
2000020c:	f381 8810 	msr	PRIMASK, r1
20000210:	bf40      	sev
20000212:	4770      	bx	lr

20000214 <flash_init_boot2_copyout>:
20000214:	4808      	ldr	r0, [pc, #32]	; (20000238 <flash_init_boot2_copyout+0x24>)
20000216:	b510      	push	{r4, lr}
20000218:	7803      	ldrb	r3, [r0, #0]
2000021a:	2b00      	cmp	r3, #0
2000021c:	d10a      	bne.n	20000234 <flash_init_boot2_copyout+0x20>
2000021e:	2380      	movs	r3, #128	; 0x80
20000220:	4906      	ldr	r1, [pc, #24]	; (2000023c <flash_init_boot2_copyout+0x28>)
20000222:	4a07      	ldr	r2, [pc, #28]	; (20000240 <flash_init_boot2_copyout+0x2c>)
20000224:	055b      	lsls	r3, r3, #21
20000226:	681c      	ldr	r4, [r3, #0]
20000228:	50cc      	str	r4, [r1, r3]
2000022a:	3304      	adds	r3, #4
2000022c:	4293      	cmp	r3, r2
2000022e:	d1fa      	bne.n	20000226 <flash_init_boot2_copyout+0x12>
20000230:	2301      	movs	r3, #1
20000232:	7003      	strb	r3, [r0, #0]
20000234:	bd10      	pop	{r4, pc}
20000236:	46c0      	nop			; (mov r8, r8)
20000238:	2002714f 	.word	0x2002714f
2000023c:	10000f7c 	.word	0x10000f7c
20000240:	10000100 	.word	0x10000100

20000244 <flash_enable_xip_via_boot2>:
20000244:	b510      	push	{r4, lr}
20000246:	4b02      	ldr	r3, [pc, #8]	; (20000250 <flash_enable_xip_via_boot2+0xc>)
20000248:	3301      	adds	r3, #1
2000024a:	4798      	blx	r3
2000024c:	bd10      	pop	{r4, pc}
2000024e:	46c0      	nop			; (mov r8, r8)
20000250:	20000f7c 	.word	0x20000f7c

20000254 <flash_cs_force.constprop.0>:
20000254:	4b03      	ldr	r3, [pc, #12]	; (20000264 <flash_cs_force.constprop.0+0x10>)
20000256:	681a      	ldr	r2, [r3, #0]
20000258:	23c0      	movs	r3, #192	; 0xc0
2000025a:	009b      	lsls	r3, r3, #2
2000025c:	4393      	bics	r3, r2
2000025e:	4a02      	ldr	r2, [pc, #8]	; (20000268 <flash_cs_force.constprop.0+0x14>)
20000260:	6013      	str	r3, [r2, #0]
20000262:	4770      	bx	lr
20000264:	4001800c 	.word	0x4001800c
20000268:	4001900c 	.word	0x4001900c

2000026c <flash_cs_force.constprop.1>:
2000026c:	4b05      	ldr	r3, [pc, #20]	; (20000284 <flash_cs_force.constprop.1+0x18>)
2000026e:	681a      	ldr	r2, [r3, #0]
20000270:	2380      	movs	r3, #128	; 0x80
20000272:	009b      	lsls	r3, r3, #2
20000274:	4053      	eors	r3, r2
20000276:	22c0      	movs	r2, #192	; 0xc0
20000278:	0092      	lsls	r2, r2, #2
2000027a:	4013      	ands	r3, r2
2000027c:	4a02      	ldr	r2, [pc, #8]	; (20000288 <flash_cs_force.constprop.1+0x1c>)
2000027e:	6013      	str	r3, [r2, #0]
20000280:	4770      	bx	lr
20000282:	46c0      	nop			; (mov r8, r8)
20000284:	4001800c 	.word	0x4001800c
20000288:	4001900c 	.word	0x4001900c

2000028c <flash_do_cmd>:
2000028c:	2314      	movs	r3, #20
2000028e:	b5f0      	push	{r4, r5, r6, r7, lr}
20000290:	46d6      	mov	lr, sl
20000292:	464f      	mov	r7, r9
20000294:	4646      	mov	r6, r8
20000296:	469a      	mov	sl, r3
20000298:	4681      	mov	r9, r0
2000029a:	8818      	ldrh	r0, [r3, #0]
2000029c:	3304      	adds	r3, #4
2000029e:	b5c0      	push	{r6, r7, lr}
200002a0:	4698      	mov	r8, r3
200002a2:	000e      	movs	r6, r1
200002a4:	881b      	ldrh	r3, [r3, #0]
200002a6:	4927      	ldr	r1, [pc, #156]	; (20000344 <flash_do_cmd+0xb8>)
200002a8:	0014      	movs	r4, r2
200002aa:	4798      	blx	r3
200002ac:	4653      	mov	r3, sl
200002ae:	0007      	movs	r7, r0
200002b0:	8818      	ldrh	r0, [r3, #0]
200002b2:	4643      	mov	r3, r8
200002b4:	4924      	ldr	r1, [pc, #144]	; (20000348 <flash_do_cmd+0xbc>)
200002b6:	881b      	ldrh	r3, [r3, #0]
200002b8:	4798      	blx	r3
200002ba:	4653      	mov	r3, sl
200002bc:	0005      	movs	r5, r0
200002be:	8818      	ldrh	r0, [r3, #0]
200002c0:	4643      	mov	r3, r8
200002c2:	4922      	ldr	r1, [pc, #136]	; (2000034c <flash_do_cmd+0xc0>)
200002c4:	881b      	ldrh	r3, [r3, #0]
200002c6:	4798      	blx	r3
200002c8:	4680      	mov	r8, r0
200002ca:	f7ff ffa3 	bl	20000214 <flash_init_boot2_copyout>
200002ce:	47b8      	blx	r7
200002d0:	47a8      	blx	r5
200002d2:	f7ff ffcb 	bl	2000026c <flash_cs_force.constprop.1>
200002d6:	2c00      	cmp	r4, #0
200002d8:	d01b      	beq.n	20000312 <flash_do_cmd+0x86>
200002da:	21c0      	movs	r1, #192	; 0xc0
200002dc:	0022      	movs	r2, r4
200002de:	2708      	movs	r7, #8
200002e0:	2002      	movs	r0, #2
200002e2:	0549      	lsls	r1, r1, #21
200002e4:	003d      	movs	r5, r7
200002e6:	6a8b      	ldr	r3, [r1, #40]	; 0x28
200002e8:	401d      	ands	r5, r3
200002ea:	4218      	tst	r0, r3
200002ec:	d00b      	beq.n	20000306 <flash_do_cmd+0x7a>
200002ee:	2c00      	cmp	r4, #0
200002f0:	d009      	beq.n	20000306 <flash_do_cmd+0x7a>
200002f2:	1b13      	subs	r3, r2, r4
200002f4:	2b0d      	cmp	r3, #13
200002f6:	d81f      	bhi.n	20000338 <flash_do_cmd+0xac>
200002f8:	464b      	mov	r3, r9
200002fa:	781b      	ldrb	r3, [r3, #0]
200002fc:	3c01      	subs	r4, #1
200002fe:	660b      	str	r3, [r1, #96]	; 0x60
20000300:	2301      	movs	r3, #1
20000302:	469c      	mov	ip, r3
20000304:	44e1      	add	r9, ip
20000306:	0023      	movs	r3, r4
20000308:	2d00      	cmp	r5, #0
2000030a:	d10c      	bne.n	20000326 <flash_do_cmd+0x9a>
2000030c:	4313      	orrs	r3, r2
2000030e:	2b00      	cmp	r3, #0
20000310:	d1e8      	bne.n	200002e4 <flash_do_cmd+0x58>
20000312:	f7ff ff9f 	bl	20000254 <flash_cs_force.constprop.0>
20000316:	47c0      	blx	r8
20000318:	f7ff ff94 	bl	20000244 <flash_enable_xip_via_boot2>
2000031c:	bce0      	pop	{r5, r6, r7}
2000031e:	46ba      	mov	sl, r7
20000320:	46b1      	mov	r9, r6
20000322:	46a8      	mov	r8, r5
20000324:	bdf0      	pop	{r4, r5, r6, r7, pc}
20000326:	2a00      	cmp	r2, #0
20000328:	d0f1      	beq.n	2000030e <flash_do_cmd+0x82>
2000032a:	6e0b      	ldr	r3, [r1, #96]	; 0x60
2000032c:	3a01      	subs	r2, #1
2000032e:	7033      	strb	r3, [r6, #0]
20000330:	0013      	movs	r3, r2
20000332:	3601      	adds	r6, #1
20000334:	4323      	orrs	r3, r4
20000336:	e7ea      	b.n	2000030e <flash_do_cmd+0x82>
20000338:	2d00      	cmp	r5, #0
2000033a:	d0d3      	beq.n	200002e4 <flash_do_cmd+0x58>
2000033c:	2a00      	cmp	r2, #0
2000033e:	d0d1      	beq.n	200002e4 <flash_do_cmd+0x58>
20000340:	e7f3      	b.n	2000032a <flash_do_cmd+0x9e>
20000342:	46c0      	nop			; (mov r8, r8)
20000344:	00004649 	.word	0x00004649
20000348:	00005845 	.word	0x00005845
2000034c:	00004346 	.word	0x00004346

20000350 <spi_write_read_blocking>:
20000350:	b5f0      	push	{r4, r5, r6, r7, lr}
20000352:	464f      	mov	r7, r9
20000354:	4646      	mov	r6, r8
20000356:	46d6      	mov	lr, sl
20000358:	4689      	mov	r9, r1
2000035a:	b5c0      	push	{r6, r7, lr}
2000035c:	0006      	movs	r6, r0
2000035e:	1e18      	subs	r0, r3, #0
20000360:	d01b      	beq.n	2000039a <spi_write_read_blocking+0x4a>
20000362:	001d      	movs	r5, r3
20000364:	001c      	movs	r4, r3
20000366:	2302      	movs	r3, #2
20000368:	4698      	mov	r8, r3
2000036a:	3302      	adds	r3, #2
2000036c:	469c      	mov	ip, r3
2000036e:	2d00      	cmp	r5, #0
20000370:	d018      	beq.n	200003a4 <spi_write_read_blocking+0x54>
20000372:	002b      	movs	r3, r5
20000374:	3308      	adds	r3, #8
20000376:	4641      	mov	r1, r8
20000378:	68f7      	ldr	r7, [r6, #12]
2000037a:	4239      	tst	r1, r7
2000037c:	d01f      	beq.n	200003be <spi_write_read_blocking+0x6e>
2000037e:	42a3      	cmp	r3, r4
20000380:	d91d      	bls.n	200003be <spi_write_read_blocking+0x6e>
20000382:	2101      	movs	r1, #1
20000384:	464b      	mov	r3, r9
20000386:	468a      	mov	sl, r1
20000388:	781b      	ldrb	r3, [r3, #0]
2000038a:	3d01      	subs	r5, #1
2000038c:	60b3      	str	r3, [r6, #8]
2000038e:	44d1      	add	r9, sl
20000390:	002b      	movs	r3, r5
20000392:	2c00      	cmp	r4, #0
20000394:	d108      	bne.n	200003a8 <spi_write_read_blocking+0x58>
20000396:	2b00      	cmp	r3, #0
20000398:	d1e9      	bne.n	2000036e <spi_write_read_blocking+0x1e>
2000039a:	bce0      	pop	{r5, r6, r7}
2000039c:	46ba      	mov	sl, r7
2000039e:	46b1      	mov	r9, r6
200003a0:	46a8      	mov	r8, r5
200003a2:	bdf0      	pop	{r4, r5, r6, r7, pc}
200003a4:	2c00      	cmp	r4, #0
200003a6:	d0f8      	beq.n	2000039a <spi_write_read_blocking+0x4a>
200003a8:	4663      	mov	r3, ip
200003aa:	68f7      	ldr	r7, [r6, #12]
200003ac:	423b      	tst	r3, r7
200003ae:	d0de      	beq.n	2000036e <spi_write_read_blocking+0x1e>
200003b0:	68b3      	ldr	r3, [r6, #8]
200003b2:	3c01      	subs	r4, #1
200003b4:	7013      	strb	r3, [r2, #0]
200003b6:	0023      	movs	r3, r4
200003b8:	3201      	adds	r2, #1
200003ba:	432b      	orrs	r3, r5
200003bc:	e7eb      	b.n	20000396 <spi_write_read_blocking+0x46>
200003be:	2c00      	cmp	r4, #0
200003c0:	d1f2      	bne.n	200003a8 <spi_write_read_blocking+0x58>
200003c2:	e7d8      	b.n	20000376 <spi_write_read_blocking+0x26>

200003c4 <__aeabi_idiv0>:
200003c4:	4770      	bx	lr
200003c6:	46c0      	nop			; (mov r8, r8)

200003c8 <__time_us_64_veneer>:
200003c8:	b401      	push	{r0}
200003ca:	4802      	ldr	r0, [pc, #8]	; (200003d4 <__time_us_64_veneer+0xc>)
200003cc:	4684      	mov	ip, r0
200003ce:	bc01      	pop	{r0}
200003d0:	4760      	bx	ip
200003d2:	bf00      	nop
200003d4:	100061c9 	.word	0x100061c9

200003d8 <__best_effort_wfe_or_timeout_veneer>:
200003d8:	b401      	push	{r0}
200003da:	4802      	ldr	r0, [pc, #8]	; (200003e4 <__best_effort_wfe_or_timeout_veneer+0xc>)
200003dc:	4684      	mov	ip, r0
200003de:	bc01      	pop	{r0}
200003e0:	4760      	bx	ip
200003e2:	bf00      	nop
200003e4:	10006025 	.word	0x10006025

200003e8 <____wrap___aeabi_lmul_veneer>:
200003e8:	b401      	push	{r0}
200003ea:	4802      	ldr	r0, [pc, #8]	; (200003f4 <____wrap___aeabi_lmul_veneer+0xc>)
200003ec:	4684      	mov	ip, r0
200003ee:	bc01      	pop	{r0}
200003f0:	4760      	bx	ip
200003f2:	bf00      	nop
200003f4:	10008f15 	.word	0x10008f15

200003f8 <Font16>:
200003f8:	1000c46c 0010000b                       l.......

20000400 <id>:
20000400:	                                         R

20000401 <main_pagechange>:
20000401:	                                         .

20000402 <main_status>:
20000402:	                                         .

20000403 <pagechange>:
20000403:	                                         .

20000404 <pagestatus>:
20000404:	                                         ..

20000406 <striped_spin_lock_num>:
20000406:	                                         ..

20000408 <irq_handler_chain_slots>:
20000408:	00000000 	.word	0x00000000
2000040c:	00010000 	.word	0x00010000
	...
20000418:	00020000 	.word	0x00020000
	...
20000424:	00030000 	.word	0x00030000
	...
20000430:	00ff0000 	.word	0x00ff0000
20000434:	00000000 	.word	0x00000000

20000438 <irq_handler_chain_first_slot>:
20000438:	b500      	push	{lr}
2000043a:	6848      	ldr	r0, [r1, #4]
2000043c:	3101      	adds	r1, #1
2000043e:	468e      	mov	lr, r1
20000440:	4700      	bx	r0

20000442 <irq_handler_chain_remove_tail>:
20000442:	4670      	mov	r0, lr
20000444:	3809      	subs	r0, #9
20000446:	4901      	ldr	r1, [pc, #4]	; (2000044c <irq_handler_chain_remove_tail+0xa>)
20000448:	4788      	blx	r1
2000044a:	bd00      	pop	{pc}
2000044c:	100057e1 	.word	0x100057e1

20000450 <default_alarm_pool>:
20000450:	20000468 00000000 20000518 200010a8     h.. ....... ... 
	...

20000468 <default_alarm_pool_heap>:
20000468:	200010b8 00000000 00000000 00000010     ... ............
	...

20000480 <aeabi_bits_funcs>:
20000480:	00003350 	.word	0x00003350
20000484:	0000334c 	.word	0x0000334c
20000488:	00003354 	.word	0x00003354
2000048c:	00003352 	.word	0x00003352

20000490 <aeabi_bits_funcs_end>:
20000490:	0000534d 	.word	0x0000534d
20000494:	0000434d 	.word	0x0000434d
20000498:	00003453 	.word	0x00003453
2000049c:	00003443 	.word	0x00003443

200004a0 <stdio_usb>:
200004a0:	10009609 00000000 100095a1 00000000     ................
200004b0:	00000100                                ....

200004b4 <ep_dir_string>:
200004b4:	1000d660 1000d664                       `...d...

200004bc <_usbd_qdef>:
200004bc:	20000bdc 000c0010 ffe00000 0000001f     ... ............
	...

200004e0 <i2c0_inst>:
200004e0:	40044000 00000000                       .@.@....

200004e8 <i2c1_inst>:
200004e8:	40048000 00000000                       ...@....

200004f0 <print_mutex>:
	...

200004f8 <__mutex_array_end>:
200004f8:	10009071 	.word	0x10009071
200004fc:	10008205 	.word	0x10008205
20000500:	10008921 	.word	0x10008921
20000504:	10008fe1 	.word	0x10008fe1

20000508 <__frame_dummy_init_array_entry>:
20000508:	100002ed 10004db5 1000bc5d              .....M..]...
